
SAME70-LCD-EXT2.elf:     file format elf32-littlearm

Sections:
Idx Name          Size      VMA       LMA       File off  Algn
  0 .text         0002359c  00400000  00400000  00010000  2**6
                  CONTENTS, ALLOC, LOAD, READONLY, CODE
  1 .ARM.exidx    00000008  0042359c  0042359c  0003359c  2**2
                  CONTENTS, ALLOC, LOAD, READONLY, DATA
  2 .relocate     000009b4  20400000  004235a4  00040000  2**3
                  CONTENTS, ALLOC, LOAD, DATA
  3 .bss          00000528  204009b4  00423f58  000409b4  2**2
                  ALLOC
  4 .stack        00002004  20400edc  00424480  000409b4  2**0
                  ALLOC
  5 .heap         00000200  20402ee0  00426484  000409b4  2**0
                  ALLOC
  6 .ARM.attributes 0000002e  00000000  00000000  000409b4  2**0
                  CONTENTS, READONLY
  7 .comment      00000059  00000000  00000000  000409e2  2**0
                  CONTENTS, READONLY
  8 .debug_info   00019fdb  00000000  00000000  00040a3b  2**0
                  CONTENTS, READONLY, DEBUGGING
  9 .debug_abbrev 000037ba  00000000  00000000  0005aa16  2**0
                  CONTENTS, READONLY, DEBUGGING
 10 .debug_loc    000072e2  00000000  00000000  0005e1d0  2**0
                  CONTENTS, READONLY, DEBUGGING
 11 .debug_aranges 00000c58  00000000  00000000  000654b2  2**0
                  CONTENTS, READONLY, DEBUGGING
 12 .debug_ranges 00000cf0  00000000  00000000  0006610a  2**0
                  CONTENTS, READONLY, DEBUGGING
 13 .debug_macro  000076c0  00000000  00000000  00066dfa  2**0
                  CONTENTS, READONLY, DEBUGGING
 14 .debug_line   0000db73  00000000  00000000  0006e4ba  2**0
                  CONTENTS, READONLY, DEBUGGING
 15 .debug_str    0008e0b5  00000000  00000000  0007c02d  2**0
                  CONTENTS, READONLY, DEBUGGING
 16 .debug_frame  00002874  00000000  00000000  0010a0e4  2**2
                  CONTENTS, READONLY, DEBUGGING

Disassembly of section .text:

00400000 <exception_table>:
  400000:	e0 2e 40 20 09 16 40 00 07 16 40 00 07 16 40 00     ..@ ..@...@...@.
  400010:	07 16 40 00 07 16 40 00 07 16 40 00 00 00 00 00     ..@...@...@.....
	...
  40002c:	07 16 40 00 07 16 40 00 00 00 00 00 07 16 40 00     ..@...@.......@.
  40003c:	07 16 40 00 07 16 40 00 07 16 40 00 07 16 40 00     ..@...@...@...@.
  40004c:	07 16 40 00 07 16 40 00 07 16 40 00 07 16 40 00     ..@...@...@...@.
  40005c:	07 16 40 00 07 16 40 00 00 00 00 00 7d 11 40 00     ..@...@.....}.@.
  40006c:	91 11 40 00 a5 11 40 00 07 16 40 00 07 16 40 00     ..@...@...@...@.
  40007c:	07 16 40 00 b9 11 40 00 cd 11 40 00 07 16 40 00     ..@...@...@...@.
  40008c:	07 16 40 00 07 16 40 00 07 16 40 00 07 16 40 00     ..@...@...@...@.
  40009c:	07 16 40 00 07 16 40 00 07 16 40 00 07 16 40 00     ..@...@...@...@.
  4000ac:	07 16 40 00 07 16 40 00 11 0e 40 00 07 16 40 00     ..@...@...@...@.
  4000bc:	07 16 40 00 07 16 40 00 07 16 40 00 07 16 40 00     ..@...@...@...@.
  4000cc:	07 16 40 00 00 00 00 00 07 16 40 00 00 00 00 00     ..@.......@.....
  4000dc:	07 16 40 00 25 0e 40 00 07 16 40 00 07 16 40 00     ..@.%.@...@...@.
  4000ec:	07 16 40 00 07 16 40 00 07 16 40 00 07 16 40 00     ..@...@...@...@.
  4000fc:	07 16 40 00 07 16 40 00 07 16 40 00 07 16 40 00     ..@...@...@...@.
  40010c:	07 16 40 00 07 16 40 00 00 00 00 00 00 00 00 00     ..@...@.........
  40011c:	00 00 00 00 07 16 40 00 07 16 40 00 07 16 40 00     ......@...@...@.
  40012c:	07 16 40 00 07 16 40 00 00 00 00 00 07 16 40 00     ..@...@.......@.
  40013c:	07 16 40 00                                         ..@.

00400140 <__do_global_dtors_aux>:
  400140:	b510      	push	{r4, lr}
  400142:	4c05      	ldr	r4, [pc, #20]	; (400158 <__do_global_dtors_aux+0x18>)
  400144:	7823      	ldrb	r3, [r4, #0]
  400146:	b933      	cbnz	r3, 400156 <__do_global_dtors_aux+0x16>
  400148:	4b04      	ldr	r3, [pc, #16]	; (40015c <__do_global_dtors_aux+0x1c>)
  40014a:	b113      	cbz	r3, 400152 <__do_global_dtors_aux+0x12>
  40014c:	4804      	ldr	r0, [pc, #16]	; (400160 <__do_global_dtors_aux+0x20>)
  40014e:	f3af 8000 	nop.w
  400152:	2301      	movs	r3, #1
  400154:	7023      	strb	r3, [r4, #0]
  400156:	bd10      	pop	{r4, pc}
  400158:	204009b4 	.word	0x204009b4
  40015c:	00000000 	.word	0x00000000
  400160:	004235a4 	.word	0x004235a4

00400164 <frame_dummy>:
  400164:	4b0c      	ldr	r3, [pc, #48]	; (400198 <frame_dummy+0x34>)
  400166:	b143      	cbz	r3, 40017a <frame_dummy+0x16>
  400168:	480c      	ldr	r0, [pc, #48]	; (40019c <frame_dummy+0x38>)
  40016a:	490d      	ldr	r1, [pc, #52]	; (4001a0 <frame_dummy+0x3c>)
  40016c:	b510      	push	{r4, lr}
  40016e:	f3af 8000 	nop.w
  400172:	480c      	ldr	r0, [pc, #48]	; (4001a4 <frame_dummy+0x40>)
  400174:	6803      	ldr	r3, [r0, #0]
  400176:	b923      	cbnz	r3, 400182 <frame_dummy+0x1e>
  400178:	bd10      	pop	{r4, pc}
  40017a:	480a      	ldr	r0, [pc, #40]	; (4001a4 <frame_dummy+0x40>)
  40017c:	6803      	ldr	r3, [r0, #0]
  40017e:	b933      	cbnz	r3, 40018e <frame_dummy+0x2a>
  400180:	4770      	bx	lr
  400182:	4b09      	ldr	r3, [pc, #36]	; (4001a8 <frame_dummy+0x44>)
  400184:	2b00      	cmp	r3, #0
  400186:	d0f7      	beq.n	400178 <frame_dummy+0x14>
  400188:	e8bd 4010 	ldmia.w	sp!, {r4, lr}
  40018c:	4718      	bx	r3
  40018e:	4b06      	ldr	r3, [pc, #24]	; (4001a8 <frame_dummy+0x44>)
  400190:	2b00      	cmp	r3, #0
  400192:	d0f5      	beq.n	400180 <frame_dummy+0x1c>
  400194:	4718      	bx	r3
  400196:	bf00      	nop
  400198:	00000000 	.word	0x00000000
  40019c:	004235a4 	.word	0x004235a4
  4001a0:	204009b8 	.word	0x204009b8
  4001a4:	004235a4 	.word	0x004235a4
  4001a8:	00000000 	.word	0x00000000

004001ac <sysclk_init>:
	pmc_disable_udpck();
}
#endif // CONFIG_USBCLK_SOURCE

void sysclk_init(void)
{
  4001ac:	b510      	push	{r4, lr}
	struct pll_config pllcfg;

	/* Set flash wait state to max in case the below clock switching. */
	system_init_flash(CHIP_FREQ_CPU_MAX);
  4001ae:	4810      	ldr	r0, [pc, #64]	; (4001f0 <sysclk_init+0x44>)
  4001b0:	4b10      	ldr	r3, [pc, #64]	; (4001f4 <sysclk_init+0x48>)
  4001b2:	4798      	blx	r3
		pmc_switch_mainck_to_fastrc(CKGR_MOR_MOSCRCF_12_MHz);
		break;


	case OSC_MAINCK_XTAL:
		pmc_switch_mainck_to_xtal(PMC_OSC_XTAL,
  4001b4:	213e      	movs	r1, #62	; 0x3e
  4001b6:	2000      	movs	r0, #0
  4001b8:	4b0f      	ldr	r3, [pc, #60]	; (4001f8 <sysclk_init+0x4c>)
  4001ba:	4798      	blx	r3
	case OSC_MAINCK_4M_RC:
	case OSC_MAINCK_8M_RC:
	case OSC_MAINCK_12M_RC:
	case OSC_MAINCK_XTAL:
	case OSC_MAINCK_BYPASS:
		return pmc_osc_is_ready_mainck();
  4001bc:	4c0f      	ldr	r4, [pc, #60]	; (4001fc <sysclk_init+0x50>)
  4001be:	47a0      	blx	r4
 *
 * \param id A number identifying the oscillator to wait for.
 */
static inline void osc_wait_ready(uint8_t id)
{
	while (!osc_is_ready(id)) {
  4001c0:	2800      	cmp	r0, #0
  4001c2:	d0fc      	beq.n	4001be <sysclk_init+0x12>
static inline void pll_enable(const struct pll_config *p_cfg, uint32_t ul_pll_id)
{
	Assert(ul_pll_id < NR_PLLS);

	if (ul_pll_id == PLLA_ID) {
		pmc_disable_pllack(); // Always stop PLL first!
  4001c4:	4b0e      	ldr	r3, [pc, #56]	; (400200 <sysclk_init+0x54>)
  4001c6:	4798      	blx	r3
		PMC->CKGR_PLLAR = CKGR_PLLAR_ONE | p_cfg->ctrl;
  4001c8:	4a0e      	ldr	r2, [pc, #56]	; (400204 <sysclk_init+0x58>)
  4001ca:	4b0f      	ldr	r3, [pc, #60]	; (400208 <sysclk_init+0x5c>)
  4001cc:	629a      	str	r2, [r3, #40]	; 0x28
static inline uint32_t pll_is_locked(uint32_t ul_pll_id)
{
	Assert(ul_pll_id < NR_PLLS);

	if (ul_pll_id == PLLA_ID) {
	return pmc_is_locked_pllack();
  4001ce:	4c0f      	ldr	r4, [pc, #60]	; (40020c <sysclk_init+0x60>)
  4001d0:	47a0      	blx	r4
 */
static inline int pll_wait_for_lock(unsigned int pll_id)
{
	Assert(pll_id < NR_PLLS);

	while (!pll_is_locked(pll_id)) {
  4001d2:	2800      	cmp	r0, #0
  4001d4:	d0fc      	beq.n	4001d0 <sysclk_init+0x24>
	else if (CONFIG_SYSCLK_SOURCE == SYSCLK_SRC_PLLACK) {
		pll_enable_source(CONFIG_PLL0_SOURCE);
		pll_config_defaults(&pllcfg, 0);
		pll_enable(&pllcfg, 0);
		pll_wait_for_lock(0);
		pmc_mck_set_division(CONFIG_SYSCLK_DIV);
  4001d6:	2002      	movs	r0, #2
  4001d8:	4b0d      	ldr	r3, [pc, #52]	; (400210 <sysclk_init+0x64>)
  4001da:	4798      	blx	r3
		pmc_switch_mck_to_pllack(CONFIG_SYSCLK_PRES);
  4001dc:	2000      	movs	r0, #0
  4001de:	4b0d      	ldr	r3, [pc, #52]	; (400214 <sysclk_init+0x68>)
  4001e0:	4798      	blx	r3
		pll_wait_for_lock(1);
		pmc_mck_set_division(CONFIG_SYSCLK_DIV);
		pmc_switch_mck_to_upllck(CONFIG_SYSCLK_PRES);
	}
	/* Update the SystemFrequency variable */
	SystemCoreClockUpdate();
  4001e2:	4b0d      	ldr	r3, [pc, #52]	; (400218 <sysclk_init+0x6c>)
  4001e4:	4798      	blx	r3

	/* Set a flash wait state depending on the new cpu frequency */
	system_init_flash(sysclk_get_cpu_hz());
  4001e6:	4802      	ldr	r0, [pc, #8]	; (4001f0 <sysclk_init+0x44>)
  4001e8:	4b02      	ldr	r3, [pc, #8]	; (4001f4 <sysclk_init+0x48>)
  4001ea:	4798      	blx	r3
  4001ec:	bd10      	pop	{r4, pc}
  4001ee:	bf00      	nop
  4001f0:	11e1a300 	.word	0x11e1a300
  4001f4:	004017dd 	.word	0x004017dd
  4001f8:	0040127d 	.word	0x0040127d
  4001fc:	004012d1 	.word	0x004012d1
  400200:	004012e1 	.word	0x004012e1
  400204:	20183f01 	.word	0x20183f01
  400208:	400e0600 	.word	0x400e0600
  40020c:	004012f1 	.word	0x004012f1
  400210:	004011e1 	.word	0x004011e1
  400214:	00401219 	.word	0x00401219
  400218:	004016d1 	.word	0x004016d1

0040021c <spi_master_init>:
 *
 * \param p_spi  Base address of the SPI instance.
 *
 */
void spi_master_init(Spi *p_spi)
{
  40021c:	b510      	push	{r4, lr}
  40021e:	4604      	mov	r4, r0
#if SAMG55
	flexcom_enable(BOARD_FLEXCOM_SPI);
	flexcom_set_opmode(BOARD_FLEXCOM_SPI, FLEXCOM_SPI);
#else
	spi_enable_clock(p_spi);
  400220:	4b10      	ldr	r3, [pc, #64]	; (400264 <spi_master_init+0x48>)
  400222:	4798      	blx	r3
 *
 * \param p_spi Pointer to an SPI instance.
 */
static inline void spi_reset(Spi *p_spi)
{
	p_spi->SPI_CR = SPI_CR_SWRST;
  400224:	2380      	movs	r3, #128	; 0x80
  400226:	6023      	str	r3, [r4, #0]
 *
 * \param p_spi Pointer to an SPI instance.
 */
static inline void spi_set_master_mode(Spi *p_spi)
{
	p_spi->SPI_MR |= SPI_MR_MSTR;
  400228:	6863      	ldr	r3, [r4, #4]
  40022a:	f043 0301 	orr.w	r3, r3, #1
  40022e:	6063      	str	r3, [r4, #4]
 *
 * \param p_spi Pointer to an SPI instance.
 */
static inline void spi_disable_mode_fault_detect(Spi *p_spi)
{
	p_spi->SPI_MR |= SPI_MR_MODFDIS;
  400230:	6863      	ldr	r3, [r4, #4]
  400232:	f043 0310 	orr.w	r3, r3, #16
  400236:	6063      	str	r3, [r4, #4]
 *
 * \param p_spi Pointer to an SPI instance.
 */
static inline void spi_disable_loopback(Spi *p_spi)
{
	p_spi->SPI_MR &= (~SPI_MR_LLB);
  400238:	6863      	ldr	r3, [r4, #4]
  40023a:	f023 0380 	bic.w	r3, r3, #128	; 0x80
  40023e:	6063      	str	r3, [r4, #4]
#endif
	spi_reset(p_spi);
	spi_set_master_mode(p_spi);
	spi_disable_mode_fault_detect(p_spi);
	spi_disable_loopback(p_spi);
	spi_set_peripheral_chip_select_value(p_spi, DEFAULT_CHIP_ID);
  400240:	2100      	movs	r1, #0
  400242:	4620      	mov	r0, r4
  400244:	4b08      	ldr	r3, [pc, #32]	; (400268 <spi_master_init+0x4c>)
  400246:	4798      	blx	r3
	p_spi->SPI_MR &= (~SPI_MR_PS);
  400248:	6863      	ldr	r3, [r4, #4]
  40024a:	f023 0302 	bic.w	r3, r3, #2
  40024e:	6063      	str	r3, [r4, #4]
	p_spi->SPI_MR &= (~SPI_MR_PCSDEC);
  400250:	6863      	ldr	r3, [r4, #4]
  400252:	f023 0304 	bic.w	r3, r3, #4
  400256:	6063      	str	r3, [r4, #4]
	spi_set_fixed_peripheral_select(p_spi);
	spi_disable_peripheral_select_decode(p_spi);
	spi_set_delay_between_chip_select(p_spi, CONFIG_SPI_MASTER_DELAY_BCS);
  400258:	2100      	movs	r1, #0
  40025a:	4620      	mov	r0, r4
  40025c:	4b03      	ldr	r3, [pc, #12]	; (40026c <spi_master_init+0x50>)
  40025e:	4798      	blx	r3
  400260:	bd10      	pop	{r4, pc}
  400262:	bf00      	nop
  400264:	00401355 	.word	0x00401355
  400268:	00401381 	.word	0x00401381
  40026c:	00401397 	.word	0x00401397

00400270 <spi_master_setup_device>:
 * \param baud_rate Baud rate for communication with slave device in Hz.
 * \param sel_id    Board specific select id.
 */
void spi_master_setup_device(Spi *p_spi, struct spi_device *device,
		spi_flags_t flags, uint32_t baud_rate, board_spi_select_id_t sel_id)
{
  400270:	e92d 41f0 	stmdb	sp!, {r4, r5, r6, r7, r8, lr}
  400274:	4604      	mov	r4, r0
  400276:	460d      	mov	r5, r1
  400278:	4616      	mov	r6, r2
#if (SAM4L)
    int16_t baud_div = spi_calc_baudrate_div(baud_rate, sysclk_get_pba_hz());
#else
	int16_t baud_div = spi_calc_baudrate_div(baud_rate, sysclk_get_peripheral_hz());
  40027a:	4915      	ldr	r1, [pc, #84]	; (4002d0 <spi_master_setup_device+0x60>)
  40027c:	4618      	mov	r0, r3
  40027e:	4b15      	ldr	r3, [pc, #84]	; (4002d4 <spi_master_setup_device+0x64>)
  400280:	4798      	blx	r3
  400282:	4607      	mov	r7, r0
	/* avoid Cppcheck Warning */
	UNUSED(sel_id);
	if (-1 == baud_div) {
		Assert(0 == "Failed to find baudrate divider");
	}
	spi_set_transfer_delay(p_spi, device->id, CONFIG_SPI_MASTER_DELAY_BS,
  400284:	2301      	movs	r3, #1
  400286:	461a      	mov	r2, r3
  400288:	6829      	ldr	r1, [r5, #0]
  40028a:	4620      	mov	r0, r4
  40028c:	f8df 805c 	ldr.w	r8, [pc, #92]	; 4002ec <spi_master_setup_device+0x7c>
  400290:	47c0      	blx	r8
			CONFIG_SPI_MASTER_DELAY_BCT);
	spi_set_bits_per_transfer(p_spi, device->id,
  400292:	2200      	movs	r2, #0
  400294:	6829      	ldr	r1, [r5, #0]
  400296:	4620      	mov	r0, r4
  400298:	4b0f      	ldr	r3, [pc, #60]	; (4002d8 <spi_master_setup_device+0x68>)
  40029a:	4798      	blx	r3
			CONFIG_SPI_MASTER_BITS_PER_TRANSFER);
	spi_set_baudrate_div(p_spi, device->id, baud_div);
  40029c:	b2fa      	uxtb	r2, r7
  40029e:	6829      	ldr	r1, [r5, #0]
  4002a0:	4620      	mov	r0, r4
  4002a2:	4b0e      	ldr	r3, [pc, #56]	; (4002dc <spi_master_setup_device+0x6c>)
  4002a4:	4798      	blx	r3
	spi_configure_cs_behavior(p_spi, device->id, SPI_CS_KEEP_LOW);
  4002a6:	2208      	movs	r2, #8
  4002a8:	6829      	ldr	r1, [r5, #0]
  4002aa:	4620      	mov	r0, r4
  4002ac:	4b0c      	ldr	r3, [pc, #48]	; (4002e0 <spi_master_setup_device+0x70>)
  4002ae:	4798      	blx	r3
	spi_set_clock_polarity(p_spi, device->id, flags >> 1);
  4002b0:	0872      	lsrs	r2, r6, #1
  4002b2:	6829      	ldr	r1, [r5, #0]
  4002b4:	4620      	mov	r0, r4
  4002b6:	4b0b      	ldr	r3, [pc, #44]	; (4002e4 <spi_master_setup_device+0x74>)
  4002b8:	4798      	blx	r3
	spi_set_clock_phase(p_spi, device->id, ((flags & 0x1) ^ 0x1));
  4002ba:	f086 0201 	eor.w	r2, r6, #1
  4002be:	f002 0201 	and.w	r2, r2, #1
  4002c2:	6829      	ldr	r1, [r5, #0]
  4002c4:	4620      	mov	r0, r4
  4002c6:	4b08      	ldr	r3, [pc, #32]	; (4002e8 <spi_master_setup_device+0x78>)
  4002c8:	4798      	blx	r3
  4002ca:	e8bd 81f0 	ldmia.w	sp!, {r4, r5, r6, r7, r8, pc}
  4002ce:	bf00      	nop
  4002d0:	08f0d180 	.word	0x08f0d180
  4002d4:	00401473 	.word	0x00401473
  4002d8:	0040145f 	.word	0x0040145f
  4002dc:	00401489 	.word	0x00401489
  4002e0:	00401419 	.word	0x00401419
  4002e4:	004013dd 	.word	0x004013dd
  4002e8:	004013fb 	.word	0x004013fb
  4002ec:	004014b1 	.word	0x004014b1

004002f0 <spi_select_device>:
 * \param p_spi   Base address of the SPI instance.
 * \param device  SPI device.
 *
 */
void spi_select_device(Spi *p_spi, struct spi_device *device)
{
  4002f0:	b508      	push	{r3, lr}
	if (p_spi->SPI_MR & SPI_MR_PCSDEC) {
  4002f2:	6843      	ldr	r3, [r0, #4]
	if (spi_get_peripheral_select_decode_setting(p_spi)) {
  4002f4:	f013 0f04 	tst.w	r3, #4
  4002f8:	d006      	beq.n	400308 <spi_select_device+0x18>
		if (device->id < MAX_NUM_WITH_DECODER) {
  4002fa:	6809      	ldr	r1, [r1, #0]
  4002fc:	290f      	cmp	r1, #15
  4002fe:	d900      	bls.n	400302 <spi_select_device+0x12>
  400300:	bd08      	pop	{r3, pc}
			spi_set_peripheral_chip_select_value(p_spi, device->id);
  400302:	4b06      	ldr	r3, [pc, #24]	; (40031c <spi_select_device+0x2c>)
  400304:	4798      	blx	r3
  400306:	bd08      	pop	{r3, pc}
		}
	} else {
		if (device->id < MAX_NUM_WITHOUT_DECODER) {
  400308:	6809      	ldr	r1, [r1, #0]
  40030a:	2903      	cmp	r1, #3
  40030c:	d8f8      	bhi.n	400300 <spi_select_device+0x10>
			spi_set_peripheral_chip_select_value(p_spi, (~(1 << device->id)));
  40030e:	2301      	movs	r3, #1
  400310:	fa03 f101 	lsl.w	r1, r3, r1
  400314:	43c9      	mvns	r1, r1
  400316:	4b01      	ldr	r3, [pc, #4]	; (40031c <spi_select_device+0x2c>)
  400318:	4798      	blx	r3
		}
	}
}
  40031a:	e7f1      	b.n	400300 <spi_select_device+0x10>
  40031c:	00401381 	.word	0x00401381

00400320 <spi_write_packet>:
{
	uint32_t timeout = SPI_TIMEOUT;
	uint32_t i = 0;
	uint8_t val;

	while (len) {
  400320:	b11a      	cbz	r2, 40032a <spi_write_packet+0xa>
{
  400322:	b410      	push	{r4}
  400324:	460c      	mov	r4, r1
  400326:	4411      	add	r1, r2
  400328:	e006      	b.n	400338 <spi_write_packet+0x18>
		spi_write_single(p_spi, val);
		i++;
		len--;
	}

	return STATUS_OK;
  40032a:	2000      	movs	r0, #0
  40032c:	4770      	bx	lr
		val = data[i];
  40032e:	f814 3b01 	ldrb.w	r3, [r4], #1
 * \param data The data byte to be loaded
 *
 */
static inline void spi_put(Spi *p_spi, uint16_t data)
{
	p_spi->SPI_TDR = SPI_TDR_TD(data);
  400332:	60c3      	str	r3, [r0, #12]
	while (len) {
  400334:	42a1      	cmp	r1, r4
  400336:	d00c      	beq.n	400352 <spi_write_packet+0x32>
{
  400338:	f643 2399 	movw	r3, #15001	; 0x3a99
 * \retval 1 if transmissions are complete.
 * \retval 0 if transmissions are not complete.
 */
static inline uint32_t spi_is_tx_ready(Spi *p_spi)
{
	if (p_spi->SPI_SR & SPI_SR_TDRE) {
  40033c:	6902      	ldr	r2, [r0, #16]
		while (!spi_is_tx_ready(p_spi)) {
  40033e:	f012 0f02 	tst.w	r2, #2
  400342:	d1f4      	bne.n	40032e <spi_write_packet+0xe>
			if (!timeout--) {
  400344:	3b01      	subs	r3, #1
  400346:	d1f9      	bne.n	40033c <spi_write_packet+0x1c>
				return ERR_TIMEOUT;
  400348:	f06f 0002 	mvn.w	r0, #2
}
  40034c:	f85d 4b04 	ldr.w	r4, [sp], #4
  400350:	4770      	bx	lr
	return STATUS_OK;
  400352:	2000      	movs	r0, #0
  400354:	e7fa      	b.n	40034c <spi_write_packet+0x2c>

00400356 <spi_read_packet>:
{
	uint32_t timeout = SPI_TIMEOUT;
	uint8_t val;
	uint32_t i = 0;

	while (len) {
  400356:	b13a      	cbz	r2, 400368 <spi_read_packet+0x12>
{
  400358:	b470      	push	{r4, r5, r6}
  40035a:	4615      	mov	r5, r2
  40035c:	460c      	mov	r4, r1
  40035e:	440d      	add	r5, r1
	p_spi->SPI_TDR = SPI_TDR_TD(data);
  400360:	26ff      	movs	r6, #255	; 0xff
 *
 * \return 1 if the SPI Receiver is ready, otherwise 0.
 */
static inline uint32_t spi_is_rx_ready(Spi *p_spi)
{
	if ((p_spi->SPI_SR & (SPI_SR_RDRF | SPI_SR_TXEMPTY))
  400362:	f240 2101 	movw	r1, #513	; 0x201
  400366:	e012      	b.n	40038e <spi_read_packet+0x38>
		data[i] = val;
		i++;
		len--;
	}

	return STATUS_OK;
  400368:	2000      	movs	r0, #0
  40036a:	4770      	bx	lr
	p_spi->SPI_TDR = SPI_TDR_TD(data);
  40036c:	60c6      	str	r6, [r0, #12]
		while (!spi_is_rx_ready(p_spi)) {
  40036e:	f643 2399 	movw	r3, #15001	; 0x3a99
	if ((p_spi->SPI_SR & (SPI_SR_RDRF | SPI_SR_TXEMPTY))
  400372:	6902      	ldr	r2, [r0, #16]
  400374:	ea31 0202 	bics.w	r2, r1, r2
  400378:	d004      	beq.n	400384 <spi_read_packet+0x2e>
			if (!timeout--) {
  40037a:	3b01      	subs	r3, #1
  40037c:	d1f9      	bne.n	400372 <spi_read_packet+0x1c>
				return ERR_TIMEOUT;
  40037e:	f06f 0002 	mvn.w	r0, #2
  400382:	e00e      	b.n	4003a2 <spi_read_packet+0x4c>
	return (p_spi->SPI_RDR & SPI_RDR_RD_Msk);
  400384:	6883      	ldr	r3, [r0, #8]
 * \param data      Data to read.
 *
 */
static inline void spi_read_single(Spi *p_spi, uint8_t *data)
{
	*data = (uint8_t)spi_get(p_spi);
  400386:	f804 3b01 	strb.w	r3, [r4], #1
	while (len) {
  40038a:	42a5      	cmp	r5, r4
  40038c:	d00b      	beq.n	4003a6 <spi_read_packet+0x50>
{
  40038e:	f643 2399 	movw	r3, #15001	; 0x3a99
	if (p_spi->SPI_SR & SPI_SR_TDRE) {
  400392:	6902      	ldr	r2, [r0, #16]
		while (!spi_is_tx_ready(p_spi)) {
  400394:	f012 0f02 	tst.w	r2, #2
  400398:	d1e8      	bne.n	40036c <spi_read_packet+0x16>
			if (!timeout--) {
  40039a:	3b01      	subs	r3, #1
  40039c:	d1f9      	bne.n	400392 <spi_read_packet+0x3c>
				return ERR_TIMEOUT;
  40039e:	f06f 0002 	mvn.w	r0, #2
}
  4003a2:	bc70      	pop	{r4, r5, r6}
  4003a4:	4770      	bx	lr
	return STATUS_OK;
  4003a6:	2000      	movs	r0, #0
  4003a8:	e7fb      	b.n	4003a2 <spi_read_packet+0x4c>
	...

004003ac <_read>:
int __attribute__((weak))
_read (int file, char * ptr, int len); // Remove GCC compiler warning

int __attribute__((weak))
_read (int file, char * ptr, int len)
{
  4003ac:	e92d 41f0 	stmdb	sp!, {r4, r5, r6, r7, r8, lr}
	int nChars = 0;

	if (file != 0) {
  4003b0:	b980      	cbnz	r0, 4003d4 <_read+0x28>
  4003b2:	460c      	mov	r4, r1
  4003b4:	4690      	mov	r8, r2
		return -1;
	}

	for (; len > 0; --len) {
  4003b6:	2a00      	cmp	r2, #0
  4003b8:	dd0f      	ble.n	4003da <_read+0x2e>
  4003ba:	188f      	adds	r7, r1, r2
		ptr_get(stdio_base, ptr);
  4003bc:	4e08      	ldr	r6, [pc, #32]	; (4003e0 <_read+0x34>)
  4003be:	4d09      	ldr	r5, [pc, #36]	; (4003e4 <_read+0x38>)
  4003c0:	6830      	ldr	r0, [r6, #0]
  4003c2:	4621      	mov	r1, r4
  4003c4:	682b      	ldr	r3, [r5, #0]
  4003c6:	4798      	blx	r3
		ptr++;
  4003c8:	3401      	adds	r4, #1
	for (; len > 0; --len) {
  4003ca:	42bc      	cmp	r4, r7
  4003cc:	d1f8      	bne.n	4003c0 <_read+0x14>
		nChars++;
	}
	return nChars;
}
  4003ce:	4640      	mov	r0, r8
  4003d0:	e8bd 81f0 	ldmia.w	sp!, {r4, r5, r6, r7, r8, pc}
		return -1;
  4003d4:	f04f 38ff 	mov.w	r8, #4294967295
  4003d8:	e7f9      	b.n	4003ce <_read+0x22>
	for (; len > 0; --len) {
  4003da:	4680      	mov	r8, r0
  4003dc:	e7f7      	b.n	4003ce <_read+0x22>
  4003de:	bf00      	nop
  4003e0:	20400e44 	.word	0x20400e44
  4003e4:	20400e3c 	.word	0x20400e3c

004003e8 <_write>:
int __attribute__((weak))
_write (int file, const char *ptr, int len)
{
	int nChars = 0;

	if ((file != 1) && (file != 2) && (file!=3)) {
  4003e8:	3801      	subs	r0, #1
  4003ea:	2802      	cmp	r0, #2
  4003ec:	d815      	bhi.n	40041a <_write+0x32>
{
  4003ee:	e92d 41f0 	stmdb	sp!, {r4, r5, r6, r7, r8, lr}
  4003f2:	460e      	mov	r6, r1
  4003f4:	4614      	mov	r4, r2
		return -1;
	}

	for (; len != 0; --len) {
  4003f6:	b19a      	cbz	r2, 400420 <_write+0x38>
  4003f8:	460d      	mov	r5, r1
		if (ptr_put(stdio_base, *ptr++) < 0) {
  4003fa:	f8df 8038 	ldr.w	r8, [pc, #56]	; 400434 <_write+0x4c>
  4003fe:	4f0c      	ldr	r7, [pc, #48]	; (400430 <_write+0x48>)
  400400:	f8d8 0000 	ldr.w	r0, [r8]
  400404:	f815 1b01 	ldrb.w	r1, [r5], #1
  400408:	683b      	ldr	r3, [r7, #0]
  40040a:	4798      	blx	r3
  40040c:	2800      	cmp	r0, #0
  40040e:	db0a      	blt.n	400426 <_write+0x3e>
  400410:	1ba8      	subs	r0, r5, r6
	for (; len != 0; --len) {
  400412:	3c01      	subs	r4, #1
  400414:	d1f4      	bne.n	400400 <_write+0x18>
  400416:	e8bd 81f0 	ldmia.w	sp!, {r4, r5, r6, r7, r8, pc}
		return -1;
  40041a:	f04f 30ff 	mov.w	r0, #4294967295
  40041e:	4770      	bx	lr
	for (; len != 0; --len) {
  400420:	4610      	mov	r0, r2
  400422:	e8bd 81f0 	ldmia.w	sp!, {r4, r5, r6, r7, r8, pc}
			return -1;
  400426:	f04f 30ff 	mov.w	r0, #4294967295
		}
		++nChars;
	}
	return nChars;
}
  40042a:	e8bd 81f0 	ldmia.w	sp!, {r4, r5, r6, r7, r8, pc}
  40042e:	bf00      	nop
  400430:	20400e40 	.word	0x20400e40
  400434:	20400e44 	.word	0x20400e44

00400438 <board_init>:
	__ISB();
}
#endif

void board_init(void)
{
  400438:	e92d 41f0 	stmdb	sp!, {r4, r5, r6, r7, r8, lr}
#ifndef CONF_BOARD_KEEP_WATCHDOG_AT_INIT
	/* Disable the watchdog */
	WDT->WDT_MR = WDT_MR_WDDIS;
  40043c:	f44f 4200 	mov.w	r2, #32768	; 0x8000
  400440:	4b9e      	ldr	r3, [pc, #632]	; (4006bc <board_init+0x284>)
  400442:	605a      	str	r2, [r3, #4]
    This function acts as a special kind of Data Memory Barrier.
    It completes when all explicit memory accesses before this instruction complete.
 */
__attribute__( ( always_inline ) ) __STATIC_INLINE void __DSB(void)
{
  __ASM volatile ("dsb");
  400444:	f3bf 8f4f 	dsb	sy
  __ASM volatile ("isb");
  400448:	f3bf 8f6f 	isb	sy
__STATIC_INLINE void SCB_EnableICache(void)
{
  #if (__ICACHE_PRESENT == 1)
    __DSB();
    __ISB();
    SCB->ICIALLU = 0;                       // invalidate I-Cache
  40044c:	4b9c      	ldr	r3, [pc, #624]	; (4006c0 <board_init+0x288>)
  40044e:	2200      	movs	r2, #0
  400450:	f8c3 2250 	str.w	r2, [r3, #592]	; 0x250
    SCB->CCR |=  SCB_CCR_IC_Msk;            // enable I-Cache
  400454:	695a      	ldr	r2, [r3, #20]
  400456:	f442 3200 	orr.w	r2, r2, #131072	; 0x20000
  40045a:	615a      	str	r2, [r3, #20]
  __ASM volatile ("dsb");
  40045c:	f3bf 8f4f 	dsb	sy
  __ASM volatile ("isb");
  400460:	f3bf 8f6f 	isb	sy
{
  #if (__DCACHE_PRESENT == 1)
    uint32_t ccsidr, sshift, wshift, sw;
    uint32_t sets, ways;

    ccsidr  = SCB->CCSIDR;
  400464:	f8d3 7080 	ldr.w	r7, [r3, #128]	; 0x80
    sets    = CCSIDR_SETS(ccsidr);
  400468:	f3c7 364e 	ubfx	r6, r7, #13, #15
    sshift  = CCSIDR_LSSHIFT(ccsidr) + 4;
  40046c:	f007 0007 	and.w	r0, r7, #7
  400470:	3004      	adds	r0, #4
    ways    = CCSIDR_WAYS(ccsidr);
  400472:	f3c7 07c9 	ubfx	r7, r7, #3, #10
 */
__attribute__( ( always_inline ) ) __STATIC_INLINE uint8_t __CLZ(uint32_t value)
{
  uint32_t result;

  __ASM volatile ("clz %0, %1" : "=r" (result) : "r" (value) );
  400476:	fab7 fe87 	clz	lr, r7
    wshift  = __CLZ(ways) & 0x1f;
  40047a:	f00e 0e1f 	and.w	lr, lr, #31
  __ASM volatile ("dsb");
  40047e:	f3bf 8f4f 	dsb	sy
  400482:	f04f 34ff 	mov.w	r4, #4294967295
  400486:	fa04 fc00 	lsl.w	ip, r4, r0
  40048a:	fa06 f000 	lsl.w	r0, r6, r0
  40048e:	fa04 f40e 	lsl.w	r4, r4, lr
  400492:	fa07 fe0e 	lsl.w	lr, r7, lr

    do {                                    // invalidate D-Cache
         int32_t tmpways = ways;
         do {
              sw = ((tmpways << wshift) | (sets << sshift));
              SCB->DCISW = sw;
  400496:	461d      	mov	r5, r3
         int32_t tmpways = ways;
  400498:	463a      	mov	r2, r7
  40049a:	4673      	mov	r3, lr
              sw = ((tmpways << wshift) | (sets << sshift));
  40049c:	ea40 0103 	orr.w	r1, r0, r3
              SCB->DCISW = sw;
  4004a0:	f8c5 1260 	str.w	r1, [r5, #608]	; 0x260
            } while(tmpways--);
  4004a4:	3a01      	subs	r2, #1
  4004a6:	4423      	add	r3, r4
  4004a8:	f1b2 3fff 	cmp.w	r2, #4294967295
  4004ac:	d1f6      	bne.n	40049c <board_init+0x64>
        } while(sets--);
  4004ae:	3e01      	subs	r6, #1
  4004b0:	4460      	add	r0, ip
  4004b2:	f1b6 3fff 	cmp.w	r6, #4294967295
  4004b6:	d1ef      	bne.n	400498 <board_init+0x60>
  4004b8:	f3bf 8f4f 	dsb	sy
    __DSB();

    SCB->CCR |=  SCB_CCR_DC_Msk;            // enable D-Cache
  4004bc:	4b80      	ldr	r3, [pc, #512]	; (4006c0 <board_init+0x288>)
  4004be:	695a      	ldr	r2, [r3, #20]
  4004c0:	f442 3280 	orr.w	r2, r2, #65536	; 0x10000
  4004c4:	615a      	str	r2, [r3, #20]
  4004c6:	f3bf 8f4f 	dsb	sy
  __ASM volatile ("isb");
  4004ca:	f3bf 8f6f 	isb	sy
		*dst++ = *src++;
	}
#endif
#else
	/* TCM Configuration */
	EFC->EEFC_FCR = (EEFC_FCR_FKEY_PASSWD | EEFC_FCR_FCMD_CGPB 
  4004ce:	4a7d      	ldr	r2, [pc, #500]	; (4006c4 <board_init+0x28c>)
  4004d0:	497d      	ldr	r1, [pc, #500]	; (4006c8 <board_init+0x290>)
  4004d2:	6051      	str	r1, [r2, #4]
					| EEFC_FCR_FARG(8));
	EFC->EEFC_FCR = (EEFC_FCR_FKEY_PASSWD | EEFC_FCR_FCMD_CGPB 
  4004d4:	f5a1 7180 	sub.w	r1, r1, #256	; 0x100
  4004d8:	6051      	str	r1, [r2, #4]
  __ASM volatile ("dsb");
  4004da:	f3bf 8f4f 	dsb	sy
  __ASM volatile ("isb");
  4004de:	f3bf 8f6f 	isb	sy
	SCB->ITCMCR &= ~(uint32_t)(1UL);
  4004e2:	f8d3 2290 	ldr.w	r2, [r3, #656]	; 0x290
  4004e6:	f022 0201 	bic.w	r2, r2, #1
  4004ea:	f8c3 2290 	str.w	r2, [r3, #656]	; 0x290
	SCB->DTCMCR &= ~(uint32_t)SCB_DTCMCR_EN_Msk;
  4004ee:	f8d3 2294 	ldr.w	r2, [r3, #660]	; 0x294
  4004f2:	f022 0201 	bic.w	r2, r2, #1
  4004f6:	f8c3 2294 	str.w	r2, [r3, #660]	; 0x294
  __ASM volatile ("dsb");
  4004fa:	f3bf 8f4f 	dsb	sy
  __ASM volatile ("isb");
  4004fe:	f3bf 8f6f 	isb	sy
 *
 * \param ul_id Id (number) of the peripheral clock.
 */
static inline void sysclk_enable_peripheral_clock(uint32_t ul_id)
{
	pmc_enable_periph_clk(ul_id);
  400502:	200a      	movs	r0, #10
  400504:	4c71      	ldr	r4, [pc, #452]	; (4006cc <board_init+0x294>)
  400506:	47a0      	blx	r4
  400508:	200b      	movs	r0, #11
  40050a:	47a0      	blx	r4
  40050c:	200c      	movs	r0, #12
  40050e:	47a0      	blx	r4
  400510:	2010      	movs	r0, #16
  400512:	47a0      	blx	r4
  400514:	2011      	movs	r0, #17
  400516:	47a0      	blx	r4
		enum ioport_direction dir)
{
	Pio *base = arch_ioport_pin_to_base(pin);

	if (dir == IOPORT_DIR_OUTPUT) {
		base->PIO_OER = arch_ioport_pin_to_mask(pin);
  400518:	4e6d      	ldr	r6, [pc, #436]	; (4006d0 <board_init+0x298>)
  40051a:	f44f 7880 	mov.w	r8, #256	; 0x100
  40051e:	f8c6 8010 	str.w	r8, [r6, #16]
	} else if (dir == IOPORT_DIR_INPUT) {
		base->PIO_ODR = arch_ioport_pin_to_mask(pin);
	}

	base->PIO_OWER = arch_ioport_pin_to_mask(pin);
  400522:	f8c6 80a0 	str.w	r8, [r6, #160]	; 0xa0
		bool level)
{
	Pio *base = arch_ioport_pin_to_base(pin);

	if (level) {
		base->PIO_SODR = arch_ioport_pin_to_mask(pin);
  400526:	f8c6 8030 	str.w	r8, [r6, #48]	; 0x30
		base->PIO_ODR = arch_ioport_pin_to_mask(pin);
  40052a:	4c6a      	ldr	r4, [pc, #424]	; (4006d4 <board_init+0x29c>)
  40052c:	f44f 6500 	mov.w	r5, #2048	; 0x800
  400530:	6165      	str	r5, [r4, #20]
	base->PIO_OWER = arch_ioport_pin_to_mask(pin);
  400532:	f8c4 50a0 	str.w	r5, [r4, #160]	; 0xa0
		base->PIO_PUER = mask;
  400536:	6665      	str	r5, [r4, #100]	; 0x64
		base->PIO_PPDDR = mask;
  400538:	f8c4 5090 	str.w	r5, [r4, #144]	; 0x90
		base->PIO_MDDR = mask;
  40053c:	6565      	str	r5, [r4, #84]	; 0x54
		base->PIO_IFER = mask;
  40053e:	6225      	str	r5, [r4, #32]
		base->PIO_IFSCER = mask;
  400540:	f8c4 5084 	str.w	r5, [r4, #132]	; 0x84
		base->PIO_ABCDSR[0] &= ~mask;
  400544:	6f23      	ldr	r3, [r4, #112]	; 0x70
  400546:	f423 6300 	bic.w	r3, r3, #2048	; 0x800
  40054a:	6723      	str	r3, [r4, #112]	; 0x70
		base->PIO_ABCDSR[1] &= ~mask;
  40054c:	6f63      	ldr	r3, [r4, #116]	; 0x74
  40054e:	f423 6300 	bic.w	r3, r3, #2048	; 0x800
  400552:	6763      	str	r3, [r4, #116]	; 0x74
	case IOPORT_SENSE_FALLING:
		base->PIO_ESR = mask;
		base->PIO_FELLSR = mask;
		break;
	case IOPORT_SENSE_RISING:
		base->PIO_ESR = mask;
  400554:	f8c4 50c0 	str.w	r5, [r4, #192]	; 0xc0
		base->PIO_REHLSR = mask;
  400558:	f8c4 50d4 	str.w	r5, [r4, #212]	; 0xd4
		break;
	default:
		base->PIO_AIMDR = mask;
		return;
	}
	base->PIO_AIMER = mask;
  40055c:	f8c4 50b0 	str.w	r5, [r4, #176]	; 0xb0
		base->PIO_PUDR = mask;
  400560:	f44f 1300 	mov.w	r3, #2097152	; 0x200000
  400564:	6623      	str	r3, [r4, #96]	; 0x60
		base->PIO_PPDDR = mask;
  400566:	f8c4 3090 	str.w	r3, [r4, #144]	; 0x90
		base->PIO_MDDR = mask;
  40056a:	6563      	str	r3, [r4, #84]	; 0x54
		base->PIO_IFDR = mask;
  40056c:	6263      	str	r3, [r4, #36]	; 0x24
		base->PIO_IFSCDR = mask;
  40056e:	f8c4 3080 	str.w	r3, [r4, #128]	; 0x80
		base->PIO_ABCDSR[0] &= ~mask;
  400572:	6f22      	ldr	r2, [r4, #112]	; 0x70
  400574:	f422 1200 	bic.w	r2, r2, #2097152	; 0x200000
  400578:	6722      	str	r2, [r4, #112]	; 0x70
		base->PIO_ABCDSR[1] &= ~mask;
  40057a:	6f62      	ldr	r2, [r4, #116]	; 0x74
  40057c:	f422 1200 	bic.w	r2, r2, #2097152	; 0x200000
  400580:	6762      	str	r2, [r4, #116]	; 0x74
	arch_ioport_port_to_base(port)->PIO_PDR = mask;
  400582:	6063      	str	r3, [r4, #4]
			GPIO_PUSH_BUTTON_1_SENSE);

#ifdef CONF_BOARD_UART_CONSOLE
	/* Configure UART pins */
	ioport_set_pin_peripheral_mode(USART1_RXD_GPIO, USART1_RXD_FLAGS);
	MATRIX->CCFG_SYSIO |= CCFG_SYSIO_SYSIO4;
  400584:	4a54      	ldr	r2, [pc, #336]	; (4006d8 <board_init+0x2a0>)
  400586:	f8d2 3114 	ldr.w	r3, [r2, #276]	; 0x114
  40058a:	f043 0310 	orr.w	r3, r3, #16
  40058e:	f8c2 3114 	str.w	r3, [r2, #276]	; 0x114
		base->PIO_PUDR = mask;
  400592:	f502 22b2 	add.w	r2, r2, #364544	; 0x59000
  400596:	2310      	movs	r3, #16
  400598:	6613      	str	r3, [r2, #96]	; 0x60
		base->PIO_PPDDR = mask;
  40059a:	f8c2 3090 	str.w	r3, [r2, #144]	; 0x90
		base->PIO_MDDR = mask;
  40059e:	6553      	str	r3, [r2, #84]	; 0x54
		base->PIO_IFDR = mask;
  4005a0:	6253      	str	r3, [r2, #36]	; 0x24
		base->PIO_IFSCDR = mask;
  4005a2:	f8c2 3080 	str.w	r3, [r2, #128]	; 0x80
		base->PIO_ABCDSR[0] |= mask;
  4005a6:	6f11      	ldr	r1, [r2, #112]	; 0x70
  4005a8:	4319      	orrs	r1, r3
  4005aa:	6711      	str	r1, [r2, #112]	; 0x70
		base->PIO_ABCDSR[1] |= mask;
  4005ac:	6f51      	ldr	r1, [r2, #116]	; 0x74
  4005ae:	4319      	orrs	r1, r3
  4005b0:	6751      	str	r1, [r2, #116]	; 0x74
	arch_ioport_port_to_base(port)->PIO_PDR = mask;
  4005b2:	6053      	str	r3, [r2, #4]
		base->PIO_PUDR = mask;
  4005b4:	2208      	movs	r2, #8
  4005b6:	6622      	str	r2, [r4, #96]	; 0x60
		base->PIO_PPDDR = mask;
  4005b8:	f8c4 2090 	str.w	r2, [r4, #144]	; 0x90
		base->PIO_MDDR = mask;
  4005bc:	6562      	str	r2, [r4, #84]	; 0x54
		base->PIO_IFDR = mask;
  4005be:	6262      	str	r2, [r4, #36]	; 0x24
		base->PIO_IFSCDR = mask;
  4005c0:	f8c4 2080 	str.w	r2, [r4, #128]	; 0x80
		base->PIO_ABCDSR[0] &= ~mask;
  4005c4:	6f21      	ldr	r1, [r4, #112]	; 0x70
  4005c6:	f021 0108 	bic.w	r1, r1, #8
  4005ca:	6721      	str	r1, [r4, #112]	; 0x70
		base->PIO_ABCDSR[1] &= ~mask;
  4005cc:	6f61      	ldr	r1, [r4, #116]	; 0x74
  4005ce:	f021 0108 	bic.w	r1, r1, #8
  4005d2:	6761      	str	r1, [r4, #116]	; 0x74
	arch_ioport_port_to_base(port)->PIO_PDR = mask;
  4005d4:	6062      	str	r2, [r4, #4]
		base->PIO_PUDR = mask;
  4005d6:	6623      	str	r3, [r4, #96]	; 0x60
		base->PIO_PPDDR = mask;
  4005d8:	f8c4 3090 	str.w	r3, [r4, #144]	; 0x90
		base->PIO_MDDR = mask;
  4005dc:	6563      	str	r3, [r4, #84]	; 0x54
		base->PIO_IFDR = mask;
  4005de:	6263      	str	r3, [r4, #36]	; 0x24
		base->PIO_IFSCDR = mask;
  4005e0:	f8c4 3080 	str.w	r3, [r4, #128]	; 0x80
		base->PIO_ABCDSR[0] &= ~mask;
  4005e4:	6f22      	ldr	r2, [r4, #112]	; 0x70
  4005e6:	f022 0210 	bic.w	r2, r2, #16
  4005ea:	6722      	str	r2, [r4, #112]	; 0x70
		base->PIO_ABCDSR[1] &= ~mask;
  4005ec:	6f62      	ldr	r2, [r4, #116]	; 0x74
  4005ee:	f022 0210 	bic.w	r2, r2, #16
  4005f2:	6762      	str	r2, [r4, #116]	; 0x74
	arch_ioport_port_to_base(port)->PIO_PDR = mask;
  4005f4:	6063      	str	r3, [r4, #4]
	ioport_set_pin_mode(SD_MMC_0_CD_GPIO, SD_MMC_0_CD_FLAGS);
#endif

#ifdef CONF_BOARD_ILI9488
	/**LCD pin configure on EBI*/
	pio_configure(PIN_EBI_RESET_PIO, PIN_EBI_RESET_TYPE, PIN_EBI_RESET_MASK, PIN_EBI_RESET_ATTRI);
  4005f6:	2300      	movs	r3, #0
  4005f8:	f44f 5200 	mov.w	r2, #8192	; 0x2000
  4005fc:	f04f 5160 	mov.w	r1, #939524096	; 0x38000000
  400600:	4630      	mov	r0, r6
  400602:	4f36      	ldr	r7, [pc, #216]	; (4006dc <board_init+0x2a4>)
  400604:	47b8      	blx	r7
	pio_configure(PIN_EBI_CDS_PIO, PIN_EBI_CDS_TYPE, PIN_EBI_CDS_MASK, PIN_EBI_CDS_ATTRI);
  400606:	2300      	movs	r3, #0
  400608:	f04f 4280 	mov.w	r2, #1073741824	; 0x40000000
  40060c:	f04f 5160 	mov.w	r1, #939524096	; 0x38000000
  400610:	4630      	mov	r0, r6
  400612:	47b8      	blx	r7
	pio_configure(PIN_EBI_DATAL_PIO, PIN_EBI_DATAL_TYPE, PIN_EBI_DATAL_MASK, PIN_EBI_DATAL_ATTRI);
  400614:	2301      	movs	r3, #1
  400616:	22ff      	movs	r2, #255	; 0xff
  400618:	f04f 6100 	mov.w	r1, #134217728	; 0x8000000
  40061c:	4630      	mov	r0, r6
  40061e:	47b8      	blx	r7
	pio_configure(PIN_EBI_DATAH_0_PIO, PIN_EBI_DATAH_0_TYPE, PIN_EBI_DATAH_0_MASK, PIN_EBI_DATAH_0_ATTRI);
  400620:	2301      	movs	r3, #1
  400622:	223f      	movs	r2, #63	; 0x3f
  400624:	f04f 6100 	mov.w	r1, #134217728	; 0x8000000
  400628:	482d      	ldr	r0, [pc, #180]	; (4006e0 <board_init+0x2a8>)
  40062a:	47b8      	blx	r7
	pio_configure(PIN_EBI_DATAH_1_PIO, PIN_EBI_DATAH_1_TYPE, PIN_EBI_DATAH_1_MASK, PIN_EBI_DATAH_1_ATTRI);
  40062c:	2301      	movs	r3, #1
  40062e:	f44f 32c0 	mov.w	r2, #98304	; 0x18000
  400632:	f04f 6100 	mov.w	r1, #134217728	; 0x8000000
  400636:	4620      	mov	r0, r4
  400638:	47b8      	blx	r7
	pio_configure(PIN_EBI_NWE_PIO, PIN_EBI_NWE_TYPE, PIN_EBI_NWE_MASK, PIN_EBI_NWE_ATTRI);
  40063a:	2301      	movs	r3, #1
  40063c:	4642      	mov	r2, r8
  40063e:	f04f 6100 	mov.w	r1, #134217728	; 0x8000000
  400642:	4630      	mov	r0, r6
  400644:	47b8      	blx	r7
	pio_configure(PIN_EBI_NRD_PIO, PIN_EBI_NRD_TYPE, PIN_EBI_NRD_MASK, PIN_EBI_NRD_ATTRI);
  400646:	2301      	movs	r3, #1
  400648:	462a      	mov	r2, r5
  40064a:	f04f 6100 	mov.w	r1, #134217728	; 0x8000000
  40064e:	4630      	mov	r0, r6
  400650:	47b8      	blx	r7
	pio_configure(PIN_EBI_CS_PIO, PIN_EBI_CS_TYPE, PIN_EBI_CS_MASK, PIN_EBI_CS_ATTRI);
  400652:	2301      	movs	r3, #1
  400654:	f44f 2200 	mov.w	r2, #524288	; 0x80000
  400658:	f04f 6100 	mov.w	r1, #134217728	; 0x8000000
  40065c:	4821      	ldr	r0, [pc, #132]	; (4006e4 <board_init+0x2ac>)
  40065e:	47b8      	blx	r7
	pio_configure(PIN_EBI_BACKLIGHT_PIO, PIN_EBI_BACKLIGHT_TYPE, PIN_EBI_BACKLIGHT_MASK, PIN_EBI_BACKLIGHT_ATTRI);
  400660:	2300      	movs	r3, #0
  400662:	f44f 7200 	mov.w	r2, #512	; 0x200
  400666:	f04f 5180 	mov.w	r1, #268435456	; 0x10000000
  40066a:	4630      	mov	r0, r6
  40066c:	47b8      	blx	r7
	pio_set(PIN_EBI_BACKLIGHT_PIO, PIN_EBI_BACKLIGHT_MASK);
  40066e:	f44f 7100 	mov.w	r1, #512	; 0x200
  400672:	4630      	mov	r0, r6
  400674:	4b1c      	ldr	r3, [pc, #112]	; (4006e8 <board_init+0x2b0>)
  400676:	4798      	blx	r3
	MATRIX->CCFG_SMCNFCS = CCFG_SMCNFCS_SDRAMEN;
#endif

#ifdef CONF_BOARD_ILI9488
	/**LCD pin configure on SPI*/
	pio_configure_pin(LCD_SPI_MISO_PIO, LCD_SPI_MISO_FLAGS);
  400678:	f04f 5180 	mov.w	r1, #268435456	; 0x10000000
  40067c:	2074      	movs	r0, #116	; 0x74
  40067e:	4c1b      	ldr	r4, [pc, #108]	; (4006ec <board_init+0x2b4>)
  400680:	47a0      	blx	r4
	pio_configure_pin(LCD_SPI_MOSI_PIO, LCD_SPI_MOSI_FLAGS);
  400682:	f04f 5180 	mov.w	r1, #268435456	; 0x10000000
  400686:	2075      	movs	r0, #117	; 0x75
  400688:	47a0      	blx	r4
	pio_configure_pin(LCD_SPI_SPCK_PIO, LCD_SPI_SPCK_FLAGS);
  40068a:	f04f 5180 	mov.w	r1, #268435456	; 0x10000000
  40068e:	2076      	movs	r0, #118	; 0x76
  400690:	47a0      	blx	r4
	pio_configure_pin(LCD_SPI_NPCS_PIO, LCD_SPI_NPCS_FLAGS);
  400692:	f04f 5180 	mov.w	r1, #268435456	; 0x10000000
  400696:	207b      	movs	r0, #123	; 0x7b
  400698:	47a0      	blx	r4
	pio_configure_pin(LCD_SPI_RESET_PIO, LCD_SPI_RESET_FLAGS);
  40069a:	f04f 5160 	mov.w	r1, #939524096	; 0x38000000
  40069e:	2018      	movs	r0, #24
  4006a0:	47a0      	blx	r4
	pio_configure_pin(LCD_SPI_CDS_PIO, LCD_SPI_CDS_FLAGS);
  4006a2:	f04f 5160 	mov.w	r1, #939524096	; 0x38000000
  4006a6:	2006      	movs	r0, #6
  4006a8:	47a0      	blx	r4
	pio_configure_pin(LCD_SPI_BACKLIGHT_PIO, LCD_SPI_BACKLIGHT_FLAGS);
  4006aa:	f04f 5160 	mov.w	r1, #939524096	; 0x38000000
  4006ae:	2053      	movs	r0, #83	; 0x53
  4006b0:	47a0      	blx	r4
	pio_set_pin_high(LCD_SPI_BACKLIGHT_PIO);
  4006b2:	2053      	movs	r0, #83	; 0x53
  4006b4:	4b0e      	ldr	r3, [pc, #56]	; (4006f0 <board_init+0x2b8>)
  4006b6:	4798      	blx	r3
  4006b8:	e8bd 81f0 	ldmia.w	sp!, {r4, r5, r6, r7, r8, pc}
  4006bc:	400e1850 	.word	0x400e1850
  4006c0:	e000ed00 	.word	0xe000ed00
  4006c4:	400e0c00 	.word	0x400e0c00
  4006c8:	5a00080c 	.word	0x5a00080c
  4006cc:	00401301 	.word	0x00401301
  4006d0:	400e1200 	.word	0x400e1200
  4006d4:	400e0e00 	.word	0x400e0e00
  4006d8:	40088000 	.word	0x40088000
  4006dc:	00400f2d 	.word	0x00400f2d
  4006e0:	400e1600 	.word	0x400e1600
  4006e4:	400e1400 	.word	0x400e1400
  4006e8:	00400e39 	.word	0x00400e39
  4006ec:	00400ffd 	.word	0x00400ffd
  4006f0:	00400fc5 	.word	0x00400fc5

004006f4 <ili9488_check_box_coordinates>:
 * \param p_ul_x2 X coordinate of lower-right corner on LCD.
 * \param p_ul_y2 Y coordinate of lower-right corner on LCD.
 */
static void ili9488_check_box_coordinates(uint32_t *p_ul_x1, uint32_t *p_ul_y1,
		uint32_t *p_ul_x2, uint32_t *p_ul_y2)
{
  4006f4:	b430      	push	{r4, r5}
	uint32_t dw;

	if (*p_ul_x1 >= ILI9488_LCD_WIDTH) {
  4006f6:	6804      	ldr	r4, [r0, #0]
  4006f8:	f5b4 7fa0 	cmp.w	r4, #320	; 0x140
  4006fc:	d302      	bcc.n	400704 <ili9488_check_box_coordinates+0x10>
		*p_ul_x1 = ILI9488_LCD_WIDTH - 1;
  4006fe:	f240 143f 	movw	r4, #319	; 0x13f
  400702:	6004      	str	r4, [r0, #0]
	}

	if (*p_ul_x2 >= ILI9488_LCD_WIDTH) {
  400704:	6814      	ldr	r4, [r2, #0]
  400706:	f5b4 7fa0 	cmp.w	r4, #320	; 0x140
  40070a:	d302      	bcc.n	400712 <ili9488_check_box_coordinates+0x1e>
		*p_ul_x2 = ILI9488_LCD_WIDTH - 1;
  40070c:	f240 143f 	movw	r4, #319	; 0x13f
  400710:	6014      	str	r4, [r2, #0]
	}

	if (*p_ul_y1 >= ILI9488_LCD_HEIGHT) {
  400712:	680c      	ldr	r4, [r1, #0]
  400714:	f5b4 7ff0 	cmp.w	r4, #480	; 0x1e0
  400718:	d302      	bcc.n	400720 <ili9488_check_box_coordinates+0x2c>
		*p_ul_y1 = ILI9488_LCD_HEIGHT - 1;
  40071a:	f240 14df 	movw	r4, #479	; 0x1df
  40071e:	600c      	str	r4, [r1, #0]
	}

	if (*p_ul_y2 >= ILI9488_LCD_HEIGHT) {
  400720:	681c      	ldr	r4, [r3, #0]
  400722:	f5b4 7ff0 	cmp.w	r4, #480	; 0x1e0
  400726:	d302      	bcc.n	40072e <ili9488_check_box_coordinates+0x3a>
		*p_ul_y2 = ILI9488_LCD_HEIGHT - 1;
  400728:	f240 14df 	movw	r4, #479	; 0x1df
  40072c:	601c      	str	r4, [r3, #0]
	}

	if (*p_ul_x1 > *p_ul_x2) {
  40072e:	6804      	ldr	r4, [r0, #0]
  400730:	6815      	ldr	r5, [r2, #0]
  400732:	42ac      	cmp	r4, r5
  400734:	d901      	bls.n	40073a <ili9488_check_box_coordinates+0x46>
		dw = *p_ul_x1;
		*p_ul_x1 = *p_ul_x2;
  400736:	6005      	str	r5, [r0, #0]
		*p_ul_x2 = dw;
  400738:	6014      	str	r4, [r2, #0]
	}

	if (*p_ul_y1 > *p_ul_y2) {
  40073a:	680a      	ldr	r2, [r1, #0]
  40073c:	6818      	ldr	r0, [r3, #0]
  40073e:	4282      	cmp	r2, r0
  400740:	d901      	bls.n	400746 <ili9488_check_box_coordinates+0x52>
		dw = *p_ul_y1;
		*p_ul_y1 = *p_ul_y2;
  400742:	6008      	str	r0, [r1, #0]
		*p_ul_y2 = dw;
  400744:	601a      	str	r2, [r3, #0]
	}
}
  400746:	bc30      	pop	{r4, r5}
  400748:	4770      	bx	lr
	...

0040074c <ili9488_write_ram_prepare>:
{
  40074c:	b510      	push	{r4, lr}
  40074e:	b082      	sub	sp, #8
	pio_set_pin_low(LCD_SPI_CDS_PIO);
  400750:	2006      	movs	r0, #6
  400752:	4b0a      	ldr	r3, [pc, #40]	; (40077c <ili9488_write_ram_prepare+0x30>)
  400754:	4798      	blx	r3
	spi_write(BOARD_ILI9488_SPI, ILI9488_CMD_MEMORY_WRITE, BOARD_ILI9488_SPI_NPCS, 0);
  400756:	2300      	movs	r3, #0
  400758:	2203      	movs	r2, #3
  40075a:	212c      	movs	r1, #44	; 0x2c
  40075c:	4808      	ldr	r0, [pc, #32]	; (400780 <ili9488_write_ram_prepare+0x34>)
  40075e:	4c09      	ldr	r4, [pc, #36]	; (400784 <ili9488_write_ram_prepare+0x38>)
  400760:	47a0      	blx	r4
	for(i = 0; i < 0xFF; i++);
  400762:	2300      	movs	r3, #0
  400764:	9301      	str	r3, [sp, #4]
  400766:	9b01      	ldr	r3, [sp, #4]
  400768:	2bfe      	cmp	r3, #254	; 0xfe
  40076a:	d805      	bhi.n	400778 <ili9488_write_ram_prepare+0x2c>
  40076c:	9b01      	ldr	r3, [sp, #4]
  40076e:	3301      	adds	r3, #1
  400770:	9301      	str	r3, [sp, #4]
  400772:	9b01      	ldr	r3, [sp, #4]
  400774:	2bfe      	cmp	r3, #254	; 0xfe
  400776:	d9f9      	bls.n	40076c <ili9488_write_ram_prepare+0x20>
}
  400778:	b002      	add	sp, #8
  40077a:	bd10      	pop	{r4, pc}
  40077c:	00400fe1 	.word	0x00400fe1
  400780:	40008000 	.word	0x40008000
  400784:	004013a9 	.word	0x004013a9

00400788 <ili9488_write_register>:
{
  400788:	b570      	push	{r4, r5, r6, lr}
  40078a:	b082      	sub	sp, #8
  40078c:	4605      	mov	r5, r0
  40078e:	460e      	mov	r6, r1
  400790:	4614      	mov	r4, r2
	pio_set_pin_low(LCD_SPI_CDS_PIO);
  400792:	2006      	movs	r0, #6
  400794:	4b14      	ldr	r3, [pc, #80]	; (4007e8 <ili9488_write_register+0x60>)
  400796:	4798      	blx	r3
	spi_write(BOARD_ILI9488_SPI, uc_reg, BOARD_ILI9488_SPI_NPCS, 0);
  400798:	2300      	movs	r3, #0
  40079a:	2203      	movs	r2, #3
  40079c:	4629      	mov	r1, r5
  40079e:	4813      	ldr	r0, [pc, #76]	; (4007ec <ili9488_write_register+0x64>)
  4007a0:	4d13      	ldr	r5, [pc, #76]	; (4007f0 <ili9488_write_register+0x68>)
  4007a2:	47a8      	blx	r5
	for(i = 0; i < 0xFF; i++);
  4007a4:	2300      	movs	r3, #0
  4007a6:	9301      	str	r3, [sp, #4]
  4007a8:	9b01      	ldr	r3, [sp, #4]
  4007aa:	2bfe      	cmp	r3, #254	; 0xfe
  4007ac:	d805      	bhi.n	4007ba <ili9488_write_register+0x32>
  4007ae:	9b01      	ldr	r3, [sp, #4]
  4007b0:	3301      	adds	r3, #1
  4007b2:	9301      	str	r3, [sp, #4]
  4007b4:	9b01      	ldr	r3, [sp, #4]
  4007b6:	2bfe      	cmp	r3, #254	; 0xfe
  4007b8:	d9f9      	bls.n	4007ae <ili9488_write_register+0x26>
	if(size > 0) {
  4007ba:	b90c      	cbnz	r4, 4007c0 <ili9488_write_register+0x38>
}
  4007bc:	b002      	add	sp, #8
  4007be:	bd70      	pop	{r4, r5, r6, pc}
		pio_set_pin_high(LCD_SPI_CDS_PIO);
  4007c0:	2006      	movs	r0, #6
  4007c2:	4b0c      	ldr	r3, [pc, #48]	; (4007f4 <ili9488_write_register+0x6c>)
  4007c4:	4798      	blx	r3
		spi_write_packet(BOARD_ILI9488_SPI, us_data, size);
  4007c6:	4622      	mov	r2, r4
  4007c8:	4631      	mov	r1, r6
  4007ca:	4808      	ldr	r0, [pc, #32]	; (4007ec <ili9488_write_register+0x64>)
  4007cc:	4b0a      	ldr	r3, [pc, #40]	; (4007f8 <ili9488_write_register+0x70>)
  4007ce:	4798      	blx	r3
		for(i = 0; i < 0x5F; i++);
  4007d0:	2300      	movs	r3, #0
  4007d2:	9301      	str	r3, [sp, #4]
  4007d4:	9b01      	ldr	r3, [sp, #4]
  4007d6:	2b5e      	cmp	r3, #94	; 0x5e
  4007d8:	d8f0      	bhi.n	4007bc <ili9488_write_register+0x34>
  4007da:	9b01      	ldr	r3, [sp, #4]
  4007dc:	3301      	adds	r3, #1
  4007de:	9301      	str	r3, [sp, #4]
  4007e0:	9b01      	ldr	r3, [sp, #4]
  4007e2:	2b5e      	cmp	r3, #94	; 0x5e
  4007e4:	d9f9      	bls.n	4007da <ili9488_write_register+0x52>
  4007e6:	e7e9      	b.n	4007bc <ili9488_write_register+0x34>
  4007e8:	00400fe1 	.word	0x00400fe1
  4007ec:	40008000 	.word	0x40008000
  4007f0:	004013a9 	.word	0x004013a9
  4007f4:	00400fc5 	.word	0x00400fc5
  4007f8:	00400321 	.word	0x00400321

004007fc <ili9488_write_ram_buffer>:
{
  4007fc:	b530      	push	{r4, r5, lr}
  4007fe:	b083      	sub	sp, #12
  400800:	4604      	mov	r4, r0
  400802:	460d      	mov	r5, r1
	pio_set_pin_high(LCD_SPI_CDS_PIO);
  400804:	2006      	movs	r0, #6
  400806:	4b0a      	ldr	r3, [pc, #40]	; (400830 <ili9488_write_ram_buffer+0x34>)
  400808:	4798      	blx	r3
	spi_write_packet(BOARD_ILI9488_SPI, p_ul_buf, ul_size);
  40080a:	462a      	mov	r2, r5
  40080c:	4621      	mov	r1, r4
  40080e:	4809      	ldr	r0, [pc, #36]	; (400834 <ili9488_write_ram_buffer+0x38>)
  400810:	4b09      	ldr	r3, [pc, #36]	; (400838 <ili9488_write_ram_buffer+0x3c>)
  400812:	4798      	blx	r3
	for(i = 0; i < 0xFF; i++);
  400814:	2300      	movs	r3, #0
  400816:	9301      	str	r3, [sp, #4]
  400818:	9b01      	ldr	r3, [sp, #4]
  40081a:	2bfe      	cmp	r3, #254	; 0xfe
  40081c:	d805      	bhi.n	40082a <ili9488_write_ram_buffer+0x2e>
  40081e:	9b01      	ldr	r3, [sp, #4]
  400820:	3301      	adds	r3, #1
  400822:	9301      	str	r3, [sp, #4]
  400824:	9b01      	ldr	r3, [sp, #4]
  400826:	2bfe      	cmp	r3, #254	; 0xfe
  400828:	d9f9      	bls.n	40081e <ili9488_write_ram_buffer+0x22>
}
  40082a:	b003      	add	sp, #12
  40082c:	bd30      	pop	{r4, r5, pc}
  40082e:	bf00      	nop
  400830:	00400fc5 	.word	0x00400fc5
  400834:	40008000 	.word	0x40008000
  400838:	00400321 	.word	0x00400321

0040083c <ili9488_delay>:
	for(i = 0; i < ul_ms; i++) {
  40083c:	4601      	mov	r1, r0
  40083e:	b130      	cbz	r0, 40084e <ili9488_delay+0x12>
  400840:	4a03      	ldr	r2, [pc, #12]	; (400850 <ili9488_delay+0x14>)
{
  400842:	4b04      	ldr	r3, [pc, #16]	; (400854 <ili9488_delay+0x18>)
		for(i = 0; i < 100000; i++) {
  400844:	3b01      	subs	r3, #1
  400846:	d1fd      	bne.n	400844 <ili9488_delay+0x8>
	for(i = 0; i < ul_ms; i++) {
  400848:	4291      	cmp	r1, r2
  40084a:	d8fa      	bhi.n	400842 <ili9488_delay+0x6>
  40084c:	4770      	bx	lr
  40084e:	4770      	bx	lr
  400850:	000186a1 	.word	0x000186a1
  400854:	000186a0 	.word	0x000186a0

00400858 <ili9488_set_display_direction>:
 * \brief ILI9488 configure landscape.
 *
 * \Param LandscaprMode Landscape Mode.
 */
void ili9488_set_display_direction(enum ili9488_display_direction direction )
{
  400858:	b500      	push	{lr}
  40085a:	b083      	sub	sp, #12
	ili9488_color_t value;
	if(direction) {
  40085c:	b958      	cbnz	r0, 400876 <ili9488_set_display_direction+0x1e>
		value = 0xE8;
	} else {
		value = 0x48;
  40085e:	2348      	movs	r3, #72	; 0x48
  400860:	f88d 3007 	strb.w	r3, [sp, #7]
	}
	ili9488_write_register(ILI9488_CMD_MEMORY_ACCESS_CONTROL, &value, 1);
  400864:	2201      	movs	r2, #1
  400866:	f10d 0107 	add.w	r1, sp, #7
  40086a:	2036      	movs	r0, #54	; 0x36
  40086c:	4b04      	ldr	r3, [pc, #16]	; (400880 <ili9488_set_display_direction+0x28>)
  40086e:	4798      	blx	r3
}
  400870:	b003      	add	sp, #12
  400872:	f85d fb04 	ldr.w	pc, [sp], #4
		value = 0xE8;
  400876:	23e8      	movs	r3, #232	; 0xe8
  400878:	f88d 3007 	strb.w	r3, [sp, #7]
  40087c:	e7f2      	b.n	400864 <ili9488_set_display_direction+0xc>
  40087e:	bf00      	nop
  400880:	00400789 	.word	0x00400789

00400884 <ili9488_set_window>:
 * \Param y start position.
 * \Param width  Width of window.
 * \Param height Height of window.
 */
void ili9488_set_window(uint16_t x, uint16_t y, uint16_t width, uint16_t height )
{
  400884:	b510      	push	{r4, lr}
  400886:	b084      	sub	sp, #16
	uint32_t cnt = 0;
	ili9488_color_t buf[4];

	cnt = sizeof(buf)/sizeof(ili9488_color_t);

	col_start  =  x ;
  400888:	f8ad 000e 	strh.w	r0, [sp, #14]
	col_end    =  width + x - 1;
  40088c:	3a01      	subs	r2, #1
  40088e:	4402      	add	r2, r0
  400890:	f8ad 200c 	strh.w	r2, [sp, #12]

	row_start = y ;
  400894:	f8ad 100a 	strh.w	r1, [sp, #10]
	row_end   = height + y - 1;
  400898:	3b01      	subs	r3, #1
  40089a:	4419      	add	r1, r3
  40089c:	f8ad 1008 	strh.w	r1, [sp, #8]

	buf[0] = get_8b_to_16b(col_start);
  4008a0:	0a03      	lsrs	r3, r0, #8
  4008a2:	f88d 3004 	strb.w	r3, [sp, #4]
	buf[1] = get_0b_to_8b(col_start);
  4008a6:	f88d 0005 	strb.w	r0, [sp, #5]
	buf[2] = get_8b_to_16b(col_end);
  4008aa:	f3c2 2307 	ubfx	r3, r2, #8, #8
  4008ae:	f88d 3006 	strb.w	r3, [sp, #6]
	buf[3] = get_0b_to_8b(col_end);
  4008b2:	f88d 2007 	strb.w	r2, [sp, #7]
	ili9488_write_register(ILI9488_CMD_COLUMN_ADDRESS_SET, buf, cnt);
  4008b6:	2204      	movs	r2, #4
  4008b8:	eb0d 0102 	add.w	r1, sp, r2
  4008bc:	202a      	movs	r0, #42	; 0x2a
  4008be:	4c10      	ldr	r4, [pc, #64]	; (400900 <ili9488_set_window+0x7c>)
  4008c0:	47a0      	blx	r4
	ili9488_write_register(ILI9488_CMD_NOP, 0, 0);
  4008c2:	2200      	movs	r2, #0
  4008c4:	4611      	mov	r1, r2
  4008c6:	4610      	mov	r0, r2
  4008c8:	47a0      	blx	r4

	/* Set Horizontal Address End Position */
	buf[0] = get_8b_to_16b(row_start);
  4008ca:	f89d 300b 	ldrb.w	r3, [sp, #11]
  4008ce:	f88d 3004 	strb.w	r3, [sp, #4]
	buf[1] = get_0b_to_8b(row_start);
  4008d2:	f89d 300a 	ldrb.w	r3, [sp, #10]
  4008d6:	f88d 3005 	strb.w	r3, [sp, #5]
	buf[2] = get_8b_to_16b(row_end);
  4008da:	f89d 3009 	ldrb.w	r3, [sp, #9]
  4008de:	f88d 3006 	strb.w	r3, [sp, #6]
	buf[3] = get_0b_to_8b(row_end);
  4008e2:	f89d 3008 	ldrb.w	r3, [sp, #8]
  4008e6:	f88d 3007 	strb.w	r3, [sp, #7]
	ili9488_write_register(ILI9488_CMD_PAGE_ADDRESS_SET, buf, cnt);
  4008ea:	2204      	movs	r2, #4
  4008ec:	eb0d 0102 	add.w	r1, sp, r2
  4008f0:	202b      	movs	r0, #43	; 0x2b
  4008f2:	47a0      	blx	r4
	ili9488_write_register(ILI9488_CMD_NOP, 0, 0);
  4008f4:	2200      	movs	r2, #0
  4008f6:	4611      	mov	r1, r2
  4008f8:	4610      	mov	r0, r2
  4008fa:	47a0      	blx	r4
}
  4008fc:	b004      	add	sp, #16
  4008fe:	bd10      	pop	{r4, pc}
  400900:	00400789 	.word	0x00400789

00400904 <ili9488_display_on>:

/**
 * \brief Turn on the LCD.
 */
void ili9488_display_on(void)
{
  400904:	b508      	push	{r3, lr}
	ili9488_write_register(ILI9488_CMD_DISPLAY_ON, 0, 0);
  400906:	2200      	movs	r2, #0
  400908:	4611      	mov	r1, r2
  40090a:	2029      	movs	r0, #41	; 0x29
  40090c:	4b01      	ldr	r3, [pc, #4]	; (400914 <ili9488_display_on+0x10>)
  40090e:	4798      	blx	r3
  400910:	bd08      	pop	{r3, pc}
  400912:	bf00      	nop
  400914:	00400789 	.word	0x00400789

00400918 <ili9488_set_foreground_color>:
 * \brief Set foreground color.
 *
 * \param ul_color foreground color.
 */
void ili9488_set_foreground_color(uint32_t ul_color)
{
  400918:	b410      	push	{r4}
		g_ul_pixel_cache[i] = ul_color;
	}
#endif
#ifdef ILI9488_SPIMODE
	for (i = 0; i < LCD_DATA_CACHE_SIZE * LCD_DATA_COLOR_UNIT; ) {
		g_ul_pixel_cache[i++] = ul_color>>16;
  40091a:	f3c0 4407 	ubfx	r4, r0, #16, #8
		g_ul_pixel_cache[i++] = ul_color>>8;
  40091e:	f3c0 2107 	ubfx	r1, r0, #8, #8
  400922:	4b06      	ldr	r3, [pc, #24]	; (40093c <ili9488_set_foreground_color+0x24>)
  400924:	f503 7270 	add.w	r2, r3, #960	; 0x3c0
		g_ul_pixel_cache[i++] = ul_color>>16;
  400928:	701c      	strb	r4, [r3, #0]
		g_ul_pixel_cache[i++] = ul_color>>8;
  40092a:	7059      	strb	r1, [r3, #1]
		g_ul_pixel_cache[i++] = ul_color&0xFF;
  40092c:	7098      	strb	r0, [r3, #2]
  40092e:	3303      	adds	r3, #3
	for (i = 0; i < LCD_DATA_CACHE_SIZE * LCD_DATA_COLOR_UNIT; ) {
  400930:	4293      	cmp	r3, r2
  400932:	d1f9      	bne.n	400928 <ili9488_set_foreground_color+0x10>
	}
#endif
}
  400934:	f85d 4b04 	ldr.w	r4, [sp], #4
  400938:	4770      	bx	lr
  40093a:	bf00      	nop
  40093c:	204009d0 	.word	0x204009d0

00400940 <ili9488_set_cursor_position>:
 *
 * \param x X coordinate of upper-left corner on LCD.
 * \param y Y coordinate of upper-left corner on LCD.
 */
void ili9488_set_cursor_position(uint16_t x, uint16_t y)
{
  400940:	b510      	push	{r4, lr}
  400942:	b084      	sub	sp, #16
  400944:	f8ad 0006 	strh.w	r0, [sp, #6]
  400948:	f8ad 1004 	strh.w	r1, [sp, #4]
	uint32_t cnt = 0;

	ili9488_color_t buf[4];
	cnt = sizeof(buf)/sizeof(ili9488_color_t);

	buf[0] = get_8b_to_16b(x);
  40094c:	0a03      	lsrs	r3, r0, #8
  40094e:	f88d 300c 	strb.w	r3, [sp, #12]
	buf[1] = get_0b_to_8b(x);
  400952:	b2c0      	uxtb	r0, r0
  400954:	f88d 000d 	strb.w	r0, [sp, #13]
	buf[2] = get_8b_to_16b(x);
  400958:	f88d 300e 	strb.w	r3, [sp, #14]
	buf[3] = get_0b_to_8b(x);
  40095c:	f88d 000f 	strb.w	r0, [sp, #15]
	ili9488_write_register(ILI9488_CMD_COLUMN_ADDRESS_SET, buf, cnt);
  400960:	2204      	movs	r2, #4
  400962:	a903      	add	r1, sp, #12
  400964:	202a      	movs	r0, #42	; 0x2a
  400966:	4c0e      	ldr	r4, [pc, #56]	; (4009a0 <ili9488_set_cursor_position+0x60>)
  400968:	47a0      	blx	r4
	ili9488_write_register(ILI9488_CMD_NOP, 0, 0);
  40096a:	2200      	movs	r2, #0
  40096c:	4611      	mov	r1, r2
  40096e:	4610      	mov	r0, r2
  400970:	47a0      	blx	r4


	/* Set Horizontal Address End Position */
	buf[0] = get_8b_to_16b(y);
  400972:	f89d 2005 	ldrb.w	r2, [sp, #5]
  400976:	f88d 200c 	strb.w	r2, [sp, #12]
	buf[1] = get_0b_to_8b(y);
  40097a:	f89d 3004 	ldrb.w	r3, [sp, #4]
  40097e:	f88d 300d 	strb.w	r3, [sp, #13]
	buf[2] = get_8b_to_16b(y);
  400982:	f88d 200e 	strb.w	r2, [sp, #14]
	buf[3] = get_0b_to_8b(y);
  400986:	f88d 300f 	strb.w	r3, [sp, #15]
	ili9488_write_register(ILI9488_CMD_PAGE_ADDRESS_SET, buf, cnt);
  40098a:	2204      	movs	r2, #4
  40098c:	a903      	add	r1, sp, #12
  40098e:	202b      	movs	r0, #43	; 0x2b
  400990:	47a0      	blx	r4
	ili9488_write_register(ILI9488_CMD_NOP, 0, 0);
  400992:	2200      	movs	r2, #0
  400994:	4611      	mov	r1, r2
  400996:	4610      	mov	r0, r2
  400998:	47a0      	blx	r4
}
  40099a:	b004      	add	sp, #16
  40099c:	bd10      	pop	{r4, pc}
  40099e:	bf00      	nop
  4009a0:	00400789 	.word	0x00400789

004009a4 <ili9488_init>:
{
  4009a4:	e92d 43f0 	stmdb	sp!, {r4, r5, r6, r7, r8, r9, lr}
  4009a8:	b087      	sub	sp, #28
  4009aa:	4681      	mov	r9, r0
	struct spi_device ILI9488_SPI_DEVICE = {
  4009ac:	2703      	movs	r7, #3
  4009ae:	ae06      	add	r6, sp, #24
  4009b0:	f846 7d08 	str.w	r7, [r6, #-8]!
	spi_master_init(BOARD_ILI9488_SPI);
  4009b4:	4d5d      	ldr	r5, [pc, #372]	; (400b2c <ili9488_init+0x188>)
  4009b6:	4628      	mov	r0, r5
  4009b8:	4b5d      	ldr	r3, [pc, #372]	; (400b30 <ili9488_init+0x18c>)
  4009ba:	4798      	blx	r3
	spi_master_setup_device(BOARD_ILI9488_SPI, &ILI9488_SPI_DEVICE, SPI_MODE_3, ILI9488_SPI_BAUDRATE, 0);
  4009bc:	2400      	movs	r4, #0
  4009be:	9400      	str	r4, [sp, #0]
  4009c0:	4b5c      	ldr	r3, [pc, #368]	; (400b34 <ili9488_init+0x190>)
  4009c2:	463a      	mov	r2, r7
  4009c4:	4631      	mov	r1, r6
  4009c6:	4628      	mov	r0, r5
  4009c8:	f8df 8198 	ldr.w	r8, [pc, #408]	; 400b64 <ili9488_init+0x1c0>
  4009cc:	47c0      	blx	r8
	spi_configure_cs_behavior(BOARD_ILI9488_SPI, BOARD_ILI9488_SPI_NPCS, SPI_CS_RISE_NO_TX);
  4009ce:	4622      	mov	r2, r4
  4009d0:	4639      	mov	r1, r7
  4009d2:	4628      	mov	r0, r5
  4009d4:	4b58      	ldr	r3, [pc, #352]	; (400b38 <ili9488_init+0x194>)
  4009d6:	4798      	blx	r3
	spi_select_device(BOARD_ILI9488_SPI, &ILI9488_SPI_DEVICE);
  4009d8:	4631      	mov	r1, r6
  4009da:	4628      	mov	r0, r5
  4009dc:	4b57      	ldr	r3, [pc, #348]	; (400b3c <ili9488_init+0x198>)
  4009de:	4798      	blx	r3
	p_spi->SPI_CR = SPI_CR_SPIEN;
  4009e0:	2001      	movs	r0, #1
  4009e2:	6028      	str	r0, [r5, #0]
 * \param p_spi Pointer to an SPI instance.
 * \param ul_sources Interrupts to be enabled.
 */
static inline void spi_enable_interrupt(Spi *p_spi, uint32_t ul_sources)
{
	p_spi->SPI_IER = ul_sources;
  4009e4:	6168      	str	r0, [r5, #20]
	ili9488_write_register(ILI9488_CMD_SOFTWARE_RESET, 0x0000, 0);
  4009e6:	4622      	mov	r2, r4
  4009e8:	4621      	mov	r1, r4
  4009ea:	4e55      	ldr	r6, [pc, #340]	; (400b40 <ili9488_init+0x19c>)
  4009ec:	47b0      	blx	r6
	ili9488_delay(200);
  4009ee:	20c8      	movs	r0, #200	; 0xc8
  4009f0:	4d54      	ldr	r5, [pc, #336]	; (400b44 <ili9488_init+0x1a0>)
  4009f2:	47a8      	blx	r5
	ili9488_write_register(ILI9488_CMD_SLEEP_OUT, 0x0000, 0);
  4009f4:	4622      	mov	r2, r4
  4009f6:	4621      	mov	r1, r4
  4009f8:	2011      	movs	r0, #17
  4009fa:	47b0      	blx	r6
	ili9488_delay(200);
  4009fc:	20c8      	movs	r0, #200	; 0xc8
  4009fe:	47a8      	blx	r5
	reg = 0x81;
  400a00:	2381      	movs	r3, #129	; 0x81
  400a02:	f88d 300a 	strb.w	r3, [sp, #10]
	param = 0x0;
  400a06:	f88d 400b 	strb.w	r4, [sp, #11]
  400a0a:	2610      	movs	r6, #16
		ili9488_write_register(ILI9488_CMD_SPI_READ_SETTINGS, &reg, 1);
  400a0c:	f04f 0801 	mov.w	r8, #1
  400a10:	4f4b      	ldr	r7, [pc, #300]	; (400b40 <ili9488_init+0x19c>)
		for(j = 0; j < 0xFF; j++);
  400a12:	4625      	mov	r5, r4
		ili9488_write_register(ILI9488_CMD_SPI_READ_SETTINGS, &reg, 1);
  400a14:	4642      	mov	r2, r8
  400a16:	f10d 010a 	add.w	r1, sp, #10
  400a1a:	20fb      	movs	r0, #251	; 0xfb
  400a1c:	47b8      	blx	r7
		reg++;
  400a1e:	f89d 300a 	ldrb.w	r3, [sp, #10]
  400a22:	3301      	adds	r3, #1
  400a24:	f88d 300a 	strb.w	r3, [sp, #10]
		for(j = 0; j < 0xFF; j++);
  400a28:	9503      	str	r5, [sp, #12]
  400a2a:	9b03      	ldr	r3, [sp, #12]
  400a2c:	2bfe      	cmp	r3, #254	; 0xfe
  400a2e:	d805      	bhi.n	400a3c <ili9488_init+0x98>
  400a30:	9b03      	ldr	r3, [sp, #12]
  400a32:	3301      	adds	r3, #1
  400a34:	9303      	str	r3, [sp, #12]
  400a36:	9b03      	ldr	r3, [sp, #12]
  400a38:	2bfe      	cmp	r3, #254	; 0xfe
  400a3a:	d9f9      	bls.n	400a30 <ili9488_init+0x8c>
		ili9488_write_register(ILI9488_CMD_READ_ID4, 0, 0);
  400a3c:	462a      	mov	r2, r5
  400a3e:	4629      	mov	r1, r5
  400a40:	20d3      	movs	r0, #211	; 0xd3
  400a42:	47b8      	blx	r7
			pio_set_pin_high(LCD_SPI_CDS_PIO);
  400a44:	2006      	movs	r0, #6
  400a46:	4b40      	ldr	r3, [pc, #256]	; (400b48 <ili9488_init+0x1a4>)
  400a48:	4798      	blx	r3
			spi_read_packet(BOARD_ILI9488_SPI, &chipidBuf, 1);
  400a4a:	4642      	mov	r2, r8
  400a4c:	f10d 0109 	add.w	r1, sp, #9
  400a50:	4836      	ldr	r0, [pc, #216]	; (400b2c <ili9488_init+0x188>)
  400a52:	4b3e      	ldr	r3, [pc, #248]	; (400b4c <ili9488_init+0x1a8>)
  400a54:	4798      	blx	r3
			for(j = 0; j < 0xFF; j++);
  400a56:	9503      	str	r5, [sp, #12]
  400a58:	9b03      	ldr	r3, [sp, #12]
  400a5a:	2bfe      	cmp	r3, #254	; 0xfe
  400a5c:	d805      	bhi.n	400a6a <ili9488_init+0xc6>
  400a5e:	9b03      	ldr	r3, [sp, #12]
  400a60:	3301      	adds	r3, #1
  400a62:	9303      	str	r3, [sp, #12]
  400a64:	9b03      	ldr	r3, [sp, #12]
  400a66:	2bfe      	cmp	r3, #254	; 0xfe
  400a68:	d9f9      	bls.n	400a5e <ili9488_init+0xba>
		chipid |= (chipidBuf & 0xFF) << ((i - 1) << 3);
  400a6a:	f89d 3009 	ldrb.w	r3, [sp, #9]
  400a6e:	40b3      	lsls	r3, r6
  400a70:	431c      	orrs	r4, r3
		ili9488_write_register(ILI9488_CMD_SPI_READ_SETTINGS, &param, 1);
  400a72:	4642      	mov	r2, r8
  400a74:	f10d 010b 	add.w	r1, sp, #11
  400a78:	20fb      	movs	r0, #251	; 0xfb
  400a7a:	47b8      	blx	r7
		for(j = 0; j < 0xFFF; j++);
  400a7c:	9503      	str	r5, [sp, #12]
  400a7e:	9a03      	ldr	r2, [sp, #12]
  400a80:	f640 73fe 	movw	r3, #4094	; 0xffe
  400a84:	429a      	cmp	r2, r3
  400a86:	d806      	bhi.n	400a96 <ili9488_init+0xf2>
  400a88:	461a      	mov	r2, r3
  400a8a:	9b03      	ldr	r3, [sp, #12]
  400a8c:	3301      	adds	r3, #1
  400a8e:	9303      	str	r3, [sp, #12]
  400a90:	9b03      	ldr	r3, [sp, #12]
  400a92:	4293      	cmp	r3, r2
  400a94:	d9f9      	bls.n	400a8a <ili9488_init+0xe6>
  400a96:	3e08      	subs	r6, #8
	for (i = 3; i > 0; i--) {
  400a98:	f116 0f08 	cmn.w	r6, #8
  400a9c:	d1ba      	bne.n	400a14 <ili9488_init+0x70>
	if (chipid != ILI9488_DEVICE_CODE) {
  400a9e:	f249 4388 	movw	r3, #38024	; 0x9488
  400aa2:	429c      	cmp	r4, r3
  400aa4:	d003      	beq.n	400aae <ili9488_init+0x10a>
		return 1;
  400aa6:	2001      	movs	r0, #1
}
  400aa8:	b007      	add	sp, #28
  400aaa:	e8bd 83f0 	ldmia.w	sp!, {r4, r5, r6, r7, r8, r9, pc}
	param = 0x48;
  400aae:	ad06      	add	r5, sp, #24
  400ab0:	2348      	movs	r3, #72	; 0x48
  400ab2:	f805 3d01 	strb.w	r3, [r5, #-1]!
	ili9488_write_register(ILI9488_CMD_MEMORY_ACCESS_CONTROL, &param, 1);
  400ab6:	2201      	movs	r2, #1
  400ab8:	4629      	mov	r1, r5
  400aba:	2036      	movs	r0, #54	; 0x36
  400abc:	4e20      	ldr	r6, [pc, #128]	; (400b40 <ili9488_init+0x19c>)
  400abe:	47b0      	blx	r6
	ili9488_delay(100);
  400ac0:	2064      	movs	r0, #100	; 0x64
  400ac2:	4c20      	ldr	r4, [pc, #128]	; (400b44 <ili9488_init+0x1a0>)
  400ac4:	47a0      	blx	r4
	param = 0x04;
  400ac6:	2304      	movs	r3, #4
  400ac8:	f88d 3017 	strb.w	r3, [sp, #23]
	ili9488_write_register(ILI9488_CMD_CABC_CONTROL_9, &param, 1);
  400acc:	2201      	movs	r2, #1
  400ace:	4629      	mov	r1, r5
  400ad0:	20cf      	movs	r0, #207	; 0xcf
  400ad2:	47b0      	blx	r6
	ili9488_delay(100);
  400ad4:	2064      	movs	r0, #100	; 0x64
  400ad6:	47a0      	blx	r4
	param = 0x06;
  400ad8:	2306      	movs	r3, #6
  400ada:	f88d 3017 	strb.w	r3, [sp, #23]
	ili9488_write_register(ILI9488_CMD_COLMOD_PIXEL_FORMAT_SET, &param, 1);
  400ade:	2201      	movs	r2, #1
  400ae0:	4629      	mov	r1, r5
  400ae2:	203a      	movs	r0, #58	; 0x3a
  400ae4:	47b0      	blx	r6
	ili9488_delay(100);
  400ae6:	2064      	movs	r0, #100	; 0x64
  400ae8:	47a0      	blx	r4
	ili9488_write_register(ILI9488_CMD_NORMAL_DISP_MODE_ON, 0, 0);
  400aea:	2200      	movs	r2, #0
  400aec:	4611      	mov	r1, r2
  400aee:	2013      	movs	r0, #19
  400af0:	47b0      	blx	r6
	ili9488_delay(100);
  400af2:	2064      	movs	r0, #100	; 0x64
  400af4:	47a0      	blx	r4
	ili9488_display_on();
  400af6:	4b16      	ldr	r3, [pc, #88]	; (400b50 <ili9488_init+0x1ac>)
  400af8:	4798      	blx	r3
	ili9488_delay(100);
  400afa:	2064      	movs	r0, #100	; 0x64
  400afc:	47a0      	blx	r4
	ili9488_set_display_direction(LANDSCAPE);
  400afe:	2000      	movs	r0, #0
  400b00:	4b14      	ldr	r3, [pc, #80]	; (400b54 <ili9488_init+0x1b0>)
  400b02:	4798      	blx	r3
	ili9488_delay(100);
  400b04:	2064      	movs	r0, #100	; 0x64
  400b06:	47a0      	blx	r4
	ili9488_set_window(0, 0,p_opt->ul_width,p_opt->ul_height);
  400b08:	f8b9 3004 	ldrh.w	r3, [r9, #4]
  400b0c:	f8b9 2000 	ldrh.w	r2, [r9]
  400b10:	2100      	movs	r1, #0
  400b12:	4608      	mov	r0, r1
  400b14:	4c10      	ldr	r4, [pc, #64]	; (400b58 <ili9488_init+0x1b4>)
  400b16:	47a0      	blx	r4
	ili9488_set_foreground_color(p_opt->foreground_color);
  400b18:	f8d9 0008 	ldr.w	r0, [r9, #8]
  400b1c:	4b0f      	ldr	r3, [pc, #60]	; (400b5c <ili9488_init+0x1b8>)
  400b1e:	4798      	blx	r3
	ili9488_set_cursor_position(0, 0);
  400b20:	2100      	movs	r1, #0
  400b22:	4608      	mov	r0, r1
  400b24:	4b0e      	ldr	r3, [pc, #56]	; (400b60 <ili9488_init+0x1bc>)
  400b26:	4798      	blx	r3
	return 0;
  400b28:	2000      	movs	r0, #0
  400b2a:	e7bd      	b.n	400aa8 <ili9488_init+0x104>
  400b2c:	40008000 	.word	0x40008000
  400b30:	0040021d 	.word	0x0040021d
  400b34:	01312d00 	.word	0x01312d00
  400b38:	00401419 	.word	0x00401419
  400b3c:	004002f1 	.word	0x004002f1
  400b40:	00400789 	.word	0x00400789
  400b44:	0040083d 	.word	0x0040083d
  400b48:	00400fc5 	.word	0x00400fc5
  400b4c:	00400357 	.word	0x00400357
  400b50:	00400905 	.word	0x00400905
  400b54:	00400859 	.word	0x00400859
  400b58:	00400885 	.word	0x00400885
  400b5c:	00400919 	.word	0x00400919
  400b60:	00400941 	.word	0x00400941
  400b64:	00400271 	.word	0x00400271

00400b68 <ili9488_draw_pixel>:
 *
 * \return 0 if succeeds, otherwise fails.
 */
uint32_t ili9488_draw_pixel(uint32_t ul_x, uint32_t ul_y)
{
	if ((ul_x >= ILI9488_LCD_WIDTH) || (ul_y >= ILI9488_LCD_HEIGHT)) {
  400b68:	f5b0 7fa0 	cmp.w	r0, #320	; 0x140
  400b6c:	d20f      	bcs.n	400b8e <ili9488_draw_pixel+0x26>
  400b6e:	f5b1 7ff0 	cmp.w	r1, #480	; 0x1e0
  400b72:	d20c      	bcs.n	400b8e <ili9488_draw_pixel+0x26>
{
  400b74:	b508      	push	{r3, lr}
		return 1;
	}

	/* Set cursor */
	ili9488_set_cursor_position(ul_x, ul_y);
  400b76:	b289      	uxth	r1, r1
  400b78:	b280      	uxth	r0, r0
  400b7a:	4b06      	ldr	r3, [pc, #24]	; (400b94 <ili9488_draw_pixel+0x2c>)
  400b7c:	4798      	blx	r3

	/* Prepare to write in GRAM */
	ili9488_write_ram_prepare();
  400b7e:	4b06      	ldr	r3, [pc, #24]	; (400b98 <ili9488_draw_pixel+0x30>)
  400b80:	4798      	blx	r3
	ili9488_write_ram_buffer(g_ul_pixel_cache, LCD_DATA_COLOR_UNIT);
  400b82:	2103      	movs	r1, #3
  400b84:	4805      	ldr	r0, [pc, #20]	; (400b9c <ili9488_draw_pixel+0x34>)
  400b86:	4b06      	ldr	r3, [pc, #24]	; (400ba0 <ili9488_draw_pixel+0x38>)
  400b88:	4798      	blx	r3
	return 0;
  400b8a:	2000      	movs	r0, #0
  400b8c:	bd08      	pop	{r3, pc}
		return 1;
  400b8e:	2001      	movs	r0, #1
  400b90:	4770      	bx	lr
  400b92:	bf00      	nop
  400b94:	00400941 	.word	0x00400941
  400b98:	0040074d 	.word	0x0040074d
  400b9c:	204009d0 	.word	0x204009d0
  400ba0:	004007fd 	.word	0x004007fd

00400ba4 <ili9488_draw_filled_rectangle>:
 * \param ul_x2 X coordinate of lower-right corner on LCD.
 * \param ul_y2 Y coordinate of lower-right corner on LCD.
 */
void ili9488_draw_filled_rectangle(uint32_t ul_x1, uint32_t ul_y1,
		uint32_t ul_x2, uint32_t ul_y2)
{
  400ba4:	e92d 41f0 	stmdb	sp!, {r4, r5, r6, r7, r8, lr}
  400ba8:	b084      	sub	sp, #16
  400baa:	9003      	str	r0, [sp, #12]
  400bac:	9102      	str	r1, [sp, #8]
  400bae:	9201      	str	r2, [sp, #4]
  400bb0:	aa04      	add	r2, sp, #16
  400bb2:	f842 3d10 	str.w	r3, [r2, #-16]!
	uint32_t size, blocks;

	/* Swap coordinates if necessary */
	ili9488_check_box_coordinates(&ul_x1, &ul_y1, &ul_x2, &ul_y2);
  400bb6:	4613      	mov	r3, r2
  400bb8:	aa01      	add	r2, sp, #4
  400bba:	a902      	add	r1, sp, #8
  400bbc:	a803      	add	r0, sp, #12
  400bbe:	4c22      	ldr	r4, [pc, #136]	; (400c48 <ili9488_draw_filled_rectangle+0xa4>)
  400bc0:	47a0      	blx	r4

	/* Determine the refresh window area */
	ili9488_set_window(ul_x1, ul_y1, (ul_x2 - ul_x1) + 1, (ul_y2 - ul_y1) + 1);
  400bc2:	f8bd 000c 	ldrh.w	r0, [sp, #12]
  400bc6:	f8bd 1008 	ldrh.w	r1, [sp, #8]
  400bca:	9b00      	ldr	r3, [sp, #0]
  400bcc:	3301      	adds	r3, #1
  400bce:	1a5b      	subs	r3, r3, r1
  400bd0:	9a01      	ldr	r2, [sp, #4]
  400bd2:	3201      	adds	r2, #1
  400bd4:	1a12      	subs	r2, r2, r0
  400bd6:	b29b      	uxth	r3, r3
  400bd8:	b292      	uxth	r2, r2
  400bda:	4c1c      	ldr	r4, [pc, #112]	; (400c4c <ili9488_draw_filled_rectangle+0xa8>)
  400bdc:	47a0      	blx	r4

	/* Prepare to write in GRAM */
	ili9488_write_ram_prepare();
  400bde:	4b1c      	ldr	r3, [pc, #112]	; (400c50 <ili9488_draw_filled_rectangle+0xac>)
  400be0:	4798      	blx	r3

	size = (ul_x2 - ul_x1 + 1) * (ul_y2 - ul_y1 + 1);
  400be2:	9903      	ldr	r1, [sp, #12]
  400be4:	9d01      	ldr	r5, [sp, #4]
  400be6:	1a69      	subs	r1, r5, r1
  400be8:	9d00      	ldr	r5, [sp, #0]
  400bea:	3501      	adds	r5, #1
  400bec:	9b02      	ldr	r3, [sp, #8]
  400bee:	1aed      	subs	r5, r5, r3
  400bf0:	fb01 5505 	mla	r5, r1, r5, r5
	/* Send pixels blocks => one SPI IT / block */
	blocks = size / LCD_DATA_CACHE_SIZE;
  400bf4:	4b17      	ldr	r3, [pc, #92]	; (400c54 <ili9488_draw_filled_rectangle+0xb0>)
  400bf6:	fba3 2305 	umull	r2, r3, r3, r5
  400bfa:	0a1b      	lsrs	r3, r3, #8
	while (blocks--) {
  400bfc:	b163      	cbz	r3, 400c18 <ili9488_draw_filled_rectangle+0x74>
  400bfe:	1e5c      	subs	r4, r3, #1
		ili9488_write_ram_buffer(g_ul_pixel_cache, LCD_DATA_CACHE_SIZE * LCD_DATA_COLOR_UNIT);
  400c00:	f8df 8058 	ldr.w	r8, [pc, #88]	; 400c5c <ili9488_draw_filled_rectangle+0xb8>
  400c04:	f44f 7770 	mov.w	r7, #960	; 0x3c0
  400c08:	4e13      	ldr	r6, [pc, #76]	; (400c58 <ili9488_draw_filled_rectangle+0xb4>)
  400c0a:	4639      	mov	r1, r7
  400c0c:	4640      	mov	r0, r8
  400c0e:	47b0      	blx	r6
	while (blocks--) {
  400c10:	3c01      	subs	r4, #1
  400c12:	f1b4 3fff 	cmp.w	r4, #4294967295
  400c16:	d1f8      	bne.n	400c0a <ili9488_draw_filled_rectangle+0x66>
	}

	/* Send remaining pixels */
	ili9488_write_ram_buffer(g_ul_pixel_cache, (size % LCD_DATA_CACHE_SIZE) * LCD_DATA_COLOR_UNIT);
  400c18:	490e      	ldr	r1, [pc, #56]	; (400c54 <ili9488_draw_filled_rectangle+0xb0>)
  400c1a:	fba1 3105 	umull	r3, r1, r1, r5
  400c1e:	0a09      	lsrs	r1, r1, #8
  400c20:	eb01 0181 	add.w	r1, r1, r1, lsl #2
  400c24:	eba5 1181 	sub.w	r1, r5, r1, lsl #6
  400c28:	eb01 0141 	add.w	r1, r1, r1, lsl #1
  400c2c:	480b      	ldr	r0, [pc, #44]	; (400c5c <ili9488_draw_filled_rectangle+0xb8>)
  400c2e:	4b0a      	ldr	r3, [pc, #40]	; (400c58 <ili9488_draw_filled_rectangle+0xb4>)
  400c30:	4798      	blx	r3

	/* Reset the refresh window area */
	ili9488_set_window(0, 0, ILI9488_LCD_WIDTH, ILI9488_LCD_HEIGHT);
  400c32:	f44f 73f0 	mov.w	r3, #480	; 0x1e0
  400c36:	f44f 72a0 	mov.w	r2, #320	; 0x140
  400c3a:	2100      	movs	r1, #0
  400c3c:	4608      	mov	r0, r1
  400c3e:	4c03      	ldr	r4, [pc, #12]	; (400c4c <ili9488_draw_filled_rectangle+0xa8>)
  400c40:	47a0      	blx	r4

}
  400c42:	b004      	add	sp, #16
  400c44:	e8bd 81f0 	ldmia.w	sp!, {r4, r5, r6, r7, r8, pc}
  400c48:	004006f5 	.word	0x004006f5
  400c4c:	00400885 	.word	0x00400885
  400c50:	0040074d 	.word	0x0040074d
  400c54:	cccccccd 	.word	0xcccccccd
  400c58:	004007fd 	.word	0x004007fd
  400c5c:	204009d0 	.word	0x204009d0

00400c60 <ili9488_draw_string>:
 * \param ul_x X coordinate of string top-left corner.
 * \param ul_y Y coordinate of string top-left corner.
 * \param p_str String to display.
 */
void ili9488_draw_string(uint32_t ul_x, uint32_t ul_y, const uint8_t *p_str)
{
  400c60:	e92d 4ff0 	stmdb	sp!, {r4, r5, r6, r7, r8, r9, sl, fp, lr}
  400c64:	b085      	sub	sp, #20
  400c66:	9003      	str	r0, [sp, #12]
  400c68:	9202      	str	r2, [sp, #8]
	uint32_t xorg = ul_x;

	while (*p_str != 0) {
  400c6a:	7813      	ldrb	r3, [r2, #0]
  400c6c:	2b00      	cmp	r3, #0
  400c6e:	d048      	beq.n	400d02 <ili9488_draw_string+0xa2>
  400c70:	468b      	mov	fp, r1
  400c72:	9001      	str	r0, [sp, #4]
				ili9488_draw_pixel(ul_x + col, ul_y + row);
  400c74:	f8df 8094 	ldr.w	r8, [pc, #148]	; 400d0c <ili9488_draw_string+0xac>
  400c78:	e033      	b.n	400ce2 <ili9488_draw_string+0x82>
		/* If newline, jump to the next line (font height + 2) */
		if (*p_str == '\n') {
			ul_y += gfont.height + 2;
  400c7a:	f10b 0b10 	add.w	fp, fp, #16
			ul_x = xorg;
  400c7e:	9b03      	ldr	r3, [sp, #12]
  400c80:	9301      	str	r3, [sp, #4]
  400c82:	e029      	b.n	400cd8 <ili9488_draw_string+0x78>
  400c84:	3c01      	subs	r4, #1
		for (row = 0; row < 8; row++) {
  400c86:	f1b4 3fff 	cmp.w	r4, #4294967295
  400c8a:	d009      	beq.n	400ca0 <ili9488_draw_string+0x40>
			if ((p_uc_charset10x14[offset0] >> (7 - row)) & 0x1) {
  400c8c:	782b      	ldrb	r3, [r5, #0]
  400c8e:	4123      	asrs	r3, r4
  400c90:	f013 0f01 	tst.w	r3, #1
  400c94:	d0f6      	beq.n	400c84 <ili9488_draw_string+0x24>
				ili9488_draw_pixel(ul_x + col, ul_y + row);
  400c96:	ebaa 0104 	sub.w	r1, sl, r4
  400c9a:	4630      	mov	r0, r6
  400c9c:	47c0      	blx	r8
  400c9e:	e7f1      	b.n	400c84 <ili9488_draw_string+0x24>
		for (row = 0; row < 8; row++) {
  400ca0:	2407      	movs	r4, #7
				ili9488_draw_pixel(ul_x + col, ul_y + row + 8);
  400ca2:	f10b 090f 	add.w	r9, fp, #15
  400ca6:	e002      	b.n	400cae <ili9488_draw_string+0x4e>
  400ca8:	3c01      	subs	r4, #1
		for (row = 0; row < 6; row++) {
  400caa:	2c01      	cmp	r4, #1
  400cac:	d009      	beq.n	400cc2 <ili9488_draw_string+0x62>
			if ((p_uc_charset10x14[offset1] >> (7 - row)) & 0x1) {
  400cae:	787b      	ldrb	r3, [r7, #1]
  400cb0:	4123      	asrs	r3, r4
  400cb2:	f013 0f01 	tst.w	r3, #1
  400cb6:	d0f7      	beq.n	400ca8 <ili9488_draw_string+0x48>
				ili9488_draw_pixel(ul_x + col, ul_y + row + 8);
  400cb8:	eba9 0104 	sub.w	r1, r9, r4
  400cbc:	4630      	mov	r0, r6
  400cbe:	47c0      	blx	r8
  400cc0:	e7f2      	b.n	400ca8 <ili9488_draw_string+0x48>
  400cc2:	3502      	adds	r5, #2
  400cc4:	3601      	adds	r6, #1
	for (col = 0; col < 10; col++) {
  400cc6:	9b00      	ldr	r3, [sp, #0]
  400cc8:	42b3      	cmp	r3, r6
  400cca:	d002      	beq.n	400cd2 <ili9488_draw_string+0x72>
	offset = ((uint32_t)uc_c - 0x20) * 20;
  400ccc:	2407      	movs	r4, #7
  400cce:	462f      	mov	r7, r5
  400cd0:	e7dc      	b.n	400c8c <ili9488_draw_string+0x2c>
		} else {
			/* Draw the character and place cursor right after (font width + 2) */
			ili9488_draw_char(ul_x, ul_y, *p_str);
			ul_x += gfont.width + 2;
  400cd2:	9b01      	ldr	r3, [sp, #4]
  400cd4:	330c      	adds	r3, #12
  400cd6:	9301      	str	r3, [sp, #4]
	while (*p_str != 0) {
  400cd8:	9a02      	ldr	r2, [sp, #8]
  400cda:	f812 3f01 	ldrb.w	r3, [r2, #1]!
  400cde:	9202      	str	r2, [sp, #8]
  400ce0:	b17b      	cbz	r3, 400d02 <ili9488_draw_string+0xa2>
		if (*p_str == '\n') {
  400ce2:	2b0a      	cmp	r3, #10
  400ce4:	d0c9      	beq.n	400c7a <ili9488_draw_string+0x1a>
	offset = ((uint32_t)uc_c - 0x20) * 20;
  400ce6:	eb03 0383 	add.w	r3, r3, r3, lsl #2
  400cea:	4d07      	ldr	r5, [pc, #28]	; (400d08 <ili9488_draw_string+0xa8>)
  400cec:	eb05 0383 	add.w	r3, r5, r3, lsl #2
  400cf0:	f5a3 7520 	sub.w	r5, r3, #640	; 0x280
  400cf4:	9e01      	ldr	r6, [sp, #4]
  400cf6:	4633      	mov	r3, r6
  400cf8:	330a      	adds	r3, #10
  400cfa:	9300      	str	r3, [sp, #0]
				ili9488_draw_pixel(ul_x + col, ul_y + row);
  400cfc:	f10b 0a07 	add.w	sl, fp, #7
  400d00:	e7e4      	b.n	400ccc <ili9488_draw_string+0x6c>
		}
		p_str++;
	}
}
  400d02:	b005      	add	sp, #20
  400d04:	e8bd 8ff0 	ldmia.w	sp!, {r4, r5, r6, r7, r8, r9, sl, fp, pc}
  400d08:	004049e4 	.word	0x004049e4
  400d0c:	00400b69 	.word	0x00400b69

00400d10 <ili9488_draw_pixmap>:
 * \param ul_height height of the picture.
 * \param p_ul_pixmap pixmap of the image.
 */
void ili9488_draw_pixmap(uint32_t ul_x, uint32_t ul_y, uint32_t ul_width,
		uint32_t ul_height, const ili9488_color_t *p_ul_pixmap)
{
  400d10:	b510      	push	{r4, lr}
  400d12:	b084      	sub	sp, #16
	uint32_t size;
	uint32_t dwX1, dwY1, dwX2, dwY2;
	dwX1 = ul_x;
  400d14:	9003      	str	r0, [sp, #12]
	dwY1 = ul_y;
  400d16:	9102      	str	r1, [sp, #8]
	dwX2 = ul_x + ul_width - 1;
  400d18:	3a01      	subs	r2, #1
  400d1a:	4410      	add	r0, r2
  400d1c:	9001      	str	r0, [sp, #4]
	dwY2 = ul_y + ul_height - 1;
  400d1e:	3b01      	subs	r3, #1
  400d20:	4419      	add	r1, r3
  400d22:	ab04      	add	r3, sp, #16
  400d24:	f843 1d10 	str.w	r1, [r3, #-16]!

	/* Swap coordinates if necessary */
	ili9488_check_box_coordinates(&dwX1, &dwY1, &dwX2, &dwY2);
  400d28:	aa01      	add	r2, sp, #4
  400d2a:	a902      	add	r1, sp, #8
  400d2c:	a803      	add	r0, sp, #12
  400d2e:	4c13      	ldr	r4, [pc, #76]	; (400d7c <ili9488_draw_pixmap+0x6c>)
  400d30:	47a0      	blx	r4

	/* Determine the refresh window area */
	ili9488_set_window(dwX1, dwY1, (dwX2 - dwX1 + 1), (dwY2 - dwY1 + 1));
  400d32:	f8bd 000c 	ldrh.w	r0, [sp, #12]
  400d36:	f8bd 1008 	ldrh.w	r1, [sp, #8]
  400d3a:	9b00      	ldr	r3, [sp, #0]
  400d3c:	3301      	adds	r3, #1
  400d3e:	1a5b      	subs	r3, r3, r1
  400d40:	9a01      	ldr	r2, [sp, #4]
  400d42:	3201      	adds	r2, #1
  400d44:	1a12      	subs	r2, r2, r0
  400d46:	b29b      	uxth	r3, r3
  400d48:	b292      	uxth	r2, r2
  400d4a:	4c0d      	ldr	r4, [pc, #52]	; (400d80 <ili9488_draw_pixmap+0x70>)
  400d4c:	47a0      	blx	r4

	size = (dwX2 - dwX1) * (dwY2 - dwY1);
  400d4e:	9903      	ldr	r1, [sp, #12]
  400d50:	9a01      	ldr	r2, [sp, #4]
  400d52:	1a51      	subs	r1, r2, r1
  400d54:	9a02      	ldr	r2, [sp, #8]
  400d56:	9b00      	ldr	r3, [sp, #0]
  400d58:	1a9a      	subs	r2, r3, r2
  400d5a:	fb02 f201 	mul.w	r2, r2, r1

	ili9488_write_register(ILI9488_CMD_MEMORY_WRITE, p_ul_pixmap, size * LCD_DATA_COLOR_UNIT);
  400d5e:	eb02 0242 	add.w	r2, r2, r2, lsl #1
  400d62:	9906      	ldr	r1, [sp, #24]
  400d64:	202c      	movs	r0, #44	; 0x2c
  400d66:	4b07      	ldr	r3, [pc, #28]	; (400d84 <ili9488_draw_pixmap+0x74>)
  400d68:	4798      	blx	r3

	/* Reset the refresh window area */
	ili9488_set_window(0, 0, ILI9488_LCD_WIDTH, ILI9488_LCD_HEIGHT);
  400d6a:	f44f 73f0 	mov.w	r3, #480	; 0x1e0
  400d6e:	f44f 72a0 	mov.w	r2, #320	; 0x140
  400d72:	2100      	movs	r1, #0
  400d74:	4608      	mov	r0, r1
  400d76:	47a0      	blx	r4
}
  400d78:	b004      	add	sp, #16
  400d7a:	bd10      	pop	{r4, pc}
  400d7c:	004006f5 	.word	0x004006f5
  400d80:	00400885 	.word	0x00400885
  400d84:	00400789 	.word	0x00400789

00400d88 <afec_process_callback>:
 * \brief Call the callback function if the corresponding interrupt is asserted
 *
 * \param afec  Base address of the AFEC.
 */
static void afec_process_callback(Afec *const afec)
{
  400d88:	b570      	push	{r4, r5, r6, lr}
  400d8a:	b082      	sub	sp, #8
 *
 * \return The interrupt status value.
 */
static inline uint32_t afec_get_interrupt_status(Afec *const afec)
{
	return afec->AFEC_ISR;
  400d8c:	6b02      	ldr	r2, [r0, #48]	; 0x30
 *
 * \return The interrupt mask value.
 */
static inline uint32_t afec_get_interrupt_mask(Afec *const afec)
{
	return afec->AFEC_IMR;
  400d8e:	6ac3      	ldr	r3, [r0, #44]	; 0x2c
	volatile uint32_t status;
	uint32_t cnt, inst_num;

	status = afec_get_interrupt_status(afec) & afec_get_interrupt_mask(afec);
  400d90:	4013      	ands	r3, r2
  400d92:	9301      	str	r3, [sp, #4]
	inst_num = afec_find_inst_num(afec);

	for (cnt = 0; cnt < _AFEC_NUM_OF_INTERRUPT_SOURCE; cnt++) {
  400d94:	2400      	movs	r4, #0
	if (afec_callback_pointer[inst_num][source]) {
  400d96:	4e1c      	ldr	r6, [pc, #112]	; (400e08 <afec_process_callback+0x80>)
  400d98:	4d1c      	ldr	r5, [pc, #112]	; (400e0c <afec_process_callback+0x84>)
  400d9a:	42a8      	cmp	r0, r5
  400d9c:	bf14      	ite	ne
  400d9e:	2000      	movne	r0, #0
  400da0:	2001      	moveq	r0, #1
  400da2:	0105      	lsls	r5, r0, #4
  400da4:	e00b      	b.n	400dbe <afec_process_callback+0x36>
		#elif defined __SAM4E8E__  || defined __SAM4E16E__ || SAMV71 || SAMV70 || SAMS70 || SAME70
			if (status & (1 << cnt)) {
				afec_interrupt(inst_num, (enum afec_interrupt_source)cnt);
			}
		#endif
		} else if (cnt < AFEC_INTERRUPT_TEMP_CHANGE) {
  400da6:	2c0e      	cmp	r4, #14
  400da8:	d81e      	bhi.n	400de8 <afec_process_callback+0x60>
			if (status & (1 << (cnt + AFEC_INTERRUPT_GAP1))) {
  400daa:	9a01      	ldr	r2, [sp, #4]
  400dac:	f104 010c 	add.w	r1, r4, #12
  400db0:	2301      	movs	r3, #1
  400db2:	408b      	lsls	r3, r1
  400db4:	4213      	tst	r3, r2
  400db6:	d110      	bne.n	400dda <afec_process_callback+0x52>
	for (cnt = 0; cnt < _AFEC_NUM_OF_INTERRUPT_SOURCE; cnt++) {
  400db8:	3401      	adds	r4, #1
  400dba:	2c10      	cmp	r4, #16
  400dbc:	d022      	beq.n	400e04 <afec_process_callback+0x7c>
		if (cnt < AFEC_INTERRUPT_DATA_READY) {
  400dbe:	2c0b      	cmp	r4, #11
  400dc0:	d8f1      	bhi.n	400da6 <afec_process_callback+0x1e>
			if (status & (1 << cnt)) {
  400dc2:	9a01      	ldr	r2, [sp, #4]
  400dc4:	2301      	movs	r3, #1
  400dc6:	40a3      	lsls	r3, r4
  400dc8:	4213      	tst	r3, r2
  400dca:	d0f5      	beq.n	400db8 <afec_process_callback+0x30>
	if (afec_callback_pointer[inst_num][source]) {
  400dcc:	192b      	adds	r3, r5, r4
  400dce:	f856 3023 	ldr.w	r3, [r6, r3, lsl #2]
  400dd2:	2b00      	cmp	r3, #0
  400dd4:	d0f0      	beq.n	400db8 <afec_process_callback+0x30>
		afec_callback_pointer[inst_num][source]();
  400dd6:	4798      	blx	r3
  400dd8:	e7ee      	b.n	400db8 <afec_process_callback+0x30>
	if (afec_callback_pointer[inst_num][source]) {
  400dda:	192b      	adds	r3, r5, r4
  400ddc:	f856 3023 	ldr.w	r3, [r6, r3, lsl #2]
  400de0:	2b00      	cmp	r3, #0
  400de2:	d0e9      	beq.n	400db8 <afec_process_callback+0x30>
		afec_callback_pointer[inst_num][source]();
  400de4:	4798      	blx	r3
  400de6:	e7e7      	b.n	400db8 <afec_process_callback+0x30>
				afec_interrupt(inst_num, (enum afec_interrupt_source)cnt);
			}
		} else {
			if (status & (1 << (cnt + AFEC_INTERRUPT_GAP1 + AFEC_INTERRUPT_GAP2))) {
  400de8:	9a01      	ldr	r2, [sp, #4]
  400dea:	f104 010f 	add.w	r1, r4, #15
  400dee:	2301      	movs	r3, #1
  400df0:	408b      	lsls	r3, r1
  400df2:	4213      	tst	r3, r2
  400df4:	d0e0      	beq.n	400db8 <afec_process_callback+0x30>
	if (afec_callback_pointer[inst_num][source]) {
  400df6:	192b      	adds	r3, r5, r4
  400df8:	f856 3023 	ldr.w	r3, [r6, r3, lsl #2]
  400dfc:	2b00      	cmp	r3, #0
  400dfe:	d0db      	beq.n	400db8 <afec_process_callback+0x30>
		afec_callback_pointer[inst_num][source]();
  400e00:	4798      	blx	r3
  400e02:	e7d9      	b.n	400db8 <afec_process_callback+0x30>
				afec_interrupt(inst_num, (enum afec_interrupt_source)cnt);
			}
		}
	}
}
  400e04:	b002      	add	sp, #8
  400e06:	bd70      	pop	{r4, r5, r6, pc}
  400e08:	20400e48 	.word	0x20400e48
  400e0c:	40064000 	.word	0x40064000

00400e10 <AFEC0_Handler>:

/**
 * \brief Interrupt handler for AFEC0.
 */
void AFEC0_Handler(void)
{
  400e10:	b508      	push	{r3, lr}
	afec_process_callback(AFEC0);
  400e12:	4802      	ldr	r0, [pc, #8]	; (400e1c <AFEC0_Handler+0xc>)
  400e14:	4b02      	ldr	r3, [pc, #8]	; (400e20 <AFEC0_Handler+0x10>)
  400e16:	4798      	blx	r3
  400e18:	bd08      	pop	{r3, pc}
  400e1a:	bf00      	nop
  400e1c:	4003c000 	.word	0x4003c000
  400e20:	00400d89 	.word	0x00400d89

00400e24 <AFEC1_Handler>:

/**
 * \brief Interrupt handler for AFEC1.
 */
void AFEC1_Handler(void)
{
  400e24:	b508      	push	{r3, lr}
	afec_process_callback(AFEC1);
  400e26:	4802      	ldr	r0, [pc, #8]	; (400e30 <AFEC1_Handler+0xc>)
  400e28:	4b02      	ldr	r3, [pc, #8]	; (400e34 <AFEC1_Handler+0x10>)
  400e2a:	4798      	blx	r3
  400e2c:	bd08      	pop	{r3, pc}
  400e2e:	bf00      	nop
  400e30:	40064000 	.word	0x40064000
  400e34:	00400d89 	.word	0x00400d89

00400e38 <pio_set>:
 * \param p_pio Pointer to a PIO instance.
 * \param ul_mask Bitmask of one or more pin(s) to configure.
 */
void pio_set(Pio *p_pio, const uint32_t ul_mask)
{
	p_pio->PIO_SODR = ul_mask;
  400e38:	6301      	str	r1, [r0, #48]	; 0x30
  400e3a:	4770      	bx	lr

00400e3c <pio_set_peripheral>:
		const uint32_t ul_mask)
{
	uint32_t ul_sr;

	/* Disable interrupts on the pin(s) */
	p_pio->PIO_IDR = ul_mask;
  400e3c:	6442      	str	r2, [r0, #68]	; 0x44

#if (SAM3S || SAM3N || SAM4S || SAM4E || SAM4N || SAM4C || SAMG || SAM4CP || SAM4CM || SAMV71 || SAMV70 || SAME70 || SAMS70)
	switch (ul_type) {
  400e3e:	f1b1 5fc0 	cmp.w	r1, #402653184	; 0x18000000
  400e42:	d03a      	beq.n	400eba <pio_set_peripheral+0x7e>
  400e44:	d813      	bhi.n	400e6e <pio_set_peripheral+0x32>
  400e46:	f1b1 6f00 	cmp.w	r1, #134217728	; 0x8000000
  400e4a:	d025      	beq.n	400e98 <pio_set_peripheral+0x5c>
  400e4c:	f1b1 5f80 	cmp.w	r1, #268435456	; 0x10000000
  400e50:	d10a      	bne.n	400e68 <pio_set_peripheral+0x2c>

		ul_sr = p_pio->PIO_ABCDSR[1];
		p_pio->PIO_ABCDSR[1] &= (~ul_mask & ul_sr);
		break;
	case PIO_PERIPH_B:
		ul_sr = p_pio->PIO_ABCDSR[0];
  400e52:	6f03      	ldr	r3, [r0, #112]	; 0x70
		p_pio->PIO_ABCDSR[0] = (ul_mask | ul_sr);
  400e54:	4313      	orrs	r3, r2
  400e56:	6703      	str	r3, [r0, #112]	; 0x70

		ul_sr = p_pio->PIO_ABCDSR[1];
  400e58:	6f43      	ldr	r3, [r0, #116]	; 0x74
		p_pio->PIO_ABCDSR[1] &= (~ul_mask & ul_sr);
  400e5a:	6f41      	ldr	r1, [r0, #116]	; 0x74
  400e5c:	400b      	ands	r3, r1
  400e5e:	ea23 0302 	bic.w	r3, r3, r2
  400e62:	6743      	str	r3, [r0, #116]	; 0x74
#else
#error "Unsupported device"
#endif

	/* Remove the pins from under the control of PIO */
	p_pio->PIO_PDR = ul_mask;
  400e64:	6042      	str	r2, [r0, #4]
  400e66:	4770      	bx	lr
	switch (ul_type) {
  400e68:	2900      	cmp	r1, #0
  400e6a:	d1fb      	bne.n	400e64 <pio_set_peripheral+0x28>
  400e6c:	4770      	bx	lr
  400e6e:	f1b1 5f20 	cmp.w	r1, #671088640	; 0x28000000
  400e72:	d021      	beq.n	400eb8 <pio_set_peripheral+0x7c>
  400e74:	d809      	bhi.n	400e8a <pio_set_peripheral+0x4e>
  400e76:	f1b1 5f00 	cmp.w	r1, #536870912	; 0x20000000
  400e7a:	d1f3      	bne.n	400e64 <pio_set_peripheral+0x28>
		ul_sr = p_pio->PIO_ABCDSR[0];
  400e7c:	6f03      	ldr	r3, [r0, #112]	; 0x70
		p_pio->PIO_ABCDSR[0] = (ul_mask | ul_sr);
  400e7e:	4313      	orrs	r3, r2
  400e80:	6703      	str	r3, [r0, #112]	; 0x70
		ul_sr = p_pio->PIO_ABCDSR[1];
  400e82:	6f43      	ldr	r3, [r0, #116]	; 0x74
		p_pio->PIO_ABCDSR[1] = (ul_mask | ul_sr);
  400e84:	4313      	orrs	r3, r2
  400e86:	6743      	str	r3, [r0, #116]	; 0x74
		break;
  400e88:	e7ec      	b.n	400e64 <pio_set_peripheral+0x28>
	switch (ul_type) {
  400e8a:	f1b1 5f40 	cmp.w	r1, #805306368	; 0x30000000
  400e8e:	d013      	beq.n	400eb8 <pio_set_peripheral+0x7c>
  400e90:	f1b1 5f60 	cmp.w	r1, #939524096	; 0x38000000
  400e94:	d010      	beq.n	400eb8 <pio_set_peripheral+0x7c>
  400e96:	e7e5      	b.n	400e64 <pio_set_peripheral+0x28>
{
  400e98:	b410      	push	{r4}
		ul_sr = p_pio->PIO_ABCDSR[0];
  400e9a:	6f01      	ldr	r1, [r0, #112]	; 0x70
		p_pio->PIO_ABCDSR[0] &= (~ul_mask & ul_sr);
  400e9c:	6f04      	ldr	r4, [r0, #112]	; 0x70
  400e9e:	43d3      	mvns	r3, r2
  400ea0:	4021      	ands	r1, r4
  400ea2:	461c      	mov	r4, r3
  400ea4:	4019      	ands	r1, r3
  400ea6:	6701      	str	r1, [r0, #112]	; 0x70
		ul_sr = p_pio->PIO_ABCDSR[1];
  400ea8:	6f43      	ldr	r3, [r0, #116]	; 0x74
		p_pio->PIO_ABCDSR[1] &= (~ul_mask & ul_sr);
  400eaa:	6f41      	ldr	r1, [r0, #116]	; 0x74
  400eac:	400b      	ands	r3, r1
  400eae:	4023      	ands	r3, r4
  400eb0:	6743      	str	r3, [r0, #116]	; 0x74
	p_pio->PIO_PDR = ul_mask;
  400eb2:	6042      	str	r2, [r0, #4]
}
  400eb4:	f85d 4b04 	ldr.w	r4, [sp], #4
  400eb8:	4770      	bx	lr
		ul_sr = p_pio->PIO_ABCDSR[0];
  400eba:	6f03      	ldr	r3, [r0, #112]	; 0x70
		p_pio->PIO_ABCDSR[0] &= (~ul_mask & ul_sr);
  400ebc:	6f01      	ldr	r1, [r0, #112]	; 0x70
  400ebe:	400b      	ands	r3, r1
  400ec0:	ea23 0302 	bic.w	r3, r3, r2
  400ec4:	6703      	str	r3, [r0, #112]	; 0x70
		ul_sr = p_pio->PIO_ABCDSR[1];
  400ec6:	6f43      	ldr	r3, [r0, #116]	; 0x74
		p_pio->PIO_ABCDSR[1] = (ul_mask | ul_sr);
  400ec8:	4313      	orrs	r3, r2
  400eca:	6743      	str	r3, [r0, #116]	; 0x74
		break;
  400ecc:	e7ca      	b.n	400e64 <pio_set_peripheral+0x28>

00400ece <pio_set_input>:
 * \param p_pio Pointer to a PIO instance.
 * \param ul_mask Interrupt sources bit map.
 */
void pio_disable_interrupt(Pio *p_pio, const uint32_t ul_mask)
{
	p_pio->PIO_IDR = ul_mask;
  400ece:	6441      	str	r1, [r0, #68]	; 0x44
	if (ul_pull_up_enable) {
  400ed0:	f012 0f01 	tst.w	r2, #1
  400ed4:	d10d      	bne.n	400ef2 <pio_set_input+0x24>
		p_pio->PIO_PUDR = ul_mask;
  400ed6:	6601      	str	r1, [r0, #96]	; 0x60
	if (ul_attribute & (PIO_DEGLITCH | PIO_DEBOUNCE)) {
  400ed8:	f012 0f0a 	tst.w	r2, #10
  400edc:	d00b      	beq.n	400ef6 <pio_set_input+0x28>
		p_pio->PIO_IFER = ul_mask;
  400ede:	6201      	str	r1, [r0, #32]
	if (ul_attribute & PIO_DEGLITCH) {
  400ee0:	f012 0f02 	tst.w	r2, #2
  400ee4:	d109      	bne.n	400efa <pio_set_input+0x2c>
		if (ul_attribute & PIO_DEBOUNCE) {
  400ee6:	f012 0f08 	tst.w	r2, #8
  400eea:	d008      	beq.n	400efe <pio_set_input+0x30>
			p_pio->PIO_IFSCER = ul_mask;
  400eec:	f8c0 1084 	str.w	r1, [r0, #132]	; 0x84
  400ef0:	e005      	b.n	400efe <pio_set_input+0x30>
		p_pio->PIO_PUER = ul_mask;
  400ef2:	6641      	str	r1, [r0, #100]	; 0x64
  400ef4:	e7f0      	b.n	400ed8 <pio_set_input+0xa>
		p_pio->PIO_IFDR = ul_mask;
  400ef6:	6241      	str	r1, [r0, #36]	; 0x24
  400ef8:	e7f2      	b.n	400ee0 <pio_set_input+0x12>
		p_pio->PIO_IFSCDR = ul_mask;
  400efa:	f8c0 1080 	str.w	r1, [r0, #128]	; 0x80
	p_pio->PIO_ODR = ul_mask;
  400efe:	6141      	str	r1, [r0, #20]
	p_pio->PIO_PER = ul_mask;
  400f00:	6001      	str	r1, [r0, #0]
  400f02:	4770      	bx	lr

00400f04 <pio_set_output>:
{
  400f04:	b410      	push	{r4}
  400f06:	9c01      	ldr	r4, [sp, #4]
	p_pio->PIO_IDR = ul_mask;
  400f08:	6441      	str	r1, [r0, #68]	; 0x44
	if (ul_pull_up_enable) {
  400f0a:	b94c      	cbnz	r4, 400f20 <pio_set_output+0x1c>
		p_pio->PIO_PUDR = ul_mask;
  400f0c:	6601      	str	r1, [r0, #96]	; 0x60
	if (ul_multidrive_enable) {
  400f0e:	b14b      	cbz	r3, 400f24 <pio_set_output+0x20>
		p_pio->PIO_MDER = ul_mask;
  400f10:	6501      	str	r1, [r0, #80]	; 0x50
	if (ul_default_level) {
  400f12:	b94a      	cbnz	r2, 400f28 <pio_set_output+0x24>
		p_pio->PIO_CODR = ul_mask;
  400f14:	6341      	str	r1, [r0, #52]	; 0x34
	p_pio->PIO_OER = ul_mask;
  400f16:	6101      	str	r1, [r0, #16]
	p_pio->PIO_PER = ul_mask;
  400f18:	6001      	str	r1, [r0, #0]
}
  400f1a:	f85d 4b04 	ldr.w	r4, [sp], #4
  400f1e:	4770      	bx	lr
		p_pio->PIO_PUER = ul_mask;
  400f20:	6641      	str	r1, [r0, #100]	; 0x64
  400f22:	e7f4      	b.n	400f0e <pio_set_output+0xa>
		p_pio->PIO_MDDR = ul_mask;
  400f24:	6541      	str	r1, [r0, #84]	; 0x54
  400f26:	e7f4      	b.n	400f12 <pio_set_output+0xe>
		p_pio->PIO_SODR = ul_mask;
  400f28:	6301      	str	r1, [r0, #48]	; 0x30
  400f2a:	e7f4      	b.n	400f16 <pio_set_output+0x12>

00400f2c <pio_configure>:
{
  400f2c:	b570      	push	{r4, r5, r6, lr}
  400f2e:	b082      	sub	sp, #8
  400f30:	4605      	mov	r5, r0
  400f32:	4616      	mov	r6, r2
  400f34:	461c      	mov	r4, r3
	switch (ul_type) {
  400f36:	f1b1 5f00 	cmp.w	r1, #536870912	; 0x20000000
  400f3a:	d014      	beq.n	400f66 <pio_configure+0x3a>
  400f3c:	d90a      	bls.n	400f54 <pio_configure+0x28>
  400f3e:	f1b1 5f40 	cmp.w	r1, #805306368	; 0x30000000
  400f42:	d024      	beq.n	400f8e <pio_configure+0x62>
  400f44:	f1b1 5f60 	cmp.w	r1, #939524096	; 0x38000000
  400f48:	d021      	beq.n	400f8e <pio_configure+0x62>
  400f4a:	f1b1 5f20 	cmp.w	r1, #671088640	; 0x28000000
  400f4e:	d017      	beq.n	400f80 <pio_configure+0x54>
		return 0;
  400f50:	2000      	movs	r0, #0
  400f52:	e01a      	b.n	400f8a <pio_configure+0x5e>
	switch (ul_type) {
  400f54:	f1b1 5f80 	cmp.w	r1, #268435456	; 0x10000000
  400f58:	d005      	beq.n	400f66 <pio_configure+0x3a>
  400f5a:	f1b1 5fc0 	cmp.w	r1, #402653184	; 0x18000000
  400f5e:	d002      	beq.n	400f66 <pio_configure+0x3a>
  400f60:	f1b1 6f00 	cmp.w	r1, #134217728	; 0x8000000
  400f64:	d1f4      	bne.n	400f50 <pio_configure+0x24>
		pio_set_peripheral(p_pio, ul_type, ul_mask);
  400f66:	4632      	mov	r2, r6
  400f68:	4628      	mov	r0, r5
  400f6a:	4b11      	ldr	r3, [pc, #68]	; (400fb0 <pio_configure+0x84>)
  400f6c:	4798      	blx	r3
	if (ul_pull_up_enable) {
  400f6e:	f014 0f01 	tst.w	r4, #1
  400f72:	d102      	bne.n	400f7a <pio_configure+0x4e>
		p_pio->PIO_PUDR = ul_mask;
  400f74:	662e      	str	r6, [r5, #96]	; 0x60
	return 1;
  400f76:	2001      	movs	r0, #1
  400f78:	e007      	b.n	400f8a <pio_configure+0x5e>
		p_pio->PIO_PUER = ul_mask;
  400f7a:	666e      	str	r6, [r5, #100]	; 0x64
	return 1;
  400f7c:	2001      	movs	r0, #1
  400f7e:	e004      	b.n	400f8a <pio_configure+0x5e>
		pio_set_input(p_pio, ul_mask, ul_attribute);
  400f80:	461a      	mov	r2, r3
  400f82:	4631      	mov	r1, r6
  400f84:	4b0b      	ldr	r3, [pc, #44]	; (400fb4 <pio_configure+0x88>)
  400f86:	4798      	blx	r3
	return 1;
  400f88:	2001      	movs	r0, #1
}
  400f8a:	b002      	add	sp, #8
  400f8c:	bd70      	pop	{r4, r5, r6, pc}
		pio_set_output(p_pio, ul_mask, (ul_type == PIO_OUTPUT_1),
  400f8e:	f004 0301 	and.w	r3, r4, #1
  400f92:	9300      	str	r3, [sp, #0]
  400f94:	f3c4 0380 	ubfx	r3, r4, #2, #1
  400f98:	f1b1 5f60 	cmp.w	r1, #939524096	; 0x38000000
  400f9c:	bf14      	ite	ne
  400f9e:	2200      	movne	r2, #0
  400fa0:	2201      	moveq	r2, #1
  400fa2:	4631      	mov	r1, r6
  400fa4:	4628      	mov	r0, r5
  400fa6:	4c04      	ldr	r4, [pc, #16]	; (400fb8 <pio_configure+0x8c>)
  400fa8:	47a0      	blx	r4
	return 1;
  400faa:	2001      	movs	r0, #1
		break;
  400fac:	e7ed      	b.n	400f8a <pio_configure+0x5e>
  400fae:	bf00      	nop
  400fb0:	00400e3d 	.word	0x00400e3d
  400fb4:	00400ecf 	.word	0x00400ecf
  400fb8:	00400f05 	.word	0x00400f05

00400fbc <pio_get_interrupt_status>:
 *
 * \return The interrupt status value.
 */
uint32_t pio_get_interrupt_status(const Pio *p_pio)
{
	return p_pio->PIO_ISR;
  400fbc:	6cc0      	ldr	r0, [r0, #76]	; 0x4c
}
  400fbe:	4770      	bx	lr

00400fc0 <pio_get_interrupt_mask>:
 *
 * \return The interrupt mask value.
 */
uint32_t pio_get_interrupt_mask(const Pio *p_pio)
{
	return p_pio->PIO_IMR;
  400fc0:	6c80      	ldr	r0, [r0, #72]	; 0x48
}
  400fc2:	4770      	bx	lr

00400fc4 <pio_set_pin_high>:
		p_pio = PIOC;
	} else {
		p_pio = (Pio *)((uint32_t)PIOA + (PIO_DELTA * (ul_pin >> 5)));
	}
#else
	p_pio = (Pio *)((uint32_t)PIOA + (PIO_DELTA * (ul_pin >> 5)));
  400fc4:	4b05      	ldr	r3, [pc, #20]	; (400fdc <pio_set_pin_high+0x18>)
  400fc6:	eb03 1350 	add.w	r3, r3, r0, lsr #5
  400fca:	025b      	lsls	r3, r3, #9
	p_pio->PIO_SODR = 1 << (ul_pin & 0x1F);
  400fcc:	f000 001f 	and.w	r0, r0, #31
  400fd0:	2201      	movs	r2, #1
  400fd2:	fa02 f000 	lsl.w	r0, r2, r0
  400fd6:	6318      	str	r0, [r3, #48]	; 0x30
  400fd8:	4770      	bx	lr
  400fda:	bf00      	nop
  400fdc:	00200707 	.word	0x00200707

00400fe0 <pio_set_pin_low>:
	p_pio = (Pio *)((uint32_t)PIOA + (PIO_DELTA * (ul_pin >> 5)));
  400fe0:	4b05      	ldr	r3, [pc, #20]	; (400ff8 <pio_set_pin_low+0x18>)
  400fe2:	eb03 1350 	add.w	r3, r3, r0, lsr #5
  400fe6:	025b      	lsls	r3, r3, #9
	p_pio->PIO_CODR = 1 << (ul_pin & 0x1F);
  400fe8:	f000 001f 	and.w	r0, r0, #31
  400fec:	2201      	movs	r2, #1
  400fee:	fa02 f000 	lsl.w	r0, r2, r0
  400ff2:	6358      	str	r0, [r3, #52]	; 0x34
  400ff4:	4770      	bx	lr
  400ff6:	bf00      	nop
  400ff8:	00200707 	.word	0x00200707

00400ffc <pio_configure_pin>:
{
  400ffc:	b570      	push	{r4, r5, r6, lr}
  400ffe:	b082      	sub	sp, #8
  401000:	460d      	mov	r5, r1
	p_pio = (Pio *)((uint32_t)PIOA + (PIO_DELTA * (ul_pin >> 5)));
  401002:	4c46      	ldr	r4, [pc, #280]	; (40111c <pio_configure_pin+0x120>)
  401004:	eb04 1450 	add.w	r4, r4, r0, lsr #5
  401008:	0264      	lsls	r4, r4, #9
	switch (ul_flags & PIO_TYPE_Msk) {
  40100a:	f001 43f0 	and.w	r3, r1, #2013265920	; 0x78000000
  40100e:	f1b3 5f00 	cmp.w	r3, #536870912	; 0x20000000
  401012:	d059      	beq.n	4010c8 <pio_configure_pin+0xcc>
  401014:	d80a      	bhi.n	40102c <pio_configure_pin+0x30>
  401016:	f1b3 5f80 	cmp.w	r3, #268435456	; 0x10000000
  40101a:	d02f      	beq.n	40107c <pio_configure_pin+0x80>
  40101c:	f1b3 5fc0 	cmp.w	r3, #402653184	; 0x18000000
  401020:	d03f      	beq.n	4010a2 <pio_configure_pin+0xa6>
  401022:	f1b3 6f00 	cmp.w	r3, #134217728	; 0x8000000
  401026:	d016      	beq.n	401056 <pio_configure_pin+0x5a>
		return 0;
  401028:	2000      	movs	r0, #0
  40102a:	e012      	b.n	401052 <pio_configure_pin+0x56>
	switch (ul_flags & PIO_TYPE_Msk) {
  40102c:	f1b3 5f40 	cmp.w	r3, #805306368	; 0x30000000
  401030:	d05d      	beq.n	4010ee <pio_configure_pin+0xf2>
  401032:	f1b3 5f60 	cmp.w	r3, #939524096	; 0x38000000
  401036:	d05a      	beq.n	4010ee <pio_configure_pin+0xf2>
  401038:	f1b3 5f20 	cmp.w	r3, #671088640	; 0x28000000
  40103c:	d1f4      	bne.n	401028 <pio_configure_pin+0x2c>
		pio_set_input(p_pio, (1 << (ul_pin & 0x1F)), ul_flags);
  40103e:	f000 011f 	and.w	r1, r0, #31
  401042:	2601      	movs	r6, #1
  401044:	462a      	mov	r2, r5
  401046:	fa06 f101 	lsl.w	r1, r6, r1
  40104a:	4620      	mov	r0, r4
  40104c:	4b34      	ldr	r3, [pc, #208]	; (401120 <pio_configure_pin+0x124>)
  40104e:	4798      	blx	r3
	return 1;
  401050:	4630      	mov	r0, r6
}
  401052:	b002      	add	sp, #8
  401054:	bd70      	pop	{r4, r5, r6, pc}
		pio_set_peripheral(p_pio, PIO_PERIPH_A, (1 << (ul_pin & 0x1F)));
  401056:	f000 001f 	and.w	r0, r0, #31
  40105a:	2601      	movs	r6, #1
  40105c:	4086      	lsls	r6, r0
  40105e:	4632      	mov	r2, r6
  401060:	f04f 6100 	mov.w	r1, #134217728	; 0x8000000
  401064:	4620      	mov	r0, r4
  401066:	4b2f      	ldr	r3, [pc, #188]	; (401124 <pio_configure_pin+0x128>)
  401068:	4798      	blx	r3
	if (ul_pull_up_enable) {
  40106a:	f015 0f01 	tst.w	r5, #1
  40106e:	d102      	bne.n	401076 <pio_configure_pin+0x7a>
		p_pio->PIO_PUDR = ul_mask;
  401070:	6626      	str	r6, [r4, #96]	; 0x60
	return 1;
  401072:	2001      	movs	r0, #1
  401074:	e7ed      	b.n	401052 <pio_configure_pin+0x56>
		p_pio->PIO_PUER = ul_mask;
  401076:	6666      	str	r6, [r4, #100]	; 0x64
	return 1;
  401078:	2001      	movs	r0, #1
  40107a:	e7ea      	b.n	401052 <pio_configure_pin+0x56>
		pio_set_peripheral(p_pio, PIO_PERIPH_B, (1 << (ul_pin & 0x1F)));
  40107c:	f000 001f 	and.w	r0, r0, #31
  401080:	2601      	movs	r6, #1
  401082:	4086      	lsls	r6, r0
  401084:	4632      	mov	r2, r6
  401086:	f04f 5180 	mov.w	r1, #268435456	; 0x10000000
  40108a:	4620      	mov	r0, r4
  40108c:	4b25      	ldr	r3, [pc, #148]	; (401124 <pio_configure_pin+0x128>)
  40108e:	4798      	blx	r3
	if (ul_pull_up_enable) {
  401090:	f015 0f01 	tst.w	r5, #1
  401094:	d102      	bne.n	40109c <pio_configure_pin+0xa0>
		p_pio->PIO_PUDR = ul_mask;
  401096:	6626      	str	r6, [r4, #96]	; 0x60
	return 1;
  401098:	2001      	movs	r0, #1
  40109a:	e7da      	b.n	401052 <pio_configure_pin+0x56>
		p_pio->PIO_PUER = ul_mask;
  40109c:	6666      	str	r6, [r4, #100]	; 0x64
	return 1;
  40109e:	2001      	movs	r0, #1
  4010a0:	e7d7      	b.n	401052 <pio_configure_pin+0x56>
		pio_set_peripheral(p_pio, PIO_PERIPH_C, (1 << (ul_pin & 0x1F)));
  4010a2:	f000 001f 	and.w	r0, r0, #31
  4010a6:	2601      	movs	r6, #1
  4010a8:	4086      	lsls	r6, r0
  4010aa:	4632      	mov	r2, r6
  4010ac:	f04f 51c0 	mov.w	r1, #402653184	; 0x18000000
  4010b0:	4620      	mov	r0, r4
  4010b2:	4b1c      	ldr	r3, [pc, #112]	; (401124 <pio_configure_pin+0x128>)
  4010b4:	4798      	blx	r3
	if (ul_pull_up_enable) {
  4010b6:	f015 0f01 	tst.w	r5, #1
  4010ba:	d102      	bne.n	4010c2 <pio_configure_pin+0xc6>
		p_pio->PIO_PUDR = ul_mask;
  4010bc:	6626      	str	r6, [r4, #96]	; 0x60
	return 1;
  4010be:	2001      	movs	r0, #1
  4010c0:	e7c7      	b.n	401052 <pio_configure_pin+0x56>
		p_pio->PIO_PUER = ul_mask;
  4010c2:	6666      	str	r6, [r4, #100]	; 0x64
	return 1;
  4010c4:	2001      	movs	r0, #1
  4010c6:	e7c4      	b.n	401052 <pio_configure_pin+0x56>
		pio_set_peripheral(p_pio, PIO_PERIPH_D, (1 << (ul_pin & 0x1F)));
  4010c8:	f000 001f 	and.w	r0, r0, #31
  4010cc:	2601      	movs	r6, #1
  4010ce:	4086      	lsls	r6, r0
  4010d0:	4632      	mov	r2, r6
  4010d2:	f04f 5100 	mov.w	r1, #536870912	; 0x20000000
  4010d6:	4620      	mov	r0, r4
  4010d8:	4b12      	ldr	r3, [pc, #72]	; (401124 <pio_configure_pin+0x128>)
  4010da:	4798      	blx	r3
	if (ul_pull_up_enable) {
  4010dc:	f015 0f01 	tst.w	r5, #1
  4010e0:	d102      	bne.n	4010e8 <pio_configure_pin+0xec>
		p_pio->PIO_PUDR = ul_mask;
  4010e2:	6626      	str	r6, [r4, #96]	; 0x60
	return 1;
  4010e4:	2001      	movs	r0, #1
  4010e6:	e7b4      	b.n	401052 <pio_configure_pin+0x56>
		p_pio->PIO_PUER = ul_mask;
  4010e8:	6666      	str	r6, [r4, #100]	; 0x64
	return 1;
  4010ea:	2001      	movs	r0, #1
  4010ec:	e7b1      	b.n	401052 <pio_configure_pin+0x56>
				((ul_flags & PIO_TYPE_PIO_OUTPUT_1)
  4010ee:	f005 5260 	and.w	r2, r5, #939524096	; 0x38000000
		pio_set_output(p_pio, (1 << (ul_pin & 0x1F)),
  4010f2:	f000 011f 	and.w	r1, r0, #31
  4010f6:	2601      	movs	r6, #1
  4010f8:	ea05 0306 	and.w	r3, r5, r6
  4010fc:	9300      	str	r3, [sp, #0]
  4010fe:	f3c5 0380 	ubfx	r3, r5, #2, #1
  401102:	f1b2 5f60 	cmp.w	r2, #939524096	; 0x38000000
  401106:	bf14      	ite	ne
  401108:	2200      	movne	r2, #0
  40110a:	2201      	moveq	r2, #1
  40110c:	fa06 f101 	lsl.w	r1, r6, r1
  401110:	4620      	mov	r0, r4
  401112:	4c05      	ldr	r4, [pc, #20]	; (401128 <pio_configure_pin+0x12c>)
  401114:	47a0      	blx	r4
	return 1;
  401116:	4630      	mov	r0, r6
		break;
  401118:	e79b      	b.n	401052 <pio_configure_pin+0x56>
  40111a:	bf00      	nop
  40111c:	00200707 	.word	0x00200707
  401120:	00400ecf 	.word	0x00400ecf
  401124:	00400e3d 	.word	0x00400e3d
  401128:	00400f05 	.word	0x00400f05

0040112c <pio_handler_process>:
 *
 * \param p_pio PIO controller base address.
 * \param ul_id PIO controller ID.
 */
void pio_handler_process(Pio *p_pio, uint32_t ul_id)
{
  40112c:	e92d 41f0 	stmdb	sp!, {r4, r5, r6, r7, r8, lr}
  401130:	4604      	mov	r4, r0
  401132:	4688      	mov	r8, r1
	uint32_t status;
	uint32_t i;

	/* Read PIO controller status */
	status = pio_get_interrupt_status(p_pio);
  401134:	4b0e      	ldr	r3, [pc, #56]	; (401170 <pio_handler_process+0x44>)
  401136:	4798      	blx	r3
  401138:	4605      	mov	r5, r0
	status &= pio_get_interrupt_mask(p_pio);
  40113a:	4620      	mov	r0, r4
  40113c:	4b0d      	ldr	r3, [pc, #52]	; (401174 <pio_handler_process+0x48>)
  40113e:	4798      	blx	r3

	/* Check pending events */
	if (status != 0) {
  401140:	4005      	ands	r5, r0
  401142:	d013      	beq.n	40116c <pio_handler_process+0x40>
  401144:	4c0c      	ldr	r4, [pc, #48]	; (401178 <pio_handler_process+0x4c>)
  401146:	f104 0660 	add.w	r6, r4, #96	; 0x60
  40114a:	e003      	b.n	401154 <pio_handler_process+0x28>
							gs_interrupt_sources[i].mask);
					status &= ~(gs_interrupt_sources[i].mask);
				}
			}
			i++;
			if (i >= MAX_INTERRUPT_SOURCES) {
  40114c:	42b4      	cmp	r4, r6
  40114e:	d00d      	beq.n	40116c <pio_handler_process+0x40>
  401150:	3410      	adds	r4, #16
		while (status != 0) {
  401152:	b15d      	cbz	r5, 40116c <pio_handler_process+0x40>
			if (gs_interrupt_sources[i].id == ul_id) {
  401154:	6820      	ldr	r0, [r4, #0]
  401156:	4540      	cmp	r0, r8
  401158:	d1f8      	bne.n	40114c <pio_handler_process+0x20>
				if ((status & gs_interrupt_sources[i].mask) != 0) {
  40115a:	6861      	ldr	r1, [r4, #4]
  40115c:	4229      	tst	r1, r5
  40115e:	d0f5      	beq.n	40114c <pio_handler_process+0x20>
					gs_interrupt_sources[i].handler(gs_interrupt_sources[i].id,
  401160:	68e3      	ldr	r3, [r4, #12]
  401162:	4798      	blx	r3
					status &= ~(gs_interrupt_sources[i].mask);
  401164:	6863      	ldr	r3, [r4, #4]
  401166:	ea25 0503 	bic.w	r5, r5, r3
  40116a:	e7ef      	b.n	40114c <pio_handler_process+0x20>
  40116c:	e8bd 81f0 	ldmia.w	sp!, {r4, r5, r6, r7, r8, pc}
  401170:	00400fbd 	.word	0x00400fbd
  401174:	00400fc1 	.word	0x00400fc1
  401178:	20400d90 	.word	0x20400d90

0040117c <PIOA_Handler>:
/**
 * \brief Parallel IO Controller A interrupt handler.
 * Redefined PIOA interrupt handler for NVIC interrupt table.
 */
void PIOA_Handler(void)
{
  40117c:	b508      	push	{r3, lr}
	pio_handler_process(PIOA, ID_PIOA);
  40117e:	210a      	movs	r1, #10
  401180:	4801      	ldr	r0, [pc, #4]	; (401188 <PIOA_Handler+0xc>)
  401182:	4b02      	ldr	r3, [pc, #8]	; (40118c <PIOA_Handler+0x10>)
  401184:	4798      	blx	r3
  401186:	bd08      	pop	{r3, pc}
  401188:	400e0e00 	.word	0x400e0e00
  40118c:	0040112d 	.word	0x0040112d

00401190 <PIOB_Handler>:
/**
 * \brief Parallel IO Controller B interrupt handler
 * Redefined PIOB interrupt handler for NVIC interrupt table.
 */
void PIOB_Handler(void)
{
  401190:	b508      	push	{r3, lr}
    pio_handler_process(PIOB, ID_PIOB);
  401192:	210b      	movs	r1, #11
  401194:	4801      	ldr	r0, [pc, #4]	; (40119c <PIOB_Handler+0xc>)
  401196:	4b02      	ldr	r3, [pc, #8]	; (4011a0 <PIOB_Handler+0x10>)
  401198:	4798      	blx	r3
  40119a:	bd08      	pop	{r3, pc}
  40119c:	400e1000 	.word	0x400e1000
  4011a0:	0040112d 	.word	0x0040112d

004011a4 <PIOC_Handler>:
/**
 * \brief Parallel IO Controller C interrupt handler.
 * Redefined PIOC interrupt handler for NVIC interrupt table.
 */
void PIOC_Handler(void)
{
  4011a4:	b508      	push	{r3, lr}
	pio_handler_process(PIOC, ID_PIOC);
  4011a6:	210c      	movs	r1, #12
  4011a8:	4801      	ldr	r0, [pc, #4]	; (4011b0 <PIOC_Handler+0xc>)
  4011aa:	4b02      	ldr	r3, [pc, #8]	; (4011b4 <PIOC_Handler+0x10>)
  4011ac:	4798      	blx	r3
  4011ae:	bd08      	pop	{r3, pc}
  4011b0:	400e1200 	.word	0x400e1200
  4011b4:	0040112d 	.word	0x0040112d

004011b8 <PIOD_Handler>:
/**
 * \brief Parallel IO Controller D interrupt handler.
 * Redefined PIOD interrupt handler for NVIC interrupt table.
 */
void PIOD_Handler(void)
{
  4011b8:	b508      	push	{r3, lr}
	pio_handler_process(PIOD, ID_PIOD);
  4011ba:	2110      	movs	r1, #16
  4011bc:	4801      	ldr	r0, [pc, #4]	; (4011c4 <PIOD_Handler+0xc>)
  4011be:	4b02      	ldr	r3, [pc, #8]	; (4011c8 <PIOD_Handler+0x10>)
  4011c0:	4798      	blx	r3
  4011c2:	bd08      	pop	{r3, pc}
  4011c4:	400e1400 	.word	0x400e1400
  4011c8:	0040112d 	.word	0x0040112d

004011cc <PIOE_Handler>:
/**
 * \brief Parallel IO Controller E interrupt handler.
 * Redefined PIOE interrupt handler for NVIC interrupt table.
 */
void PIOE_Handler(void)
{
  4011cc:	b508      	push	{r3, lr}
	pio_handler_process(PIOE, ID_PIOE);
  4011ce:	2111      	movs	r1, #17
  4011d0:	4801      	ldr	r0, [pc, #4]	; (4011d8 <PIOE_Handler+0xc>)
  4011d2:	4b02      	ldr	r3, [pc, #8]	; (4011dc <PIOE_Handler+0x10>)
  4011d4:	4798      	blx	r3
  4011d6:	bd08      	pop	{r3, pc}
  4011d8:	400e1600 	.word	0x400e1600
  4011dc:	0040112d 	.word	0x0040112d

004011e0 <pmc_mck_set_division>:
 *
 * \param ul_div Division value.
 */
void pmc_mck_set_division(uint32_t ul_div)
{
	switch (ul_div) {
  4011e0:	2803      	cmp	r0, #3
  4011e2:	d011      	beq.n	401208 <pmc_mck_set_division+0x28>
  4011e4:	2804      	cmp	r0, #4
  4011e6:	d012      	beq.n	40120e <pmc_mck_set_division+0x2e>
		case 1:
			ul_div = PMC_MCKR_MDIV_EQ_PCK;
  4011e8:	2802      	cmp	r0, #2
  4011ea:	bf0c      	ite	eq
  4011ec:	f44f 7180 	moveq.w	r1, #256	; 0x100
  4011f0:	2100      	movne	r1, #0
		default:
			ul_div = PMC_MCKR_MDIV_EQ_PCK;
			break;
	}
	PMC->PMC_MCKR =
			(PMC->PMC_MCKR & (~PMC_MCKR_MDIV_Msk)) | ul_div;
  4011f2:	4a08      	ldr	r2, [pc, #32]	; (401214 <pmc_mck_set_division+0x34>)
  4011f4:	6b13      	ldr	r3, [r2, #48]	; 0x30
  4011f6:	f423 7340 	bic.w	r3, r3, #768	; 0x300
  4011fa:	430b      	orrs	r3, r1
	PMC->PMC_MCKR =
  4011fc:	6313      	str	r3, [r2, #48]	; 0x30
	while (!(PMC->PMC_SR & PMC_SR_MCKRDY));
  4011fe:	6e93      	ldr	r3, [r2, #104]	; 0x68
  401200:	f013 0f08 	tst.w	r3, #8
  401204:	d0fb      	beq.n	4011fe <pmc_mck_set_division+0x1e>
}
  401206:	4770      	bx	lr
			ul_div = PMC_MCKR_MDIV_PCK_DIV3;
  401208:	f44f 7140 	mov.w	r1, #768	; 0x300
			break;
  40120c:	e7f1      	b.n	4011f2 <pmc_mck_set_division+0x12>
			ul_div = PMC_MCKR_MDIV_PCK_DIV4;
  40120e:	f44f 7100 	mov.w	r1, #512	; 0x200
			break;
  401212:	e7ee      	b.n	4011f2 <pmc_mck_set_division+0x12>
  401214:	400e0600 	.word	0x400e0600

00401218 <pmc_switch_mck_to_pllack>:
 */
uint32_t pmc_switch_mck_to_pllack(uint32_t ul_pres)
{
	uint32_t ul_timeout;

	PMC->PMC_MCKR = (PMC->PMC_MCKR & (~PMC_MCKR_PRES_Msk)) | ul_pres;
  401218:	4a17      	ldr	r2, [pc, #92]	; (401278 <pmc_switch_mck_to_pllack+0x60>)
  40121a:	6b13      	ldr	r3, [r2, #48]	; 0x30
  40121c:	f023 0370 	bic.w	r3, r3, #112	; 0x70
  401220:	4318      	orrs	r0, r3
  401222:	6310      	str	r0, [r2, #48]	; 0x30
	for (ul_timeout = PMC_TIMEOUT; !(PMC->PMC_SR & PMC_SR_MCKRDY);
  401224:	6e93      	ldr	r3, [r2, #104]	; 0x68
  401226:	f013 0f08 	tst.w	r3, #8
  40122a:	d10a      	bne.n	401242 <pmc_switch_mck_to_pllack+0x2a>
  40122c:	f44f 5380 	mov.w	r3, #4096	; 0x1000
  401230:	4911      	ldr	r1, [pc, #68]	; (401278 <pmc_switch_mck_to_pllack+0x60>)
  401232:	6e8a      	ldr	r2, [r1, #104]	; 0x68
  401234:	f012 0f08 	tst.w	r2, #8
  401238:	d103      	bne.n	401242 <pmc_switch_mck_to_pllack+0x2a>
			--ul_timeout) {
		if (ul_timeout == 0) {
  40123a:	3b01      	subs	r3, #1
  40123c:	d1f9      	bne.n	401232 <pmc_switch_mck_to_pllack+0x1a>
			return 1;
  40123e:	2001      	movs	r0, #1
  401240:	4770      	bx	lr
		}
	}

	PMC->PMC_MCKR = (PMC->PMC_MCKR & (~PMC_MCKR_CSS_Msk)) |
  401242:	4a0d      	ldr	r2, [pc, #52]	; (401278 <pmc_switch_mck_to_pllack+0x60>)
  401244:	6b13      	ldr	r3, [r2, #48]	; 0x30
  401246:	f023 0303 	bic.w	r3, r3, #3
  40124a:	f043 0302 	orr.w	r3, r3, #2
  40124e:	6313      	str	r3, [r2, #48]	; 0x30
			PMC_MCKR_CSS_PLLA_CLK;

	for (ul_timeout = PMC_TIMEOUT; !(PMC->PMC_SR & PMC_SR_MCKRDY);
  401250:	6e93      	ldr	r3, [r2, #104]	; 0x68
  401252:	f013 0f08 	tst.w	r3, #8
  401256:	d10a      	bne.n	40126e <pmc_switch_mck_to_pllack+0x56>
  401258:	f44f 5380 	mov.w	r3, #4096	; 0x1000
  40125c:	4906      	ldr	r1, [pc, #24]	; (401278 <pmc_switch_mck_to_pllack+0x60>)
  40125e:	6e8a      	ldr	r2, [r1, #104]	; 0x68
  401260:	f012 0f08 	tst.w	r2, #8
  401264:	d105      	bne.n	401272 <pmc_switch_mck_to_pllack+0x5a>
			--ul_timeout) {
		if (ul_timeout == 0) {
  401266:	3b01      	subs	r3, #1
  401268:	d1f9      	bne.n	40125e <pmc_switch_mck_to_pllack+0x46>
			return 1;
  40126a:	2001      	movs	r0, #1
		}
	}

	return 0;
}
  40126c:	4770      	bx	lr
	return 0;
  40126e:	2000      	movs	r0, #0
  401270:	4770      	bx	lr
  401272:	2000      	movs	r0, #0
  401274:	4770      	bx	lr
  401276:	bf00      	nop
  401278:	400e0600 	.word	0x400e0600

0040127c <pmc_switch_mainck_to_xtal>:
 */
void pmc_switch_mainck_to_xtal(uint32_t ul_bypass,
		uint32_t ul_xtal_startup_time)
{
	/* Enable Main Xtal oscillator */
	if (ul_bypass) {
  40127c:	b9a0      	cbnz	r0, 4012a8 <pmc_switch_mainck_to_xtal+0x2c>
		PMC->CKGR_MOR = (PMC->CKGR_MOR & ~CKGR_MOR_MOSCXTEN) |
				CKGR_MOR_KEY_PASSWD | CKGR_MOR_MOSCXTBY |
				CKGR_MOR_MOSCSEL;
	} else {
		PMC->CKGR_MOR = (PMC->CKGR_MOR & ~CKGR_MOR_MOSCXTBY) |
  40127e:	480e      	ldr	r0, [pc, #56]	; (4012b8 <pmc_switch_mainck_to_xtal+0x3c>)
  401280:	6a03      	ldr	r3, [r0, #32]
				CKGR_MOR_KEY_PASSWD | CKGR_MOR_MOSCXTEN |
				CKGR_MOR_MOSCXTST(ul_xtal_startup_time);
  401282:	0209      	lsls	r1, r1, #8
  401284:	b289      	uxth	r1, r1
				CKGR_MOR_KEY_PASSWD | CKGR_MOR_MOSCXTEN |
  401286:	4a0d      	ldr	r2, [pc, #52]	; (4012bc <pmc_switch_mainck_to_xtal+0x40>)
  401288:	401a      	ands	r2, r3
  40128a:	4b0d      	ldr	r3, [pc, #52]	; (4012c0 <pmc_switch_mainck_to_xtal+0x44>)
  40128c:	4313      	orrs	r3, r2
  40128e:	4319      	orrs	r1, r3
		PMC->CKGR_MOR = (PMC->CKGR_MOR & ~CKGR_MOR_MOSCXTBY) |
  401290:	6201      	str	r1, [r0, #32]
		/* Wait the Xtal to stabilize */
		while (!(PMC->PMC_SR & PMC_SR_MOSCXTS));
  401292:	4602      	mov	r2, r0
  401294:	6e93      	ldr	r3, [r2, #104]	; 0x68
  401296:	f013 0f01 	tst.w	r3, #1
  40129a:	d0fb      	beq.n	401294 <pmc_switch_mainck_to_xtal+0x18>

		PMC->CKGR_MOR |= CKGR_MOR_KEY_PASSWD | CKGR_MOR_MOSCSEL;
  40129c:	4a06      	ldr	r2, [pc, #24]	; (4012b8 <pmc_switch_mainck_to_xtal+0x3c>)
  40129e:	6a11      	ldr	r1, [r2, #32]
  4012a0:	4b08      	ldr	r3, [pc, #32]	; (4012c4 <pmc_switch_mainck_to_xtal+0x48>)
  4012a2:	430b      	orrs	r3, r1
  4012a4:	6213      	str	r3, [r2, #32]
  4012a6:	4770      	bx	lr
		PMC->CKGR_MOR = (PMC->CKGR_MOR & ~CKGR_MOR_MOSCXTEN) |
  4012a8:	4903      	ldr	r1, [pc, #12]	; (4012b8 <pmc_switch_mainck_to_xtal+0x3c>)
  4012aa:	6a0b      	ldr	r3, [r1, #32]
				CKGR_MOR_KEY_PASSWD | CKGR_MOR_MOSCXTBY |
  4012ac:	4a06      	ldr	r2, [pc, #24]	; (4012c8 <pmc_switch_mainck_to_xtal+0x4c>)
  4012ae:	401a      	ands	r2, r3
  4012b0:	4b06      	ldr	r3, [pc, #24]	; (4012cc <pmc_switch_mainck_to_xtal+0x50>)
  4012b2:	4313      	orrs	r3, r2
		PMC->CKGR_MOR = (PMC->CKGR_MOR & ~CKGR_MOR_MOSCXTEN) |
  4012b4:	620b      	str	r3, [r1, #32]
  4012b6:	4770      	bx	lr
  4012b8:	400e0600 	.word	0x400e0600
  4012bc:	ffc8fffc 	.word	0xffc8fffc
  4012c0:	00370001 	.word	0x00370001
  4012c4:	01370000 	.word	0x01370000
  4012c8:	fec8fffc 	.word	0xfec8fffc
  4012cc:	01370002 	.word	0x01370002

004012d0 <pmc_osc_is_ready_mainck>:
 * \retval 1 Xtal is ready.
 * \retval 0 Xtal is not ready.
 */
uint32_t pmc_osc_is_ready_mainck(void)
{
	return PMC->PMC_SR & PMC_SR_MOSCSELS;
  4012d0:	4b02      	ldr	r3, [pc, #8]	; (4012dc <pmc_osc_is_ready_mainck+0xc>)
  4012d2:	6e98      	ldr	r0, [r3, #104]	; 0x68
}
  4012d4:	f400 3080 	and.w	r0, r0, #65536	; 0x10000
  4012d8:	4770      	bx	lr
  4012da:	bf00      	nop
  4012dc:	400e0600 	.word	0x400e0600

004012e0 <pmc_disable_pllack>:
void pmc_disable_pllack(void)
{
#if (SAM4C || SAM4CM || SAM4CP || SAMG)
	PMC->CKGR_PLLAR = CKGR_PLLAR_MULA(0);
#else
	PMC->CKGR_PLLAR = CKGR_PLLAR_ONE | CKGR_PLLAR_MULA(0);
  4012e0:	f04f 5200 	mov.w	r2, #536870912	; 0x20000000
  4012e4:	4b01      	ldr	r3, [pc, #4]	; (4012ec <pmc_disable_pllack+0xc>)
  4012e6:	629a      	str	r2, [r3, #40]	; 0x28
  4012e8:	4770      	bx	lr
  4012ea:	bf00      	nop
  4012ec:	400e0600 	.word	0x400e0600

004012f0 <pmc_is_locked_pllack>:
 * \retval 0 Not locked.
 * \retval 1 Locked.
 */
uint32_t pmc_is_locked_pllack(void)
{
	return (PMC->PMC_SR & PMC_SR_LOCKA);
  4012f0:	4b02      	ldr	r3, [pc, #8]	; (4012fc <pmc_is_locked_pllack+0xc>)
  4012f2:	6e98      	ldr	r0, [r3, #104]	; 0x68
}
  4012f4:	f000 0002 	and.w	r0, r0, #2
  4012f8:	4770      	bx	lr
  4012fa:	bf00      	nop
  4012fc:	400e0600 	.word	0x400e0600

00401300 <pmc_enable_periph_clk>:
 * \retval 0 Success.
 * \retval 1 Invalid parameter.
 */
uint32_t pmc_enable_periph_clk(uint32_t ul_id)
{
	if (ul_id > MAX_PERIPH_ID) {
  401300:	283f      	cmp	r0, #63	; 0x3f
  401302:	d81e      	bhi.n	401342 <pmc_enable_periph_clk+0x42>
		return 1;
	}

	if (ul_id < 32) {
  401304:	281f      	cmp	r0, #31
  401306:	d80c      	bhi.n	401322 <pmc_enable_periph_clk+0x22>
		if ((PMC->PMC_PCSR0 & (1u << ul_id)) != (1u << ul_id)) {
  401308:	4b11      	ldr	r3, [pc, #68]	; (401350 <pmc_enable_periph_clk+0x50>)
  40130a:	699a      	ldr	r2, [r3, #24]
  40130c:	2301      	movs	r3, #1
  40130e:	4083      	lsls	r3, r0
  401310:	4393      	bics	r3, r2
  401312:	d018      	beq.n	401346 <pmc_enable_periph_clk+0x46>
			PMC->PMC_PCER0 = 1 << ul_id;
  401314:	2301      	movs	r3, #1
  401316:	fa03 f000 	lsl.w	r0, r3, r0
  40131a:	4b0d      	ldr	r3, [pc, #52]	; (401350 <pmc_enable_periph_clk+0x50>)
  40131c:	6118      	str	r0, [r3, #16]
			PMC->PMC_PCER1 = 1 << ul_id;
		}
#endif
	}

	return 0;
  40131e:	2000      	movs	r0, #0
  401320:	4770      	bx	lr
		ul_id -= 32;
  401322:	3820      	subs	r0, #32
		if ((PMC->PMC_PCSR1 & (1u << ul_id)) != (1u << ul_id)) {
  401324:	4b0a      	ldr	r3, [pc, #40]	; (401350 <pmc_enable_periph_clk+0x50>)
  401326:	f8d3 2108 	ldr.w	r2, [r3, #264]	; 0x108
  40132a:	2301      	movs	r3, #1
  40132c:	4083      	lsls	r3, r0
  40132e:	4393      	bics	r3, r2
  401330:	d00b      	beq.n	40134a <pmc_enable_periph_clk+0x4a>
			PMC->PMC_PCER1 = 1 << ul_id;
  401332:	2301      	movs	r3, #1
  401334:	fa03 f000 	lsl.w	r0, r3, r0
  401338:	4b05      	ldr	r3, [pc, #20]	; (401350 <pmc_enable_periph_clk+0x50>)
  40133a:	f8c3 0100 	str.w	r0, [r3, #256]	; 0x100
	return 0;
  40133e:	2000      	movs	r0, #0
  401340:	4770      	bx	lr
		return 1;
  401342:	2001      	movs	r0, #1
  401344:	4770      	bx	lr
	return 0;
  401346:	2000      	movs	r0, #0
  401348:	4770      	bx	lr
  40134a:	2000      	movs	r0, #0
}
  40134c:	4770      	bx	lr
  40134e:	bf00      	nop
  401350:	400e0600 	.word	0x400e0600

00401354 <spi_enable_clock>:
 * \brief Enable SPI clock.
 *
 * \param p_spi Pointer to an SPI instance.
 */
void spi_enable_clock(Spi *p_spi)
{
  401354:	b508      	push	{r3, lr}
#if (SAM4S || SAM3S || SAM3N || SAM3U || SAM4E || SAM4N || SAMG51|| SAMG53|| SAMG54)
	UNUSED(p_spi);
	sysclk_enable_peripheral_clock(ID_SPI);
#elif (SAM3XA || SAM4C || SAM4CP || SAM4CM || SAMV71 || SAMV70 || SAME70 || SAMS70)
	if (p_spi == SPI0) {
  401356:	4b07      	ldr	r3, [pc, #28]	; (401374 <spi_enable_clock+0x20>)
  401358:	4298      	cmp	r0, r3
  40135a:	d003      	beq.n	401364 <spi_enable_clock+0x10>
		sysclk_enable_peripheral_clock(ID_SPI0);
	}
	#ifdef SPI1
	else if (p_spi == SPI1) {
  40135c:	4b06      	ldr	r3, [pc, #24]	; (401378 <spi_enable_clock+0x24>)
  40135e:	4298      	cmp	r0, r3
  401360:	d004      	beq.n	40136c <spi_enable_clock+0x18>
  401362:	bd08      	pop	{r3, pc}
  401364:	2015      	movs	r0, #21
  401366:	4b05      	ldr	r3, [pc, #20]	; (40137c <spi_enable_clock+0x28>)
  401368:	4798      	blx	r3
  40136a:	bd08      	pop	{r3, pc}
  40136c:	202a      	movs	r0, #42	; 0x2a
  40136e:	4b03      	ldr	r3, [pc, #12]	; (40137c <spi_enable_clock+0x28>)
  401370:	4798      	blx	r3
	}
	#endif
#elif SAM4L
	sysclk_enable_peripheral_clock(p_spi);
#endif
}
  401372:	e7f6      	b.n	401362 <spi_enable_clock+0xe>
  401374:	40008000 	.word	0x40008000
  401378:	40058000 	.word	0x40058000
  40137c:	00401301 	.word	0x00401301

00401380 <spi_set_peripheral_chip_select_value>:
 *                 \ref spi_enable_peripheral_select_decode,
 *                 \ref spi_disable_peripheral_select_decode.
 */
void spi_set_peripheral_chip_select_value(Spi *p_spi, uint32_t ul_value)
{
	p_spi->SPI_MR &= (~SPI_MR_PCS_Msk);
  401380:	6843      	ldr	r3, [r0, #4]
  401382:	f423 2370 	bic.w	r3, r3, #983040	; 0xf0000
  401386:	6043      	str	r3, [r0, #4]
	p_spi->SPI_MR |= SPI_MR_PCS(ul_value);
  401388:	6843      	ldr	r3, [r0, #4]
  40138a:	0409      	lsls	r1, r1, #16
  40138c:	f401 2170 	and.w	r1, r1, #983040	; 0xf0000
  401390:	4319      	orrs	r1, r3
  401392:	6041      	str	r1, [r0, #4]
  401394:	4770      	bx	lr

00401396 <spi_set_delay_between_chip_select>:
 * \param p_spi Pointer to an SPI instance.
 * \param ul_delay Delay between chip selects (in number of MCK clocks).
 */
void spi_set_delay_between_chip_select(Spi *p_spi, uint32_t ul_delay)
{
	p_spi->SPI_MR &= (~SPI_MR_DLYBCS_Msk);
  401396:	6843      	ldr	r3, [r0, #4]
  401398:	f023 437f 	bic.w	r3, r3, #4278190080	; 0xff000000
  40139c:	6043      	str	r3, [r0, #4]
	p_spi->SPI_MR |= SPI_MR_DLYBCS(ul_delay);
  40139e:	6843      	ldr	r3, [r0, #4]
  4013a0:	ea43 6101 	orr.w	r1, r3, r1, lsl #24
  4013a4:	6041      	str	r1, [r0, #4]
  4013a6:	4770      	bx	lr

004013a8 <spi_write>:
 * \retval SPI_OK on Success.
 * \retval SPI_ERROR_TIMEOUT on Time-out.
 */
spi_status_t spi_write(Spi *p_spi, uint16_t us_data,
		uint8_t uc_pcs, uint8_t uc_last)
{
  4013a8:	b430      	push	{r4, r5}
	uint32_t timeout = SPI_TIMEOUT;
	uint32_t value;

	while (!(p_spi->SPI_SR & SPI_SR_TDRE)) {
  4013aa:	f643 2499 	movw	r4, #15001	; 0x3a99
  4013ae:	6905      	ldr	r5, [r0, #16]
  4013b0:	f015 0f02 	tst.w	r5, #2
  4013b4:	d103      	bne.n	4013be <spi_write+0x16>
		if (!timeout--) {
  4013b6:	3c01      	subs	r4, #1
  4013b8:	d1f9      	bne.n	4013ae <spi_write+0x6>
			return SPI_ERROR_TIMEOUT;
  4013ba:	2001      	movs	r0, #1
  4013bc:	e00c      	b.n	4013d8 <spi_write+0x30>
	if (p_spi->SPI_MR & SPI_MR_PS) {
  4013be:	6844      	ldr	r4, [r0, #4]
		}
	}

	if (spi_get_peripheral_select_mode(p_spi)) {
  4013c0:	f014 0f02 	tst.w	r4, #2
  4013c4:	d006      	beq.n	4013d4 <spi_write+0x2c>
		value = SPI_TDR_TD(us_data) | SPI_TDR_PCS(uc_pcs);
  4013c6:	0412      	lsls	r2, r2, #16
  4013c8:	f402 2270 	and.w	r2, r2, #983040	; 0xf0000
  4013cc:	4311      	orrs	r1, r2
		if (uc_last) {
  4013ce:	b10b      	cbz	r3, 4013d4 <spi_write+0x2c>
			value |= SPI_TDR_LASTXFER;
  4013d0:	f041 7180 	orr.w	r1, r1, #16777216	; 0x1000000
		}
	} else {
		value = SPI_TDR_TD(us_data);
	}

	p_spi->SPI_TDR = value;
  4013d4:	60c1      	str	r1, [r0, #12]

	return SPI_OK;
  4013d6:	2000      	movs	r0, #0
}
  4013d8:	bc30      	pop	{r4, r5}
  4013da:	4770      	bx	lr

004013dc <spi_set_clock_polarity>:
 * \param ul_polarity Default clock state is logical one(high)/zero(low).
 */
void spi_set_clock_polarity(Spi *p_spi, uint32_t ul_pcs_ch,
		uint32_t ul_polarity)
{
	if (ul_polarity) {
  4013dc:	b932      	cbnz	r2, 4013ec <spi_set_clock_polarity+0x10>
  4013de:	eb00 0081 	add.w	r0, r0, r1, lsl #2
		p_spi->SPI_CSR[ul_pcs_ch] |= SPI_CSR_CPOL;
	} else {
		p_spi->SPI_CSR[ul_pcs_ch] &= (~SPI_CSR_CPOL);
  4013e2:	6b03      	ldr	r3, [r0, #48]	; 0x30
  4013e4:	f023 0301 	bic.w	r3, r3, #1
  4013e8:	6303      	str	r3, [r0, #48]	; 0x30
  4013ea:	4770      	bx	lr
  4013ec:	eb00 0081 	add.w	r0, r0, r1, lsl #2
		p_spi->SPI_CSR[ul_pcs_ch] |= SPI_CSR_CPOL;
  4013f0:	6b03      	ldr	r3, [r0, #48]	; 0x30
  4013f2:	f043 0301 	orr.w	r3, r3, #1
  4013f6:	6303      	str	r3, [r0, #48]	; 0x30
  4013f8:	4770      	bx	lr

004013fa <spi_set_clock_phase>:
 *  \param ul_pcs_ch Peripheral Chip Select channel (0~3).
 *  \param ul_phase Data capture on the rising/falling edge of clock.
 */
void spi_set_clock_phase(Spi *p_spi, uint32_t ul_pcs_ch, uint32_t ul_phase)
{
	if (ul_phase) {
  4013fa:	b932      	cbnz	r2, 40140a <spi_set_clock_phase+0x10>
  4013fc:	eb00 0081 	add.w	r0, r0, r1, lsl #2
		p_spi->SPI_CSR[ul_pcs_ch] |= SPI_CSR_NCPHA;
	} else {
		p_spi->SPI_CSR[ul_pcs_ch] &= (~SPI_CSR_NCPHA);
  401400:	6b03      	ldr	r3, [r0, #48]	; 0x30
  401402:	f023 0302 	bic.w	r3, r3, #2
  401406:	6303      	str	r3, [r0, #48]	; 0x30
  401408:	4770      	bx	lr
  40140a:	eb00 0081 	add.w	r0, r0, r1, lsl #2
		p_spi->SPI_CSR[ul_pcs_ch] |= SPI_CSR_NCPHA;
  40140e:	6b03      	ldr	r3, [r0, #48]	; 0x30
  401410:	f043 0302 	orr.w	r3, r3, #2
  401414:	6303      	str	r3, [r0, #48]	; 0x30
  401416:	4770      	bx	lr

00401418 <spi_configure_cs_behavior>:
 * \param ul_cs_behavior Behavior of the Chip Select after transfer.
 */
void spi_configure_cs_behavior(Spi *p_spi, uint32_t ul_pcs_ch,
		uint32_t ul_cs_behavior)
{
	if (ul_cs_behavior == SPI_CS_RISE_FORCED) {
  401418:	2a04      	cmp	r2, #4
  40141a:	d003      	beq.n	401424 <spi_configure_cs_behavior+0xc>
		p_spi->SPI_CSR[ul_pcs_ch] &= (~SPI_CSR_CSAAT);
		p_spi->SPI_CSR[ul_pcs_ch] |= SPI_CSR_CSNAAT;
	} else if (ul_cs_behavior == SPI_CS_RISE_NO_TX) {
  40141c:	b16a      	cbz	r2, 40143a <spi_configure_cs_behavior+0x22>
		p_spi->SPI_CSR[ul_pcs_ch] &= (~SPI_CSR_CSAAT);
		p_spi->SPI_CSR[ul_pcs_ch] &= (~SPI_CSR_CSNAAT);
	} else if (ul_cs_behavior == SPI_CS_KEEP_LOW) {
  40141e:	2a08      	cmp	r2, #8
  401420:	d016      	beq.n	401450 <spi_configure_cs_behavior+0x38>
  401422:	4770      	bx	lr
  401424:	eb00 0081 	add.w	r0, r0, r1, lsl #2
		p_spi->SPI_CSR[ul_pcs_ch] &= (~SPI_CSR_CSAAT);
  401428:	6b03      	ldr	r3, [r0, #48]	; 0x30
  40142a:	f023 0308 	bic.w	r3, r3, #8
  40142e:	6303      	str	r3, [r0, #48]	; 0x30
		p_spi->SPI_CSR[ul_pcs_ch] |= SPI_CSR_CSNAAT;
  401430:	6b03      	ldr	r3, [r0, #48]	; 0x30
  401432:	f043 0304 	orr.w	r3, r3, #4
  401436:	6303      	str	r3, [r0, #48]	; 0x30
  401438:	4770      	bx	lr
  40143a:	eb00 0081 	add.w	r0, r0, r1, lsl #2
		p_spi->SPI_CSR[ul_pcs_ch] &= (~SPI_CSR_CSAAT);
  40143e:	6b03      	ldr	r3, [r0, #48]	; 0x30
  401440:	f023 0308 	bic.w	r3, r3, #8
  401444:	6303      	str	r3, [r0, #48]	; 0x30
		p_spi->SPI_CSR[ul_pcs_ch] &= (~SPI_CSR_CSNAAT);
  401446:	6b03      	ldr	r3, [r0, #48]	; 0x30
  401448:	f023 0304 	bic.w	r3, r3, #4
  40144c:	6303      	str	r3, [r0, #48]	; 0x30
  40144e:	4770      	bx	lr
  401450:	eb00 0081 	add.w	r0, r0, r1, lsl #2
		p_spi->SPI_CSR[ul_pcs_ch] |= SPI_CSR_CSAAT;
  401454:	6b03      	ldr	r3, [r0, #48]	; 0x30
  401456:	f043 0308 	orr.w	r3, r3, #8
  40145a:	6303      	str	r3, [r0, #48]	; 0x30
	}
}
  40145c:	e7e1      	b.n	401422 <spi_configure_cs_behavior+0xa>

0040145e <spi_set_bits_per_transfer>:
 * \param ul_bits Number of bits (8~16), use the pattern defined
 *        in the device header file.
 */
void spi_set_bits_per_transfer(Spi *p_spi, uint32_t ul_pcs_ch,
		uint32_t ul_bits)
{
  40145e:	eb00 0181 	add.w	r1, r0, r1, lsl #2
	p_spi->SPI_CSR[ul_pcs_ch] &= (~SPI_CSR_BITS_Msk);
  401462:	6b0b      	ldr	r3, [r1, #48]	; 0x30
  401464:	f023 03f0 	bic.w	r3, r3, #240	; 0xf0
  401468:	630b      	str	r3, [r1, #48]	; 0x30
	p_spi->SPI_CSR[ul_pcs_ch] |= ul_bits;
  40146a:	6b0b      	ldr	r3, [r1, #48]	; 0x30
  40146c:	431a      	orrs	r2, r3
  40146e:	630a      	str	r2, [r1, #48]	; 0x30
  401470:	4770      	bx	lr

00401472 <spi_calc_baudrate_div>:
 *   \retval > 0  Success.
 *   \retval < 0  Error.
 */
int16_t spi_calc_baudrate_div(const uint32_t baudrate, uint32_t mck)
{
	int baud_div = div_ceil(mck, baudrate);
  401472:	1e43      	subs	r3, r0, #1
  401474:	4419      	add	r1, r3
  401476:	fbb1 f0f0 	udiv	r0, r1, r0

	/* The value of baud_div is from 1 to 255 in the SCBR field. */
	if (baud_div <= 0 || baud_div > 255) {
  40147a:	1e43      	subs	r3, r0, #1
  40147c:	2bfe      	cmp	r3, #254	; 0xfe
		return -1;
	}

	return baud_div;
  40147e:	bf94      	ite	ls
  401480:	b200      	sxthls	r0, r0
		return -1;
  401482:	f04f 30ff 	movhi.w	r0, #4294967295
}
  401486:	4770      	bx	lr

00401488 <spi_set_baudrate_div>:
 */
int16_t spi_set_baudrate_div(Spi *p_spi, uint32_t ul_pcs_ch,
		uint8_t uc_baudrate_divider)
{
    /* Programming the SCBR field to 0 is forbidden */
    if (!uc_baudrate_divider)
  401488:	b17a      	cbz	r2, 4014aa <spi_set_baudrate_div+0x22>
{
  40148a:	b410      	push	{r4}
  40148c:	4614      	mov	r4, r2
  40148e:	eb00 0181 	add.w	r1, r0, r1, lsl #2
        return -1;

	p_spi->SPI_CSR[ul_pcs_ch] &= (~SPI_CSR_SCBR_Msk);
  401492:	6b0b      	ldr	r3, [r1, #48]	; 0x30
  401494:	f423 437f 	bic.w	r3, r3, #65280	; 0xff00
  401498:	630b      	str	r3, [r1, #48]	; 0x30
	p_spi->SPI_CSR[ul_pcs_ch] |= SPI_CSR_SCBR(uc_baudrate_divider);
  40149a:	6b0a      	ldr	r2, [r1, #48]	; 0x30
  40149c:	ea42 2204 	orr.w	r2, r2, r4, lsl #8
  4014a0:	630a      	str	r2, [r1, #48]	; 0x30
    return 0;
  4014a2:	2000      	movs	r0, #0
}
  4014a4:	f85d 4b04 	ldr.w	r4, [sp], #4
  4014a8:	4770      	bx	lr
        return -1;
  4014aa:	f04f 30ff 	mov.w	r0, #4294967295
  4014ae:	4770      	bx	lr

004014b0 <spi_set_transfer_delay>:
 * \param uc_dlybs Delay before SPCK (in number of MCK clocks).
 * \param uc_dlybct Delay between consecutive transfers (in number of MCK clocks).
 */
void spi_set_transfer_delay(Spi *p_spi, uint32_t ul_pcs_ch,
		uint8_t uc_dlybs, uint8_t uc_dlybct)
{
  4014b0:	b410      	push	{r4}
  4014b2:	eb00 0181 	add.w	r1, r0, r1, lsl #2
	p_spi->SPI_CSR[ul_pcs_ch] &= ~(SPI_CSR_DLYBS_Msk | SPI_CSR_DLYBCT_Msk);
  4014b6:	6b08      	ldr	r0, [r1, #48]	; 0x30
  4014b8:	b280      	uxth	r0, r0
  4014ba:	6308      	str	r0, [r1, #48]	; 0x30
	p_spi->SPI_CSR[ul_pcs_ch] |= SPI_CSR_DLYBS(uc_dlybs)
  4014bc:	6b0c      	ldr	r4, [r1, #48]	; 0x30
  4014be:	ea44 6303 	orr.w	r3, r4, r3, lsl #24
  4014c2:	ea43 4302 	orr.w	r3, r3, r2, lsl #16
  4014c6:	630b      	str	r3, [r1, #48]	; 0x30
			| SPI_CSR_DLYBCT(uc_dlybct);
}
  4014c8:	f85d 4b04 	ldr.w	r4, [sp], #4
  4014cc:	4770      	bx	lr

004014ce <uart_write>:
 * \retval 1 I/O Failure, UART is not ready.
 */
uint32_t uart_write(Uart *p_uart, const uint8_t uc_data)
{
	/* Check if the transmitter is ready */
	if (!(p_uart->UART_SR & UART_SR_TXRDY))
  4014ce:	6943      	ldr	r3, [r0, #20]
  4014d0:	f013 0f02 	tst.w	r3, #2
  4014d4:	d002      	beq.n	4014dc <uart_write+0xe>
		return 1;

	/* Send character */
	p_uart->UART_THR = uc_data;
  4014d6:	61c1      	str	r1, [r0, #28]
	return 0;
  4014d8:	2000      	movs	r0, #0
  4014da:	4770      	bx	lr
		return 1;
  4014dc:	2001      	movs	r0, #1
}
  4014de:	4770      	bx	lr

004014e0 <uart_read>:
 * \retval 1 I/O Failure, UART is not ready.
 */
uint32_t uart_read(Uart *p_uart, uint8_t *puc_data)
{
	/* Check if the receiver is ready */
	if ((p_uart->UART_SR & UART_SR_RXRDY) == 0)
  4014e0:	6943      	ldr	r3, [r0, #20]
  4014e2:	f013 0f01 	tst.w	r3, #1
  4014e6:	d003      	beq.n	4014f0 <uart_read+0x10>
		return 1;

	/* Read character */
	*puc_data = (uint8_t) p_uart->UART_RHR;
  4014e8:	6983      	ldr	r3, [r0, #24]
  4014ea:	700b      	strb	r3, [r1, #0]
	return 0;
  4014ec:	2000      	movs	r0, #0
  4014ee:	4770      	bx	lr
		return 1;
  4014f0:	2001      	movs	r0, #1
}
  4014f2:	4770      	bx	lr

004014f4 <usart_set_async_baudrate>:
 * \retval 1 Baud rate set point is out of range for the given input clock
 * frequency.
 */
uint32_t usart_set_async_baudrate(Usart *p_usart,
		uint32_t baudrate, uint32_t ul_mck)
{
  4014f4:	b410      	push	{r4}
	uint32_t cd_fp;
	uint32_t cd;
	uint32_t fp;

	/* Calculate the receiver sampling divide of baudrate clock. */
	if (ul_mck >= HIGH_FRQ_SAMPLE_DIV * baudrate) {
  4014f6:	010b      	lsls	r3, r1, #4
  4014f8:	4293      	cmp	r3, r2
  4014fa:	d914      	bls.n	401526 <usart_set_async_baudrate+0x32>
	} else {
		over = LOW_FRQ_SAMPLE_DIV;
	}

	/* Calculate clock divider according to the fraction calculated formula. */
	cd_fp = (8 * ul_mck + (over * baudrate) / 2) / (over * baudrate);
  4014fc:	00c9      	lsls	r1, r1, #3
  4014fe:	084b      	lsrs	r3, r1, #1
  401500:	eb03 02c2 	add.w	r2, r3, r2, lsl #3
  401504:	fbb2 f2f1 	udiv	r2, r2, r1
	cd = cd_fp >> 3;
  401508:	08d3      	lsrs	r3, r2, #3
	fp = cd_fp & 0x07;
	if (cd < MIN_CD_VALUE || cd > MAX_CD_VALUE) {
  40150a:	1e5c      	subs	r4, r3, #1
  40150c:	f64f 71fe 	movw	r1, #65534	; 0xfffe
  401510:	428c      	cmp	r4, r1
  401512:	d901      	bls.n	401518 <usart_set_async_baudrate+0x24>
		return 1;
  401514:	2001      	movs	r0, #1
  401516:	e017      	b.n	401548 <usart_set_async_baudrate+0x54>
	}

	/* Configure the OVER bit in MR register. */
	if (over == 8) {
		p_usart->US_MR |= US_MR_OVER;
  401518:	6841      	ldr	r1, [r0, #4]
  40151a:	f441 2100 	orr.w	r1, r1, #524288	; 0x80000
  40151e:	6041      	str	r1, [r0, #4]
  401520:	e00c      	b.n	40153c <usart_set_async_baudrate+0x48>
		return 1;
  401522:	2001      	movs	r0, #1
  401524:	e010      	b.n	401548 <usart_set_async_baudrate+0x54>
	cd_fp = (8 * ul_mck + (over * baudrate) / 2) / (over * baudrate);
  401526:	0859      	lsrs	r1, r3, #1
  401528:	eb01 02c2 	add.w	r2, r1, r2, lsl #3
  40152c:	fbb2 f2f3 	udiv	r2, r2, r3
	cd = cd_fp >> 3;
  401530:	08d3      	lsrs	r3, r2, #3
	if (cd < MIN_CD_VALUE || cd > MAX_CD_VALUE) {
  401532:	1e5c      	subs	r4, r3, #1
  401534:	f64f 71fe 	movw	r1, #65534	; 0xfffe
  401538:	428c      	cmp	r4, r1
  40153a:	d8f2      	bhi.n	401522 <usart_set_async_baudrate+0x2e>
	}

	/* Configure the baudrate generate register. */
	p_usart->US_BRGR = (cd << US_BRGR_CD_Pos) | (fp << US_BRGR_FP_Pos);
  40153c:	0412      	lsls	r2, r2, #16
  40153e:	f402 22e0 	and.w	r2, r2, #458752	; 0x70000
  401542:	431a      	orrs	r2, r3
  401544:	6202      	str	r2, [r0, #32]

	return 0;
  401546:	2000      	movs	r0, #0
}
  401548:	f85d 4b04 	ldr.w	r4, [sp], #4
  40154c:	4770      	bx	lr
	...

00401550 <usart_reset>:
 *
 * \param p_usart Pointer to a USART instance.
 */
void usart_disable_writeprotect(Usart *p_usart)
{
	p_usart->US_WPMR = US_WPMR_WPKEY_PASSWD;
  401550:	4b08      	ldr	r3, [pc, #32]	; (401574 <usart_reset+0x24>)
  401552:	f8c0 30e4 	str.w	r3, [r0, #228]	; 0xe4
	p_usart->US_MR = 0;
  401556:	2300      	movs	r3, #0
  401558:	6043      	str	r3, [r0, #4]
	p_usart->US_RTOR = 0;
  40155a:	6243      	str	r3, [r0, #36]	; 0x24
	p_usart->US_TTGR = 0;
  40155c:	6283      	str	r3, [r0, #40]	; 0x28
	p_usart->US_CR = US_CR_RSTTX | US_CR_TXDIS;
  40155e:	2388      	movs	r3, #136	; 0x88
  401560:	6003      	str	r3, [r0, #0]
	p_usart->US_CR = US_CR_RSTRX | US_CR_RXDIS;
  401562:	2324      	movs	r3, #36	; 0x24
  401564:	6003      	str	r3, [r0, #0]
	p_usart->US_CR = US_CR_RSTSTA;
  401566:	f44f 7380 	mov.w	r3, #256	; 0x100
  40156a:	6003      	str	r3, [r0, #0]
	p_usart->US_CR = US_CR_RTSDIS;
  40156c:	f44f 2300 	mov.w	r3, #524288	; 0x80000
  401570:	6003      	str	r3, [r0, #0]
  401572:	4770      	bx	lr
  401574:	55534100 	.word	0x55534100

00401578 <usart_init_rs232>:
{
  401578:	b570      	push	{r4, r5, r6, lr}
  40157a:	4605      	mov	r5, r0
  40157c:	460c      	mov	r4, r1
  40157e:	4616      	mov	r6, r2
	usart_reset(p_usart);
  401580:	4b0f      	ldr	r3, [pc, #60]	; (4015c0 <usart_init_rs232+0x48>)
  401582:	4798      	blx	r3
	ul_reg_val = 0;
  401584:	2200      	movs	r2, #0
  401586:	4b0f      	ldr	r3, [pc, #60]	; (4015c4 <usart_init_rs232+0x4c>)
  401588:	601a      	str	r2, [r3, #0]
	if (!p_usart_opt || usart_set_async_baudrate(p_usart,
  40158a:	b1a4      	cbz	r4, 4015b6 <usart_init_rs232+0x3e>
  40158c:	4632      	mov	r2, r6
  40158e:	6821      	ldr	r1, [r4, #0]
  401590:	4628      	mov	r0, r5
  401592:	4b0d      	ldr	r3, [pc, #52]	; (4015c8 <usart_init_rs232+0x50>)
  401594:	4798      	blx	r3
  401596:	4602      	mov	r2, r0
  401598:	b978      	cbnz	r0, 4015ba <usart_init_rs232+0x42>
	ul_reg_val |= p_usart_opt->char_length | p_usart_opt->parity_type |
  40159a:	6863      	ldr	r3, [r4, #4]
  40159c:	68a1      	ldr	r1, [r4, #8]
  40159e:	430b      	orrs	r3, r1
  4015a0:	6921      	ldr	r1, [r4, #16]
  4015a2:	430b      	orrs	r3, r1
			p_usart_opt->channel_mode | p_usart_opt->stop_bits;
  4015a4:	68e1      	ldr	r1, [r4, #12]
  4015a6:	430b      	orrs	r3, r1
	ul_reg_val |= p_usart_opt->char_length | p_usart_opt->parity_type |
  4015a8:	4906      	ldr	r1, [pc, #24]	; (4015c4 <usart_init_rs232+0x4c>)
  4015aa:	600b      	str	r3, [r1, #0]
	p_usart->US_MR |= ul_reg_val;
  4015ac:	6869      	ldr	r1, [r5, #4]
  4015ae:	430b      	orrs	r3, r1
  4015b0:	606b      	str	r3, [r5, #4]
}
  4015b2:	4610      	mov	r0, r2
  4015b4:	bd70      	pop	{r4, r5, r6, pc}
		return 1;
  4015b6:	2201      	movs	r2, #1
  4015b8:	e7fb      	b.n	4015b2 <usart_init_rs232+0x3a>
  4015ba:	2201      	movs	r2, #1
  4015bc:	e7f9      	b.n	4015b2 <usart_init_rs232+0x3a>
  4015be:	bf00      	nop
  4015c0:	00401551 	.word	0x00401551
  4015c4:	20400e00 	.word	0x20400e00
  4015c8:	004014f5 	.word	0x004014f5

004015cc <usart_enable_tx>:
	p_usart->US_CR = US_CR_TXEN;
  4015cc:	2340      	movs	r3, #64	; 0x40
  4015ce:	6003      	str	r3, [r0, #0]
  4015d0:	4770      	bx	lr

004015d2 <usart_enable_rx>:
	p_usart->US_CR = US_CR_RXEN;
  4015d2:	2310      	movs	r3, #16
  4015d4:	6003      	str	r3, [r0, #0]
  4015d6:	4770      	bx	lr

004015d8 <usart_write>:
	if (!(p_usart->US_CSR & US_CSR_TXRDY)) {
  4015d8:	6943      	ldr	r3, [r0, #20]
  4015da:	f013 0f02 	tst.w	r3, #2
  4015de:	d004      	beq.n	4015ea <usart_write+0x12>
	p_usart->US_THR = US_THR_TXCHR(c);
  4015e0:	f3c1 0108 	ubfx	r1, r1, #0, #9
  4015e4:	61c1      	str	r1, [r0, #28]
	return 0;
  4015e6:	2000      	movs	r0, #0
  4015e8:	4770      	bx	lr
		return 1;
  4015ea:	2001      	movs	r0, #1
}
  4015ec:	4770      	bx	lr

004015ee <usart_read>:
	if (!(p_usart->US_CSR & US_CSR_RXRDY)) {
  4015ee:	6943      	ldr	r3, [r0, #20]
  4015f0:	f013 0f01 	tst.w	r3, #1
  4015f4:	d005      	beq.n	401602 <usart_read+0x14>
	*c = p_usart->US_RHR & US_RHR_RXCHR_Msk;
  4015f6:	6983      	ldr	r3, [r0, #24]
  4015f8:	f3c3 0308 	ubfx	r3, r3, #0, #9
  4015fc:	600b      	str	r3, [r1, #0]
	return 0;
  4015fe:	2000      	movs	r0, #0
  401600:	4770      	bx	lr
		return 1;
  401602:	2001      	movs	r0, #1
}
  401604:	4770      	bx	lr

00401606 <Dummy_Handler>:

/**
 * \brief Default interrupt handler for unused IRQs.
 */
void Dummy_Handler(void)
{
  401606:	e7fe      	b.n	401606 <Dummy_Handler>

00401608 <Reset_Handler>:
{
  401608:	b500      	push	{lr}
  40160a:	b083      	sub	sp, #12
        if (pSrc != pDest) {
  40160c:	4b25      	ldr	r3, [pc, #148]	; (4016a4 <Reset_Handler+0x9c>)
  40160e:	4a26      	ldr	r2, [pc, #152]	; (4016a8 <Reset_Handler+0xa0>)
  401610:	429a      	cmp	r2, r3
  401612:	d010      	beq.n	401636 <Reset_Handler+0x2e>
                for (; pDest < &_erelocate;) {
  401614:	4b25      	ldr	r3, [pc, #148]	; (4016ac <Reset_Handler+0xa4>)
  401616:	4a23      	ldr	r2, [pc, #140]	; (4016a4 <Reset_Handler+0x9c>)
  401618:	429a      	cmp	r2, r3
  40161a:	d20c      	bcs.n	401636 <Reset_Handler+0x2e>
  40161c:	3b01      	subs	r3, #1
  40161e:	1a9b      	subs	r3, r3, r2
  401620:	f023 0303 	bic.w	r3, r3, #3
  401624:	3304      	adds	r3, #4
  401626:	4413      	add	r3, r2
  401628:	491f      	ldr	r1, [pc, #124]	; (4016a8 <Reset_Handler+0xa0>)
                        *pDest++ = *pSrc++;
  40162a:	f851 0b04 	ldr.w	r0, [r1], #4
  40162e:	f842 0b04 	str.w	r0, [r2], #4
                for (; pDest < &_erelocate;) {
  401632:	429a      	cmp	r2, r3
  401634:	d1f9      	bne.n	40162a <Reset_Handler+0x22>
        for (pDest = &_szero; pDest < &_ezero;) {
  401636:	4b1e      	ldr	r3, [pc, #120]	; (4016b0 <Reset_Handler+0xa8>)
  401638:	4a1e      	ldr	r2, [pc, #120]	; (4016b4 <Reset_Handler+0xac>)
  40163a:	429a      	cmp	r2, r3
  40163c:	d20a      	bcs.n	401654 <Reset_Handler+0x4c>
  40163e:	3b01      	subs	r3, #1
  401640:	1a9b      	subs	r3, r3, r2
  401642:	f023 0303 	bic.w	r3, r3, #3
  401646:	3304      	adds	r3, #4
  401648:	4413      	add	r3, r2
                *pDest++ = 0;
  40164a:	2100      	movs	r1, #0
  40164c:	f842 1b04 	str.w	r1, [r2], #4
        for (pDest = &_szero; pDest < &_ezero;) {
  401650:	4293      	cmp	r3, r2
  401652:	d1fb      	bne.n	40164c <Reset_Handler+0x44>
        SCB->VTOR = ((uint32_t) pSrc & SCB_VTOR_TBLOFF_Msk);
  401654:	4a18      	ldr	r2, [pc, #96]	; (4016b8 <Reset_Handler+0xb0>)
  401656:	4b19      	ldr	r3, [pc, #100]	; (4016bc <Reset_Handler+0xb4>)
  401658:	f023 037f 	bic.w	r3, r3, #127	; 0x7f
  40165c:	6093      	str	r3, [r2, #8]
 */
__attribute__( ( always_inline ) ) __STATIC_INLINE uint32_t __get_PRIMASK(void)
{
  uint32_t result;

  __ASM volatile ("MRS %0, primask" : "=r" (result) );
  40165e:	f3ef 8310 	mrs	r3, PRIMASK
static volatile uint32_t cpu_irq_critical_section_counter;
static volatile bool     cpu_irq_prev_interrupt_state;

static inline irqflags_t cpu_irq_save(void)
{
	volatile irqflags_t flags = cpu_irq_is_enabled();
  401662:	fab3 f383 	clz	r3, r3
  401666:	095b      	lsrs	r3, r3, #5
  401668:	9301      	str	r3, [sp, #4]
  __ASM volatile ("cpsid i" : : : "memory");
  40166a:	b672      	cpsid	i
  __ASM volatile ("dmb");
  40166c:	f3bf 8f5f 	dmb	sy
	cpu_irq_disable();
  401670:	2200      	movs	r2, #0
  401672:	4b13      	ldr	r3, [pc, #76]	; (4016c0 <Reset_Handler+0xb8>)
  401674:	701a      	strb	r2, [r3, #0]
	return flags;
  401676:	9901      	ldr	r1, [sp, #4]
 */
__always_inline static void fpu_enable(void)
{
	irqflags_t flags;
	flags = cpu_irq_save();
	REG_CPACR |=  (0xFu << 20);
  401678:	4a12      	ldr	r2, [pc, #72]	; (4016c4 <Reset_Handler+0xbc>)
  40167a:	6813      	ldr	r3, [r2, #0]
  40167c:	f443 0370 	orr.w	r3, r3, #15728640	; 0xf00000
  401680:	6013      	str	r3, [r2, #0]
  __ASM volatile ("dsb");
  401682:	f3bf 8f4f 	dsb	sy
  __ASM volatile ("isb");
  401686:	f3bf 8f6f 	isb	sy
	return (flags);
}

static inline void cpu_irq_restore(irqflags_t flags)
{
	if (cpu_irq_is_enabled_flags(flags))
  40168a:	b129      	cbz	r1, 401698 <Reset_Handler+0x90>
		cpu_irq_enable();
  40168c:	2201      	movs	r2, #1
  40168e:	4b0c      	ldr	r3, [pc, #48]	; (4016c0 <Reset_Handler+0xb8>)
  401690:	701a      	strb	r2, [r3, #0]
  __ASM volatile ("dmb");
  401692:	f3bf 8f5f 	dmb	sy
  __ASM volatile ("cpsie i" : : : "memory");
  401696:	b662      	cpsie	i
        __libc_init_array();
  401698:	4b0b      	ldr	r3, [pc, #44]	; (4016c8 <Reset_Handler+0xc0>)
  40169a:	4798      	blx	r3
        main();
  40169c:	4b0b      	ldr	r3, [pc, #44]	; (4016cc <Reset_Handler+0xc4>)
  40169e:	4798      	blx	r3
  4016a0:	e7fe      	b.n	4016a0 <Reset_Handler+0x98>
  4016a2:	bf00      	nop
  4016a4:	20400000 	.word	0x20400000
  4016a8:	004235a4 	.word	0x004235a4
  4016ac:	204009b4 	.word	0x204009b4
  4016b0:	20400edc 	.word	0x20400edc
  4016b4:	204009b4 	.word	0x204009b4
  4016b8:	e000ed00 	.word	0xe000ed00
  4016bc:	00400000 	.word	0x00400000
  4016c0:	20400000 	.word	0x20400000
  4016c4:	e000ed88 	.word	0xe000ed88
  4016c8:	00401bed 	.word	0x00401bed
  4016cc:	00401a51 	.word	0x00401a51

004016d0 <SystemCoreClockUpdate>:
}

void SystemCoreClockUpdate( void )
{
  /* Determine clock frequency according to clock register values */
  switch (PMC->PMC_MCKR & (uint32_t) PMC_MCKR_CSS_Msk)
  4016d0:	4b3b      	ldr	r3, [pc, #236]	; (4017c0 <SystemCoreClockUpdate+0xf0>)
  4016d2:	6b1b      	ldr	r3, [r3, #48]	; 0x30
  4016d4:	f003 0303 	and.w	r3, r3, #3
  4016d8:	2b01      	cmp	r3, #1
  4016da:	d01d      	beq.n	401718 <SystemCoreClockUpdate+0x48>
  4016dc:	b183      	cbz	r3, 401700 <SystemCoreClockUpdate+0x30>
  4016de:	2b02      	cmp	r3, #2
  4016e0:	d036      	beq.n	401750 <SystemCoreClockUpdate+0x80>

    default:
    break;
  }

  if ( (PMC->PMC_MCKR & PMC_MCKR_PRES_Msk) == PMC_MCKR_PRES_CLK_3 )
  4016e2:	4b37      	ldr	r3, [pc, #220]	; (4017c0 <SystemCoreClockUpdate+0xf0>)
  4016e4:	6b1b      	ldr	r3, [r3, #48]	; 0x30
  4016e6:	f003 0370 	and.w	r3, r3, #112	; 0x70
  4016ea:	2b70      	cmp	r3, #112	; 0x70
  4016ec:	d05f      	beq.n	4017ae <SystemCoreClockUpdate+0xde>
  {
    SystemCoreClock /= 3U;
  }
  else
  {
    SystemCoreClock >>= ((PMC->PMC_MCKR & PMC_MCKR_PRES_Msk) >> PMC_MCKR_PRES_Pos);
  4016ee:	4b34      	ldr	r3, [pc, #208]	; (4017c0 <SystemCoreClockUpdate+0xf0>)
  4016f0:	6b1a      	ldr	r2, [r3, #48]	; 0x30
  4016f2:	4934      	ldr	r1, [pc, #208]	; (4017c4 <SystemCoreClockUpdate+0xf4>)
  4016f4:	f3c2 1202 	ubfx	r2, r2, #4, #3
  4016f8:	680b      	ldr	r3, [r1, #0]
  4016fa:	40d3      	lsrs	r3, r2
  4016fc:	600b      	str	r3, [r1, #0]
  4016fe:	4770      	bx	lr
      if ( SUPC->SUPC_SR & SUPC_SR_OSCSEL )
  401700:	4b31      	ldr	r3, [pc, #196]	; (4017c8 <SystemCoreClockUpdate+0xf8>)
  401702:	695b      	ldr	r3, [r3, #20]
  401704:	f013 0f80 	tst.w	r3, #128	; 0x80
        SystemCoreClock = CHIP_FREQ_XTAL_32K;
  401708:	bf14      	ite	ne
  40170a:	f44f 4200 	movne.w	r2, #32768	; 0x8000
        SystemCoreClock = CHIP_FREQ_SLCK_RC;
  40170e:	f44f 42fa 	moveq.w	r2, #32000	; 0x7d00
  401712:	4b2c      	ldr	r3, [pc, #176]	; (4017c4 <SystemCoreClockUpdate+0xf4>)
  401714:	601a      	str	r2, [r3, #0]
  401716:	e7e4      	b.n	4016e2 <SystemCoreClockUpdate+0x12>
      if ( PMC->CKGR_MOR & CKGR_MOR_MOSCSEL )
  401718:	4b29      	ldr	r3, [pc, #164]	; (4017c0 <SystemCoreClockUpdate+0xf0>)
  40171a:	6a1b      	ldr	r3, [r3, #32]
  40171c:	f013 7f80 	tst.w	r3, #16777216	; 0x1000000
  401720:	d003      	beq.n	40172a <SystemCoreClockUpdate+0x5a>
        SystemCoreClock = CHIP_FREQ_XTAL_12M;
  401722:	4a2a      	ldr	r2, [pc, #168]	; (4017cc <SystemCoreClockUpdate+0xfc>)
  401724:	4b27      	ldr	r3, [pc, #156]	; (4017c4 <SystemCoreClockUpdate+0xf4>)
  401726:	601a      	str	r2, [r3, #0]
  401728:	e7db      	b.n	4016e2 <SystemCoreClockUpdate+0x12>
        SystemCoreClock = CHIP_FREQ_MAINCK_RC_4MHZ;
  40172a:	4a29      	ldr	r2, [pc, #164]	; (4017d0 <SystemCoreClockUpdate+0x100>)
  40172c:	4b25      	ldr	r3, [pc, #148]	; (4017c4 <SystemCoreClockUpdate+0xf4>)
  40172e:	601a      	str	r2, [r3, #0]
        switch ( PMC->CKGR_MOR & CKGR_MOR_MOSCRCF_Msk )
  401730:	4b23      	ldr	r3, [pc, #140]	; (4017c0 <SystemCoreClockUpdate+0xf0>)
  401732:	6a1b      	ldr	r3, [r3, #32]
  401734:	f003 0370 	and.w	r3, r3, #112	; 0x70
  401738:	2b10      	cmp	r3, #16
  40173a:	d005      	beq.n	401748 <SystemCoreClockUpdate+0x78>
  40173c:	2b20      	cmp	r3, #32
  40173e:	d1d0      	bne.n	4016e2 <SystemCoreClockUpdate+0x12>
            SystemCoreClock *= 3U;
  401740:	4a22      	ldr	r2, [pc, #136]	; (4017cc <SystemCoreClockUpdate+0xfc>)
  401742:	4b20      	ldr	r3, [pc, #128]	; (4017c4 <SystemCoreClockUpdate+0xf4>)
  401744:	601a      	str	r2, [r3, #0]
          break;
  401746:	e7cc      	b.n	4016e2 <SystemCoreClockUpdate+0x12>
            SystemCoreClock *= 2U;
  401748:	4a22      	ldr	r2, [pc, #136]	; (4017d4 <SystemCoreClockUpdate+0x104>)
  40174a:	4b1e      	ldr	r3, [pc, #120]	; (4017c4 <SystemCoreClockUpdate+0xf4>)
  40174c:	601a      	str	r2, [r3, #0]
          break;
  40174e:	e7c8      	b.n	4016e2 <SystemCoreClockUpdate+0x12>
      if ( PMC->CKGR_MOR & CKGR_MOR_MOSCSEL )
  401750:	4b1b      	ldr	r3, [pc, #108]	; (4017c0 <SystemCoreClockUpdate+0xf0>)
  401752:	6a1b      	ldr	r3, [r3, #32]
  401754:	f013 7f80 	tst.w	r3, #16777216	; 0x1000000
  401758:	d016      	beq.n	401788 <SystemCoreClockUpdate+0xb8>
        SystemCoreClock = CHIP_FREQ_XTAL_12M ;
  40175a:	4a1c      	ldr	r2, [pc, #112]	; (4017cc <SystemCoreClockUpdate+0xfc>)
  40175c:	4b19      	ldr	r3, [pc, #100]	; (4017c4 <SystemCoreClockUpdate+0xf4>)
  40175e:	601a      	str	r2, [r3, #0]
      if ( (uint32_t) (PMC->PMC_MCKR & (uint32_t) PMC_MCKR_CSS_Msk) == PMC_MCKR_CSS_PLLA_CLK )
  401760:	4b17      	ldr	r3, [pc, #92]	; (4017c0 <SystemCoreClockUpdate+0xf0>)
  401762:	6b1b      	ldr	r3, [r3, #48]	; 0x30
  401764:	f003 0303 	and.w	r3, r3, #3
  401768:	2b02      	cmp	r3, #2
  40176a:	d1ba      	bne.n	4016e2 <SystemCoreClockUpdate+0x12>
        SystemCoreClock *= ((((PMC->CKGR_PLLAR) & CKGR_PLLAR_MULA_Msk) >> CKGR_PLLAR_MULA_Pos) + 1U);
  40176c:	4a14      	ldr	r2, [pc, #80]	; (4017c0 <SystemCoreClockUpdate+0xf0>)
  40176e:	6a91      	ldr	r1, [r2, #40]	; 0x28
        SystemCoreClock /= ((((PMC->CKGR_PLLAR) & CKGR_PLLAR_DIVA_Msk) >> CKGR_PLLAR_DIVA_Pos));
  401770:	6a92      	ldr	r2, [r2, #40]	; 0x28
  401772:	4814      	ldr	r0, [pc, #80]	; (4017c4 <SystemCoreClockUpdate+0xf4>)
        SystemCoreClock *= ((((PMC->CKGR_PLLAR) & CKGR_PLLAR_MULA_Msk) >> CKGR_PLLAR_MULA_Pos) + 1U);
  401774:	f3c1 410a 	ubfx	r1, r1, #16, #11
  401778:	6803      	ldr	r3, [r0, #0]
  40177a:	fb01 3303 	mla	r3, r1, r3, r3
        SystemCoreClock /= ((((PMC->CKGR_PLLAR) & CKGR_PLLAR_DIVA_Msk) >> CKGR_PLLAR_DIVA_Pos));
  40177e:	b2d2      	uxtb	r2, r2
  401780:	fbb3 f3f2 	udiv	r3, r3, r2
  401784:	6003      	str	r3, [r0, #0]
  401786:	e7ac      	b.n	4016e2 <SystemCoreClockUpdate+0x12>
        SystemCoreClock = CHIP_FREQ_MAINCK_RC_4MHZ;
  401788:	4a11      	ldr	r2, [pc, #68]	; (4017d0 <SystemCoreClockUpdate+0x100>)
  40178a:	4b0e      	ldr	r3, [pc, #56]	; (4017c4 <SystemCoreClockUpdate+0xf4>)
  40178c:	601a      	str	r2, [r3, #0]
        switch ( PMC->CKGR_MOR & CKGR_MOR_MOSCRCF_Msk )
  40178e:	4b0c      	ldr	r3, [pc, #48]	; (4017c0 <SystemCoreClockUpdate+0xf0>)
  401790:	6a1b      	ldr	r3, [r3, #32]
  401792:	f003 0370 	and.w	r3, r3, #112	; 0x70
  401796:	2b10      	cmp	r3, #16
  401798:	d005      	beq.n	4017a6 <SystemCoreClockUpdate+0xd6>
  40179a:	2b20      	cmp	r3, #32
  40179c:	d1e0      	bne.n	401760 <SystemCoreClockUpdate+0x90>
            SystemCoreClock *= 3U;
  40179e:	4a0b      	ldr	r2, [pc, #44]	; (4017cc <SystemCoreClockUpdate+0xfc>)
  4017a0:	4b08      	ldr	r3, [pc, #32]	; (4017c4 <SystemCoreClockUpdate+0xf4>)
  4017a2:	601a      	str	r2, [r3, #0]
          break;
  4017a4:	e7dc      	b.n	401760 <SystemCoreClockUpdate+0x90>
            SystemCoreClock *= 2U;
  4017a6:	4a0b      	ldr	r2, [pc, #44]	; (4017d4 <SystemCoreClockUpdate+0x104>)
  4017a8:	4b06      	ldr	r3, [pc, #24]	; (4017c4 <SystemCoreClockUpdate+0xf4>)
  4017aa:	601a      	str	r2, [r3, #0]
          break;
  4017ac:	e7d8      	b.n	401760 <SystemCoreClockUpdate+0x90>
    SystemCoreClock /= 3U;
  4017ae:	4a05      	ldr	r2, [pc, #20]	; (4017c4 <SystemCoreClockUpdate+0xf4>)
  4017b0:	6813      	ldr	r3, [r2, #0]
  4017b2:	4909      	ldr	r1, [pc, #36]	; (4017d8 <SystemCoreClockUpdate+0x108>)
  4017b4:	fba1 1303 	umull	r1, r3, r1, r3
  4017b8:	085b      	lsrs	r3, r3, #1
  4017ba:	6013      	str	r3, [r2, #0]
  4017bc:	4770      	bx	lr
  4017be:	bf00      	nop
  4017c0:	400e0600 	.word	0x400e0600
  4017c4:	20400004 	.word	0x20400004
  4017c8:	400e1810 	.word	0x400e1810
  4017cc:	00b71b00 	.word	0x00b71b00
  4017d0:	003d0900 	.word	0x003d0900
  4017d4:	007a1200 	.word	0x007a1200
  4017d8:	aaaaaaab 	.word	0xaaaaaaab

004017dc <system_init_flash>:
 * Initialize flash.
 */
void system_init_flash( uint32_t ul_clk )
{
  /* Set FWS for embedded Flash access according to operating frequency */
  if ( ul_clk < CHIP_FREQ_FWS_0 )
  4017dc:	4b12      	ldr	r3, [pc, #72]	; (401828 <system_init_flash+0x4c>)
  4017de:	4298      	cmp	r0, r3
  4017e0:	d911      	bls.n	401806 <system_init_flash+0x2a>
  {
    EFC->EEFC_FMR = EEFC_FMR_FWS(0)|EEFC_FMR_CLOE;
  }
  else
  {
    if (ul_clk < CHIP_FREQ_FWS_1)
  4017e2:	4b12      	ldr	r3, [pc, #72]	; (40182c <system_init_flash+0x50>)
  4017e4:	4298      	cmp	r0, r3
  4017e6:	d913      	bls.n	401810 <system_init_flash+0x34>
    {
      EFC->EEFC_FMR = EEFC_FMR_FWS(1)|EEFC_FMR_CLOE;
    }
    else
    {
      if (ul_clk < CHIP_FREQ_FWS_2)
  4017e8:	4b11      	ldr	r3, [pc, #68]	; (401830 <system_init_flash+0x54>)
  4017ea:	4298      	cmp	r0, r3
  4017ec:	d914      	bls.n	401818 <system_init_flash+0x3c>
      {
        EFC->EEFC_FMR = EEFC_FMR_FWS(2)|EEFC_FMR_CLOE;
      }
      else
      {
        if ( ul_clk < CHIP_FREQ_FWS_3 )
  4017ee:	4b11      	ldr	r3, [pc, #68]	; (401834 <system_init_flash+0x58>)
  4017f0:	4298      	cmp	r0, r3
  4017f2:	d915      	bls.n	401820 <system_init_flash+0x44>
        {
          EFC->EEFC_FMR = EEFC_FMR_FWS(3)|EEFC_FMR_CLOE;
        }
        else
        {
          if ( ul_clk < CHIP_FREQ_FWS_4 )
  4017f4:	4b10      	ldr	r3, [pc, #64]	; (401838 <system_init_flash+0x5c>)
  4017f6:	4298      	cmp	r0, r3
          {
            EFC->EEFC_FMR = EEFC_FMR_FWS(4)|EEFC_FMR_CLOE;
  4017f8:	bf94      	ite	ls
  4017fa:	f04f 2204 	movls.w	r2, #67109888	; 0x4000400
          }
          else
          {
            EFC->EEFC_FMR = EEFC_FMR_FWS(5)|EEFC_FMR_CLOE;
  4017fe:	4a0f      	ldrhi	r2, [pc, #60]	; (40183c <system_init_flash+0x60>)
  401800:	4b0f      	ldr	r3, [pc, #60]	; (401840 <system_init_flash+0x64>)
  401802:	601a      	str	r2, [r3, #0]
  401804:	4770      	bx	lr
    EFC->EEFC_FMR = EEFC_FMR_FWS(0)|EEFC_FMR_CLOE;
  401806:	f04f 6280 	mov.w	r2, #67108864	; 0x4000000
  40180a:	4b0d      	ldr	r3, [pc, #52]	; (401840 <system_init_flash+0x64>)
  40180c:	601a      	str	r2, [r3, #0]
  40180e:	4770      	bx	lr
      EFC->EEFC_FMR = EEFC_FMR_FWS(1)|EEFC_FMR_CLOE;
  401810:	4a0c      	ldr	r2, [pc, #48]	; (401844 <system_init_flash+0x68>)
  401812:	4b0b      	ldr	r3, [pc, #44]	; (401840 <system_init_flash+0x64>)
  401814:	601a      	str	r2, [r3, #0]
  401816:	4770      	bx	lr
        EFC->EEFC_FMR = EEFC_FMR_FWS(2)|EEFC_FMR_CLOE;
  401818:	4a0b      	ldr	r2, [pc, #44]	; (401848 <system_init_flash+0x6c>)
  40181a:	4b09      	ldr	r3, [pc, #36]	; (401840 <system_init_flash+0x64>)
  40181c:	601a      	str	r2, [r3, #0]
  40181e:	4770      	bx	lr
          EFC->EEFC_FMR = EEFC_FMR_FWS(3)|EEFC_FMR_CLOE;
  401820:	4a0a      	ldr	r2, [pc, #40]	; (40184c <system_init_flash+0x70>)
  401822:	4b07      	ldr	r3, [pc, #28]	; (401840 <system_init_flash+0x64>)
  401824:	601a      	str	r2, [r3, #0]
  401826:	4770      	bx	lr
  401828:	01312cff 	.word	0x01312cff
  40182c:	026259ff 	.word	0x026259ff
  401830:	039386ff 	.word	0x039386ff
  401834:	04c4b3ff 	.word	0x04c4b3ff
  401838:	05f5e0ff 	.word	0x05f5e0ff
  40183c:	04000500 	.word	0x04000500
  401840:	400e0c00 	.word	0x400e0c00
  401844:	04000100 	.word	0x04000100
  401848:	04000200 	.word	0x04000200
  40184c:	04000300 	.word	0x04000300

00401850 <_sbrk>:
{
	static unsigned char *heap = NULL;
	unsigned char *prev_heap;
	int ramend = (int)&__ram_end__;

	if (heap == NULL) {
  401850:	4b0a      	ldr	r3, [pc, #40]	; (40187c <_sbrk+0x2c>)
  401852:	681b      	ldr	r3, [r3, #0]
  401854:	b153      	cbz	r3, 40186c <_sbrk+0x1c>
		heap = (unsigned char *)&_end;
	}
	prev_heap = heap;
  401856:	4b09      	ldr	r3, [pc, #36]	; (40187c <_sbrk+0x2c>)
  401858:	681b      	ldr	r3, [r3, #0]

	if (((int)prev_heap + incr) > ramend) {
  40185a:	181a      	adds	r2, r3, r0
  40185c:	4908      	ldr	r1, [pc, #32]	; (401880 <_sbrk+0x30>)
  40185e:	4291      	cmp	r1, r2
  401860:	db08      	blt.n	401874 <_sbrk+0x24>
		return (caddr_t) -1;	
	}

	heap += incr;
  401862:	4610      	mov	r0, r2
  401864:	4a05      	ldr	r2, [pc, #20]	; (40187c <_sbrk+0x2c>)
  401866:	6010      	str	r0, [r2, #0]

	return (caddr_t) prev_heap;
  401868:	4618      	mov	r0, r3
  40186a:	4770      	bx	lr
		heap = (unsigned char *)&_end;
  40186c:	4a05      	ldr	r2, [pc, #20]	; (401884 <_sbrk+0x34>)
  40186e:	4b03      	ldr	r3, [pc, #12]	; (40187c <_sbrk+0x2c>)
  401870:	601a      	str	r2, [r3, #0]
  401872:	e7f0      	b.n	401856 <_sbrk+0x6>
		return (caddr_t) -1;	
  401874:	f04f 30ff 	mov.w	r0, #4294967295
}
  401878:	4770      	bx	lr
  40187a:	bf00      	nop
  40187c:	20400e04 	.word	0x20400e04
  401880:	2045fffc 	.word	0x2045fffc
  401884:	204030e0 	.word	0x204030e0

00401888 <_close>:
}

extern int _close(int file)
{
	return -1;
}
  401888:	f04f 30ff 	mov.w	r0, #4294967295
  40188c:	4770      	bx	lr

0040188e <_fstat>:

extern int _fstat(int file, struct stat *st)
{
	st->st_mode = S_IFCHR;
  40188e:	f44f 5300 	mov.w	r3, #8192	; 0x2000
  401892:	604b      	str	r3, [r1, #4]

	return 0;
}
  401894:	2000      	movs	r0, #0
  401896:	4770      	bx	lr

00401898 <_isatty>:

extern int _isatty(int file)
{
	return 1;
}
  401898:	2001      	movs	r0, #1
  40189a:	4770      	bx	lr

0040189c <_lseek>:

extern int _lseek(int file, int ptr, int dir)
{
	return 0;
}
  40189c:	2000      	movs	r0, #0
  40189e:	4770      	bx	lr

004018a0 <usart_serial_getchar>:
 * \param p_usart   Base address of the USART instance.
 * \param data   Data to read
 *
 */
static inline void usart_serial_getchar(usart_if p_usart, uint8_t *data)
{
  4018a0:	b5f0      	push	{r4, r5, r6, r7, lr}
  4018a2:	b083      	sub	sp, #12
  4018a4:	4605      	mov	r5, r0
  4018a6:	460c      	mov	r4, r1
	uint32_t val = 0;
  4018a8:	2300      	movs	r3, #0
  4018aa:	9301      	str	r3, [sp, #4]
	if (UART == (Uart*)p_usart) {
		while (uart_read((Uart*)p_usart, data));
	}
#else
# ifdef UART0
	if (UART0 == (Uart*)p_usart) {
  4018ac:	4b2a      	ldr	r3, [pc, #168]	; (401958 <usart_serial_getchar+0xb8>)
  4018ae:	4298      	cmp	r0, r3
  4018b0:	d013      	beq.n	4018da <usart_serial_getchar+0x3a>
		while (uart_read((Uart*)p_usart, data));
	}
# endif
# ifdef UART1
	if (UART1 == (Uart*)p_usart) {
  4018b2:	4b2a      	ldr	r3, [pc, #168]	; (40195c <usart_serial_getchar+0xbc>)
  4018b4:	4298      	cmp	r0, r3
  4018b6:	d018      	beq.n	4018ea <usart_serial_getchar+0x4a>
		while (uart_read((Uart*)p_usart, data));
	}
# endif
# ifdef UART2
	if (UART2 == (Uart*)p_usart) {
  4018b8:	4b29      	ldr	r3, [pc, #164]	; (401960 <usart_serial_getchar+0xc0>)
  4018ba:	4298      	cmp	r0, r3
  4018bc:	d01d      	beq.n	4018fa <usart_serial_getchar+0x5a>
		while (uart_read((Uart*)p_usart, data));
	}
# endif
# ifdef UART3
	if (UART3 == (Uart*)p_usart) {
  4018be:	4b29      	ldr	r3, [pc, #164]	; (401964 <usart_serial_getchar+0xc4>)
  4018c0:	429d      	cmp	r5, r3
  4018c2:	d022      	beq.n	40190a <usart_serial_getchar+0x6a>
		while (usart_read(p_usart, &val));
		*data = (uint8_t)(val & 0xFF);
	}
#else
# ifdef USART0
	if (USART0 == p_usart) {
  4018c4:	4b28      	ldr	r3, [pc, #160]	; (401968 <usart_serial_getchar+0xc8>)
  4018c6:	429d      	cmp	r5, r3
  4018c8:	d027      	beq.n	40191a <usart_serial_getchar+0x7a>
		while (usart_read(p_usart, &val));
		*data = (uint8_t)(val & 0xFF);
	}
# endif
# ifdef USART1
	if (USART1 == p_usart) {
  4018ca:	4b28      	ldr	r3, [pc, #160]	; (40196c <usart_serial_getchar+0xcc>)
  4018cc:	429d      	cmp	r5, r3
  4018ce:	d02e      	beq.n	40192e <usart_serial_getchar+0x8e>
		while (usart_read(p_usart, &val));
		*data = (uint8_t)(val & 0xFF);
	}
# endif
# ifdef USART2
	if (USART2 == p_usart) {
  4018d0:	4b27      	ldr	r3, [pc, #156]	; (401970 <usart_serial_getchar+0xd0>)
  4018d2:	429d      	cmp	r5, r3
  4018d4:	d035      	beq.n	401942 <usart_serial_getchar+0xa2>
		*data = (uint8_t)(val & 0xFF);
	}
# endif
#endif /* ifdef USART */

}
  4018d6:	b003      	add	sp, #12
  4018d8:	bdf0      	pop	{r4, r5, r6, r7, pc}
		while (uart_read((Uart*)p_usart, data));
  4018da:	461f      	mov	r7, r3
  4018dc:	4e25      	ldr	r6, [pc, #148]	; (401974 <usart_serial_getchar+0xd4>)
  4018de:	4621      	mov	r1, r4
  4018e0:	4638      	mov	r0, r7
  4018e2:	47b0      	blx	r6
  4018e4:	2800      	cmp	r0, #0
  4018e6:	d1fa      	bne.n	4018de <usart_serial_getchar+0x3e>
  4018e8:	e7e9      	b.n	4018be <usart_serial_getchar+0x1e>
		while (uart_read((Uart*)p_usart, data));
  4018ea:	461f      	mov	r7, r3
  4018ec:	4e21      	ldr	r6, [pc, #132]	; (401974 <usart_serial_getchar+0xd4>)
  4018ee:	4621      	mov	r1, r4
  4018f0:	4638      	mov	r0, r7
  4018f2:	47b0      	blx	r6
  4018f4:	2800      	cmp	r0, #0
  4018f6:	d1fa      	bne.n	4018ee <usart_serial_getchar+0x4e>
  4018f8:	e7e4      	b.n	4018c4 <usart_serial_getchar+0x24>
		while (uart_read((Uart*)p_usart, data));
  4018fa:	461f      	mov	r7, r3
  4018fc:	4e1d      	ldr	r6, [pc, #116]	; (401974 <usart_serial_getchar+0xd4>)
  4018fe:	4621      	mov	r1, r4
  401900:	4638      	mov	r0, r7
  401902:	47b0      	blx	r6
  401904:	2800      	cmp	r0, #0
  401906:	d1fa      	bne.n	4018fe <usart_serial_getchar+0x5e>
  401908:	e7df      	b.n	4018ca <usart_serial_getchar+0x2a>
		while (uart_read((Uart*)p_usart, data));
  40190a:	461f      	mov	r7, r3
  40190c:	4e19      	ldr	r6, [pc, #100]	; (401974 <usart_serial_getchar+0xd4>)
  40190e:	4621      	mov	r1, r4
  401910:	4638      	mov	r0, r7
  401912:	47b0      	blx	r6
  401914:	2800      	cmp	r0, #0
  401916:	d1fa      	bne.n	40190e <usart_serial_getchar+0x6e>
  401918:	e7da      	b.n	4018d0 <usart_serial_getchar+0x30>
		while (usart_read(p_usart, &val));
  40191a:	461e      	mov	r6, r3
  40191c:	4d16      	ldr	r5, [pc, #88]	; (401978 <usart_serial_getchar+0xd8>)
  40191e:	a901      	add	r1, sp, #4
  401920:	4630      	mov	r0, r6
  401922:	47a8      	blx	r5
  401924:	2800      	cmp	r0, #0
  401926:	d1fa      	bne.n	40191e <usart_serial_getchar+0x7e>
		*data = (uint8_t)(val & 0xFF);
  401928:	9b01      	ldr	r3, [sp, #4]
  40192a:	7023      	strb	r3, [r4, #0]
  40192c:	e7d3      	b.n	4018d6 <usart_serial_getchar+0x36>
		while (usart_read(p_usart, &val));
  40192e:	461e      	mov	r6, r3
  401930:	4d11      	ldr	r5, [pc, #68]	; (401978 <usart_serial_getchar+0xd8>)
  401932:	a901      	add	r1, sp, #4
  401934:	4630      	mov	r0, r6
  401936:	47a8      	blx	r5
  401938:	2800      	cmp	r0, #0
  40193a:	d1fa      	bne.n	401932 <usart_serial_getchar+0x92>
		*data = (uint8_t)(val & 0xFF);
  40193c:	9b01      	ldr	r3, [sp, #4]
  40193e:	7023      	strb	r3, [r4, #0]
  401940:	e7c9      	b.n	4018d6 <usart_serial_getchar+0x36>
		while (usart_read(p_usart, &val));
  401942:	461e      	mov	r6, r3
  401944:	4d0c      	ldr	r5, [pc, #48]	; (401978 <usart_serial_getchar+0xd8>)
  401946:	a901      	add	r1, sp, #4
  401948:	4630      	mov	r0, r6
  40194a:	47a8      	blx	r5
  40194c:	2800      	cmp	r0, #0
  40194e:	d1fa      	bne.n	401946 <usart_serial_getchar+0xa6>
		*data = (uint8_t)(val & 0xFF);
  401950:	9b01      	ldr	r3, [sp, #4]
  401952:	7023      	strb	r3, [r4, #0]
}
  401954:	e7bf      	b.n	4018d6 <usart_serial_getchar+0x36>
  401956:	bf00      	nop
  401958:	400e0800 	.word	0x400e0800
  40195c:	400e0a00 	.word	0x400e0a00
  401960:	400e1a00 	.word	0x400e1a00
  401964:	400e1c00 	.word	0x400e1c00
  401968:	40024000 	.word	0x40024000
  40196c:	40028000 	.word	0x40028000
  401970:	4002c000 	.word	0x4002c000
  401974:	004014e1 	.word	0x004014e1
  401978:	004015ef 	.word	0x004015ef

0040197c <usart_serial_putchar>:
{
  40197c:	b570      	push	{r4, r5, r6, lr}
  40197e:	460c      	mov	r4, r1
	if (UART0 == (Uart*)p_usart) {
  401980:	4b2a      	ldr	r3, [pc, #168]	; (401a2c <usart_serial_putchar+0xb0>)
  401982:	4298      	cmp	r0, r3
  401984:	d013      	beq.n	4019ae <usart_serial_putchar+0x32>
	if (UART1 == (Uart*)p_usart) {
  401986:	4b2a      	ldr	r3, [pc, #168]	; (401a30 <usart_serial_putchar+0xb4>)
  401988:	4298      	cmp	r0, r3
  40198a:	d019      	beq.n	4019c0 <usart_serial_putchar+0x44>
	if (UART2 == (Uart*)p_usart) {
  40198c:	4b29      	ldr	r3, [pc, #164]	; (401a34 <usart_serial_putchar+0xb8>)
  40198e:	4298      	cmp	r0, r3
  401990:	d01f      	beq.n	4019d2 <usart_serial_putchar+0x56>
	if (UART3 == (Uart*)p_usart) {
  401992:	4b29      	ldr	r3, [pc, #164]	; (401a38 <usart_serial_putchar+0xbc>)
  401994:	4298      	cmp	r0, r3
  401996:	d025      	beq.n	4019e4 <usart_serial_putchar+0x68>
	if (USART0 == p_usart) {
  401998:	4b28      	ldr	r3, [pc, #160]	; (401a3c <usart_serial_putchar+0xc0>)
  40199a:	4298      	cmp	r0, r3
  40199c:	d02b      	beq.n	4019f6 <usart_serial_putchar+0x7a>
	if (USART1 == p_usart) {
  40199e:	4b28      	ldr	r3, [pc, #160]	; (401a40 <usart_serial_putchar+0xc4>)
  4019a0:	4298      	cmp	r0, r3
  4019a2:	d031      	beq.n	401a08 <usart_serial_putchar+0x8c>
	if (USART2 == p_usart) {
  4019a4:	4b27      	ldr	r3, [pc, #156]	; (401a44 <usart_serial_putchar+0xc8>)
  4019a6:	4298      	cmp	r0, r3
  4019a8:	d037      	beq.n	401a1a <usart_serial_putchar+0x9e>
	return 0;
  4019aa:	2000      	movs	r0, #0
}
  4019ac:	bd70      	pop	{r4, r5, r6, pc}
		while (uart_write((Uart*)p_usart, c)!=0);
  4019ae:	461e      	mov	r6, r3
  4019b0:	4d25      	ldr	r5, [pc, #148]	; (401a48 <usart_serial_putchar+0xcc>)
  4019b2:	4621      	mov	r1, r4
  4019b4:	4630      	mov	r0, r6
  4019b6:	47a8      	blx	r5
  4019b8:	2800      	cmp	r0, #0
  4019ba:	d1fa      	bne.n	4019b2 <usart_serial_putchar+0x36>
		return 1;
  4019bc:	2001      	movs	r0, #1
  4019be:	bd70      	pop	{r4, r5, r6, pc}
		while (uart_write((Uart*)p_usart, c)!=0);
  4019c0:	461e      	mov	r6, r3
  4019c2:	4d21      	ldr	r5, [pc, #132]	; (401a48 <usart_serial_putchar+0xcc>)
  4019c4:	4621      	mov	r1, r4
  4019c6:	4630      	mov	r0, r6
  4019c8:	47a8      	blx	r5
  4019ca:	2800      	cmp	r0, #0
  4019cc:	d1fa      	bne.n	4019c4 <usart_serial_putchar+0x48>
		return 1;
  4019ce:	2001      	movs	r0, #1
  4019d0:	bd70      	pop	{r4, r5, r6, pc}
		while (uart_write((Uart*)p_usart, c)!=0);
  4019d2:	461e      	mov	r6, r3
  4019d4:	4d1c      	ldr	r5, [pc, #112]	; (401a48 <usart_serial_putchar+0xcc>)
  4019d6:	4621      	mov	r1, r4
  4019d8:	4630      	mov	r0, r6
  4019da:	47a8      	blx	r5
  4019dc:	2800      	cmp	r0, #0
  4019de:	d1fa      	bne.n	4019d6 <usart_serial_putchar+0x5a>
		return 1;
  4019e0:	2001      	movs	r0, #1
  4019e2:	bd70      	pop	{r4, r5, r6, pc}
		while (uart_write((Uart*)p_usart, c)!=0);
  4019e4:	461e      	mov	r6, r3
  4019e6:	4d18      	ldr	r5, [pc, #96]	; (401a48 <usart_serial_putchar+0xcc>)
  4019e8:	4621      	mov	r1, r4
  4019ea:	4630      	mov	r0, r6
  4019ec:	47a8      	blx	r5
  4019ee:	2800      	cmp	r0, #0
  4019f0:	d1fa      	bne.n	4019e8 <usart_serial_putchar+0x6c>
		return 1;
  4019f2:	2001      	movs	r0, #1
  4019f4:	bd70      	pop	{r4, r5, r6, pc}
		while (usart_write(p_usart, c)!=0);
  4019f6:	461e      	mov	r6, r3
  4019f8:	4d14      	ldr	r5, [pc, #80]	; (401a4c <usart_serial_putchar+0xd0>)
  4019fa:	4621      	mov	r1, r4
  4019fc:	4630      	mov	r0, r6
  4019fe:	47a8      	blx	r5
  401a00:	2800      	cmp	r0, #0
  401a02:	d1fa      	bne.n	4019fa <usart_serial_putchar+0x7e>
		return 1;
  401a04:	2001      	movs	r0, #1
  401a06:	bd70      	pop	{r4, r5, r6, pc}
		while (usart_write(p_usart, c)!=0);
  401a08:	461e      	mov	r6, r3
  401a0a:	4d10      	ldr	r5, [pc, #64]	; (401a4c <usart_serial_putchar+0xd0>)
  401a0c:	4621      	mov	r1, r4
  401a0e:	4630      	mov	r0, r6
  401a10:	47a8      	blx	r5
  401a12:	2800      	cmp	r0, #0
  401a14:	d1fa      	bne.n	401a0c <usart_serial_putchar+0x90>
		return 1;
  401a16:	2001      	movs	r0, #1
  401a18:	bd70      	pop	{r4, r5, r6, pc}
		while (usart_write(p_usart, c)!=0);
  401a1a:	461e      	mov	r6, r3
  401a1c:	4d0b      	ldr	r5, [pc, #44]	; (401a4c <usart_serial_putchar+0xd0>)
  401a1e:	4621      	mov	r1, r4
  401a20:	4630      	mov	r0, r6
  401a22:	47a8      	blx	r5
  401a24:	2800      	cmp	r0, #0
  401a26:	d1fa      	bne.n	401a1e <usart_serial_putchar+0xa2>
		return 1;
  401a28:	2001      	movs	r0, #1
  401a2a:	bd70      	pop	{r4, r5, r6, pc}
  401a2c:	400e0800 	.word	0x400e0800
  401a30:	400e0a00 	.word	0x400e0a00
  401a34:	400e1a00 	.word	0x400e1a00
  401a38:	400e1c00 	.word	0x400e1c00
  401a3c:	40024000 	.word	0x40024000
  401a40:	40028000 	.word	0x40028000
  401a44:	4002c000 	.word	0x4002c000
  401a48:	004014cf 	.word	0x004014cf
  401a4c:	004015d9 	.word	0x004015d9

00401a50 <main>:
	sysclk_enable_peripheral_clock(CONSOLE_UART_ID);
	stdio_serial_init(CONF_UART, &uart_serial_options);
}

int main(void)
{
  401a50:	b580      	push	{r7, lr}
  401a52:	b088      	sub	sp, #32
	/* Initialize the board. */
	sysclk_init();
  401a54:	4b49      	ldr	r3, [pc, #292]	; (401b7c <main+0x12c>)
  401a56:	4798      	blx	r3
	board_init();
  401a58:	4b49      	ldr	r3, [pc, #292]	; (401b80 <main+0x130>)
  401a5a:	4798      	blx	r3
  401a5c:	200a      	movs	r0, #10
  401a5e:	4e49      	ldr	r6, [pc, #292]	; (401b84 <main+0x134>)
  401a60:	47b0      	blx	r6
  401a62:	200b      	movs	r0, #11
  401a64:	47b0      	blx	r6
  401a66:	200c      	movs	r0, #12
  401a68:	47b0      	blx	r6
  401a6a:	2010      	movs	r0, #16
  401a6c:	47b0      	blx	r6
  401a6e:	2011      	movs	r0, #17
  401a70:	47b0      	blx	r6
  401a72:	200e      	movs	r0, #14
  401a74:	47b0      	blx	r6
 * \param opt         Options needed to set up RS232 communication (see \ref usart_options_t).
 *
 */
static inline void stdio_serial_init(volatile void *usart, const usart_serial_options_t *opt)
{
	stdio_base = (void *)usart;
  401a76:	4f44      	ldr	r7, [pc, #272]	; (401b88 <main+0x138>)
  401a78:	4b44      	ldr	r3, [pc, #272]	; (401b8c <main+0x13c>)
  401a7a:	601f      	str	r7, [r3, #0]
	ptr_put = (int (*)(void volatile*,char))&usart_serial_putchar;
  401a7c:	4a44      	ldr	r2, [pc, #272]	; (401b90 <main+0x140>)
  401a7e:	4b45      	ldr	r3, [pc, #276]	; (401b94 <main+0x144>)
  401a80:	601a      	str	r2, [r3, #0]
	ptr_get = (void (*)(void volatile*,char*))&usart_serial_getchar;
  401a82:	4a45      	ldr	r2, [pc, #276]	; (401b98 <main+0x148>)
  401a84:	4b45      	ldr	r3, [pc, #276]	; (401b9c <main+0x14c>)
  401a86:	601a      	str	r2, [r3, #0]
	usart_settings.baudrate = opt->baudrate;
  401a88:	f44f 33e1 	mov.w	r3, #115200	; 0x1c200
  401a8c:	9302      	str	r3, [sp, #8]
	usart_settings.char_length = opt->charlength;
  401a8e:	23c0      	movs	r3, #192	; 0xc0
  401a90:	9303      	str	r3, [sp, #12]
	usart_settings.parity_type = opt->paritytype;
  401a92:	f44f 6500 	mov.w	r5, #2048	; 0x800
  401a96:	9504      	str	r5, [sp, #16]
	usart_settings.stop_bits= opt->stopbits;
  401a98:	2400      	movs	r4, #0
  401a9a:	9405      	str	r4, [sp, #20]
	usart_settings.channel_mode= US_MR_CHMODE_NORMAL;
  401a9c:	9406      	str	r4, [sp, #24]
  401a9e:	200e      	movs	r0, #14
  401aa0:	47b0      	blx	r6
		usart_init_rs232(p_usart, &usart_settings,
  401aa2:	4a3f      	ldr	r2, [pc, #252]	; (401ba0 <main+0x150>)
  401aa4:	a902      	add	r1, sp, #8
  401aa6:	4638      	mov	r0, r7
  401aa8:	4b3e      	ldr	r3, [pc, #248]	; (401ba4 <main+0x154>)
  401aaa:	4798      	blx	r3
		usart_enable_tx(p_usart);
  401aac:	4638      	mov	r0, r7
  401aae:	4b3e      	ldr	r3, [pc, #248]	; (401ba8 <main+0x158>)
  401ab0:	4798      	blx	r3
		usart_enable_rx(p_usart);
  401ab2:	4638      	mov	r0, r7
  401ab4:	4b3d      	ldr	r3, [pc, #244]	; (401bac <main+0x15c>)
  401ab6:	4798      	blx	r3
	fdevopen((int (*)(char, FILE*))(_write),(int (*)(FILE*))(_read));
#  endif
#  if UC3 || SAM
	// For AVR32 and SAM GCC
	// Specify that stdout and stdin should not be buffered.
	setbuf(stdout, NULL);
  401ab8:	4f3d      	ldr	r7, [pc, #244]	; (401bb0 <main+0x160>)
  401aba:	683b      	ldr	r3, [r7, #0]
  401abc:	4621      	mov	r1, r4
  401abe:	6898      	ldr	r0, [r3, #8]
  401ac0:	4e3c      	ldr	r6, [pc, #240]	; (401bb4 <main+0x164>)
  401ac2:	47b0      	blx	r6
	setbuf(stdin, NULL);
  401ac4:	683b      	ldr	r3, [r7, #0]
  401ac6:	4621      	mov	r1, r4
  401ac8:	6858      	ldr	r0, [r3, #4]
  401aca:	47b0      	blx	r6
	ioport_init();
	
	/* Initialize the UART console. */
	configure_console();
	printf(STRING_HEADER);
  401acc:	483a      	ldr	r0, [pc, #232]	; (401bb8 <main+0x168>)
  401ace:	4b3b      	ldr	r3, [pc, #236]	; (401bbc <main+0x16c>)
  401ad0:	4798      	blx	r3
		base->PIO_ODR = arch_ioport_pin_to_mask(pin);
  401ad2:	4b3b      	ldr	r3, [pc, #236]	; (401bc0 <main+0x170>)
  401ad4:	615d      	str	r5, [r3, #20]
	base->PIO_OWER = arch_ioport_pin_to_mask(pin);
  401ad6:	f8c3 50a0 	str.w	r5, [r3, #160]	; 0xa0
		base->PIO_PUER = mask;
  401ada:	665d      	str	r5, [r3, #100]	; 0x64
		base->PIO_PPDDR = mask;
  401adc:	f8c3 5090 	str.w	r5, [r3, #144]	; 0x90
		base->PIO_MDDR = mask;
  401ae0:	655d      	str	r5, [r3, #84]	; 0x54
		base->PIO_IFDR = mask;
  401ae2:	625d      	str	r5, [r3, #36]	; 0x24
		base->PIO_IFSCDR = mask;
  401ae4:	f8c3 5080 	str.w	r5, [r3, #128]	; 0x80
		base->PIO_ABCDSR[0] &= ~mask;
  401ae8:	6f1a      	ldr	r2, [r3, #112]	; 0x70
  401aea:	f422 6200 	bic.w	r2, r2, #2048	; 0x800
  401aee:	671a      	str	r2, [r3, #112]	; 0x70
		base->PIO_ABCDSR[1] &= ~mask;
  401af0:	6f5a      	ldr	r2, [r3, #116]	; 0x74
  401af2:	f422 6200 	bic.w	r2, r2, #2048	; 0x800
  401af6:	675a      	str	r2, [r3, #116]	; 0x74
	/* Set direction and pullup on the given button IOPORT */
	ioport_set_pin_dir(GPIO_PUSH_BUTTON_1, IOPORT_DIR_INPUT);
	ioport_set_pin_mode(GPIO_PUSH_BUTTON_1, IOPORT_MODE_PULLUP);

	/* Initialize display parameter */
	g_ili9488_display_opt.ul_width = ILI9488_LCD_WIDTH;
  401af8:	4832      	ldr	r0, [pc, #200]	; (401bc4 <main+0x174>)
  401afa:	f44f 73a0 	mov.w	r3, #320	; 0x140
  401afe:	6003      	str	r3, [r0, #0]
	g_ili9488_display_opt.ul_height = ILI9488_LCD_HEIGHT;
  401b00:	f44f 73f0 	mov.w	r3, #480	; 0x1e0
  401b04:	6043      	str	r3, [r0, #4]
	g_ili9488_display_opt.foreground_color = COLOR_CONVERT(COLOR_WHITE);
  401b06:	4f30      	ldr	r7, [pc, #192]	; (401bc8 <main+0x178>)
  401b08:	6087      	str	r7, [r0, #8]
	g_ili9488_display_opt.background_color = COLOR_CONVERT(COLOR_WHITE);
  401b0a:	60c7      	str	r7, [r0, #12]

	/* Initialize LCD */
	ili9488_init(&g_ili9488_display_opt);
  401b0c:	4b2f      	ldr	r3, [pc, #188]	; (401bcc <main+0x17c>)
  401b0e:	4798      	blx	r3
	ili9488_draw_filled_rectangle(0, 0, ILI9488_LCD_WIDTH-1, ILI9488_LCD_HEIGHT-1);
  401b10:	f240 13df 	movw	r3, #479	; 0x1df
  401b14:	f240 123f 	movw	r2, #319	; 0x13f
  401b18:	4621      	mov	r1, r4
  401b1a:	4620      	mov	r0, r4
  401b1c:	4d2c      	ldr	r5, [pc, #176]	; (401bd0 <main+0x180>)
  401b1e:	47a8      	blx	r5
	ili9488_set_foreground_color(COLOR_CONVERT(COLOR_TOMATO));
  401b20:	482c      	ldr	r0, [pc, #176]	; (401bd4 <main+0x184>)
  401b22:	4e2d      	ldr	r6, [pc, #180]	; (401bd8 <main+0x188>)
  401b24:	47b0      	blx	r6
	ili9488_draw_filled_rectangle(0, 0, ILI9488_LCD_WIDTH-1, 120-1);
  401b26:	2377      	movs	r3, #119	; 0x77
  401b28:	f240 123f 	movw	r2, #319	; 0x13f
  401b2c:	4621      	mov	r1, r4
  401b2e:	4620      	mov	r0, r4
  401b30:	47a8      	blx	r5
	ili9488_draw_filled_rectangle(0, 360, ILI9488_LCD_WIDTH-1, 480-1);
  401b32:	f240 13df 	movw	r3, #479	; 0x1df
  401b36:	f240 123f 	movw	r2, #319	; 0x13f
  401b3a:	f44f 71b4 	mov.w	r1, #360	; 0x168
  401b3e:	4620      	mov	r0, r4
  401b40:	47a8      	blx	r5
	ili9488_draw_pixmap(0, 50, 319, 129, logoImage);
  401b42:	4b26      	ldr	r3, [pc, #152]	; (401bdc <main+0x18c>)
  401b44:	9300      	str	r3, [sp, #0]
  401b46:	2381      	movs	r3, #129	; 0x81
  401b48:	f240 123f 	movw	r2, #319	; 0x13f
  401b4c:	2132      	movs	r1, #50	; 0x32
  401b4e:	4620      	mov	r0, r4
  401b50:	f8df 8094 	ldr.w	r8, [pc, #148]	; 401be8 <main+0x198>
  401b54:	47c0      	blx	r8

    /* Escreve na tela */
	ili9488_set_foreground_color(COLOR_CONVERT(COLOR_WHITE));
  401b56:	4638      	mov	r0, r7
  401b58:	47b0      	blx	r6
	ili9488_draw_filled_rectangle(0, 300, ILI9488_LCD_WIDTH-1, 315);
  401b5a:	f240 133b 	movw	r3, #315	; 0x13b
  401b5e:	f240 123f 	movw	r2, #319	; 0x13f
  401b62:	f44f 7196 	mov.w	r1, #300	; 0x12c
  401b66:	4620      	mov	r0, r4
  401b68:	47a8      	blx	r5
	ili9488_set_foreground_color(COLOR_CONVERT(COLOR_BLACK));
  401b6a:	4620      	mov	r0, r4
  401b6c:	47b0      	blx	r6
	ili9488_draw_string(10, 300, (uint8_t *)"Computacao Embarcada");
  401b6e:	4a1c      	ldr	r2, [pc, #112]	; (401be0 <main+0x190>)
  401b70:	f44f 7196 	mov.w	r1, #300	; 0x12c
  401b74:	200a      	movs	r0, #10
  401b76:	4b1b      	ldr	r3, [pc, #108]	; (401be4 <main+0x194>)
  401b78:	4798      	blx	r3
  401b7a:	e7fe      	b.n	401b7a <main+0x12a>
  401b7c:	004001ad 	.word	0x004001ad
  401b80:	00400439 	.word	0x00400439
  401b84:	00401301 	.word	0x00401301
  401b88:	40028000 	.word	0x40028000
  401b8c:	20400e44 	.word	0x20400e44
  401b90:	0040197d 	.word	0x0040197d
  401b94:	20400e40 	.word	0x20400e40
  401b98:	004018a1 	.word	0x004018a1
  401b9c:	20400e3c 	.word	0x20400e3c
  401ba0:	08f0d180 	.word	0x08f0d180
  401ba4:	00401579 	.word	0x00401579
  401ba8:	004015cd 	.word	0x004015cd
  401bac:	004015d3 	.word	0x004015d3
  401bb0:	20400008 	.word	0x20400008
  401bb4:	00401e35 	.word	0x00401e35
  401bb8:	004233a4 	.word	0x004233a4
  401bbc:	00401c3d 	.word	0x00401c3d
  401bc0:	400e0e00 	.word	0x400e0e00
  401bc4:	20400ec8 	.word	0x20400ec8
  401bc8:	00fcfcfc 	.word	0x00fcfcfc
  401bcc:	004009a5 	.word	0x004009a5
  401bd0:	00400ba5 	.word	0x00400ba5
  401bd4:	00fc6044 	.word	0x00fc6044
  401bd8:	00400919 	.word	0x00400919
  401bdc:	00405164 	.word	0x00405164
  401be0:	004233f8 	.word	0x004233f8
  401be4:	00400c61 	.word	0x00400c61
  401be8:	00400d11 	.word	0x00400d11

00401bec <__libc_init_array>:
  401bec:	b570      	push	{r4, r5, r6, lr}
  401bee:	4e0f      	ldr	r6, [pc, #60]	; (401c2c <__libc_init_array+0x40>)
  401bf0:	4d0f      	ldr	r5, [pc, #60]	; (401c30 <__libc_init_array+0x44>)
  401bf2:	1b76      	subs	r6, r6, r5
  401bf4:	10b6      	asrs	r6, r6, #2
  401bf6:	bf18      	it	ne
  401bf8:	2400      	movne	r4, #0
  401bfa:	d005      	beq.n	401c08 <__libc_init_array+0x1c>
  401bfc:	3401      	adds	r4, #1
  401bfe:	f855 3b04 	ldr.w	r3, [r5], #4
  401c02:	4798      	blx	r3
  401c04:	42a6      	cmp	r6, r4
  401c06:	d1f9      	bne.n	401bfc <__libc_init_array+0x10>
  401c08:	4e0a      	ldr	r6, [pc, #40]	; (401c34 <__libc_init_array+0x48>)
  401c0a:	4d0b      	ldr	r5, [pc, #44]	; (401c38 <__libc_init_array+0x4c>)
  401c0c:	1b76      	subs	r6, r6, r5
  401c0e:	f021 fcb3 	bl	423578 <_init>
  401c12:	10b6      	asrs	r6, r6, #2
  401c14:	bf18      	it	ne
  401c16:	2400      	movne	r4, #0
  401c18:	d006      	beq.n	401c28 <__libc_init_array+0x3c>
  401c1a:	3401      	adds	r4, #1
  401c1c:	f855 3b04 	ldr.w	r3, [r5], #4
  401c20:	4798      	blx	r3
  401c22:	42a6      	cmp	r6, r4
  401c24:	d1f9      	bne.n	401c1a <__libc_init_array+0x2e>
  401c26:	bd70      	pop	{r4, r5, r6, pc}
  401c28:	bd70      	pop	{r4, r5, r6, pc}
  401c2a:	bf00      	nop
  401c2c:	00423584 	.word	0x00423584
  401c30:	00423584 	.word	0x00423584
  401c34:	0042358c 	.word	0x0042358c
  401c38:	00423584 	.word	0x00423584

00401c3c <iprintf>:
  401c3c:	b40f      	push	{r0, r1, r2, r3}
  401c3e:	b500      	push	{lr}
  401c40:	4907      	ldr	r1, [pc, #28]	; (401c60 <iprintf+0x24>)
  401c42:	b083      	sub	sp, #12
  401c44:	ab04      	add	r3, sp, #16
  401c46:	6808      	ldr	r0, [r1, #0]
  401c48:	f853 2b04 	ldr.w	r2, [r3], #4
  401c4c:	6881      	ldr	r1, [r0, #8]
  401c4e:	9301      	str	r3, [sp, #4]
  401c50:	f000 f9de 	bl	402010 <_vfiprintf_r>
  401c54:	b003      	add	sp, #12
  401c56:	f85d eb04 	ldr.w	lr, [sp], #4
  401c5a:	b004      	add	sp, #16
  401c5c:	4770      	bx	lr
  401c5e:	bf00      	nop
  401c60:	20400008 	.word	0x20400008

00401c64 <memcpy>:
  401c64:	4684      	mov	ip, r0
  401c66:	ea41 0300 	orr.w	r3, r1, r0
  401c6a:	f013 0303 	ands.w	r3, r3, #3
  401c6e:	d16d      	bne.n	401d4c <memcpy+0xe8>
  401c70:	3a40      	subs	r2, #64	; 0x40
  401c72:	d341      	bcc.n	401cf8 <memcpy+0x94>
  401c74:	f851 3b04 	ldr.w	r3, [r1], #4
  401c78:	f840 3b04 	str.w	r3, [r0], #4
  401c7c:	f851 3b04 	ldr.w	r3, [r1], #4
  401c80:	f840 3b04 	str.w	r3, [r0], #4
  401c84:	f851 3b04 	ldr.w	r3, [r1], #4
  401c88:	f840 3b04 	str.w	r3, [r0], #4
  401c8c:	f851 3b04 	ldr.w	r3, [r1], #4
  401c90:	f840 3b04 	str.w	r3, [r0], #4
  401c94:	f851 3b04 	ldr.w	r3, [r1], #4
  401c98:	f840 3b04 	str.w	r3, [r0], #4
  401c9c:	f851 3b04 	ldr.w	r3, [r1], #4
  401ca0:	f840 3b04 	str.w	r3, [r0], #4
  401ca4:	f851 3b04 	ldr.w	r3, [r1], #4
  401ca8:	f840 3b04 	str.w	r3, [r0], #4
  401cac:	f851 3b04 	ldr.w	r3, [r1], #4
  401cb0:	f840 3b04 	str.w	r3, [r0], #4
  401cb4:	f851 3b04 	ldr.w	r3, [r1], #4
  401cb8:	f840 3b04 	str.w	r3, [r0], #4
  401cbc:	f851 3b04 	ldr.w	r3, [r1], #4
  401cc0:	f840 3b04 	str.w	r3, [r0], #4
  401cc4:	f851 3b04 	ldr.w	r3, [r1], #4
  401cc8:	f840 3b04 	str.w	r3, [r0], #4
  401ccc:	f851 3b04 	ldr.w	r3, [r1], #4
  401cd0:	f840 3b04 	str.w	r3, [r0], #4
  401cd4:	f851 3b04 	ldr.w	r3, [r1], #4
  401cd8:	f840 3b04 	str.w	r3, [r0], #4
  401cdc:	f851 3b04 	ldr.w	r3, [r1], #4
  401ce0:	f840 3b04 	str.w	r3, [r0], #4
  401ce4:	f851 3b04 	ldr.w	r3, [r1], #4
  401ce8:	f840 3b04 	str.w	r3, [r0], #4
  401cec:	f851 3b04 	ldr.w	r3, [r1], #4
  401cf0:	f840 3b04 	str.w	r3, [r0], #4
  401cf4:	3a40      	subs	r2, #64	; 0x40
  401cf6:	d2bd      	bcs.n	401c74 <memcpy+0x10>
  401cf8:	3230      	adds	r2, #48	; 0x30
  401cfa:	d311      	bcc.n	401d20 <memcpy+0xbc>
  401cfc:	f851 3b04 	ldr.w	r3, [r1], #4
  401d00:	f840 3b04 	str.w	r3, [r0], #4
  401d04:	f851 3b04 	ldr.w	r3, [r1], #4
  401d08:	f840 3b04 	str.w	r3, [r0], #4
  401d0c:	f851 3b04 	ldr.w	r3, [r1], #4
  401d10:	f840 3b04 	str.w	r3, [r0], #4
  401d14:	f851 3b04 	ldr.w	r3, [r1], #4
  401d18:	f840 3b04 	str.w	r3, [r0], #4
  401d1c:	3a10      	subs	r2, #16
  401d1e:	d2ed      	bcs.n	401cfc <memcpy+0x98>
  401d20:	320c      	adds	r2, #12
  401d22:	d305      	bcc.n	401d30 <memcpy+0xcc>
  401d24:	f851 3b04 	ldr.w	r3, [r1], #4
  401d28:	f840 3b04 	str.w	r3, [r0], #4
  401d2c:	3a04      	subs	r2, #4
  401d2e:	d2f9      	bcs.n	401d24 <memcpy+0xc0>
  401d30:	3204      	adds	r2, #4
  401d32:	d008      	beq.n	401d46 <memcpy+0xe2>
  401d34:	07d2      	lsls	r2, r2, #31
  401d36:	bf1c      	itt	ne
  401d38:	f811 3b01 	ldrbne.w	r3, [r1], #1
  401d3c:	f800 3b01 	strbne.w	r3, [r0], #1
  401d40:	d301      	bcc.n	401d46 <memcpy+0xe2>
  401d42:	880b      	ldrh	r3, [r1, #0]
  401d44:	8003      	strh	r3, [r0, #0]
  401d46:	4660      	mov	r0, ip
  401d48:	4770      	bx	lr
  401d4a:	bf00      	nop
  401d4c:	2a08      	cmp	r2, #8
  401d4e:	d313      	bcc.n	401d78 <memcpy+0x114>
  401d50:	078b      	lsls	r3, r1, #30
  401d52:	d08d      	beq.n	401c70 <memcpy+0xc>
  401d54:	f010 0303 	ands.w	r3, r0, #3
  401d58:	d08a      	beq.n	401c70 <memcpy+0xc>
  401d5a:	f1c3 0304 	rsb	r3, r3, #4
  401d5e:	1ad2      	subs	r2, r2, r3
  401d60:	07db      	lsls	r3, r3, #31
  401d62:	bf1c      	itt	ne
  401d64:	f811 3b01 	ldrbne.w	r3, [r1], #1
  401d68:	f800 3b01 	strbne.w	r3, [r0], #1
  401d6c:	d380      	bcc.n	401c70 <memcpy+0xc>
  401d6e:	f831 3b02 	ldrh.w	r3, [r1], #2
  401d72:	f820 3b02 	strh.w	r3, [r0], #2
  401d76:	e77b      	b.n	401c70 <memcpy+0xc>
  401d78:	3a04      	subs	r2, #4
  401d7a:	d3d9      	bcc.n	401d30 <memcpy+0xcc>
  401d7c:	3a01      	subs	r2, #1
  401d7e:	f811 3b01 	ldrb.w	r3, [r1], #1
  401d82:	f800 3b01 	strb.w	r3, [r0], #1
  401d86:	d2f9      	bcs.n	401d7c <memcpy+0x118>
  401d88:	780b      	ldrb	r3, [r1, #0]
  401d8a:	7003      	strb	r3, [r0, #0]
  401d8c:	784b      	ldrb	r3, [r1, #1]
  401d8e:	7043      	strb	r3, [r0, #1]
  401d90:	788b      	ldrb	r3, [r1, #2]
  401d92:	7083      	strb	r3, [r0, #2]
  401d94:	4660      	mov	r0, ip
  401d96:	4770      	bx	lr

00401d98 <memset>:
  401d98:	b470      	push	{r4, r5, r6}
  401d9a:	0786      	lsls	r6, r0, #30
  401d9c:	d046      	beq.n	401e2c <memset+0x94>
  401d9e:	1e54      	subs	r4, r2, #1
  401da0:	2a00      	cmp	r2, #0
  401da2:	d041      	beq.n	401e28 <memset+0x90>
  401da4:	b2ca      	uxtb	r2, r1
  401da6:	4603      	mov	r3, r0
  401da8:	e002      	b.n	401db0 <memset+0x18>
  401daa:	f114 34ff 	adds.w	r4, r4, #4294967295
  401dae:	d33b      	bcc.n	401e28 <memset+0x90>
  401db0:	f803 2b01 	strb.w	r2, [r3], #1
  401db4:	079d      	lsls	r5, r3, #30
  401db6:	d1f8      	bne.n	401daa <memset+0x12>
  401db8:	2c03      	cmp	r4, #3
  401dba:	d92e      	bls.n	401e1a <memset+0x82>
  401dbc:	b2cd      	uxtb	r5, r1
  401dbe:	ea45 2505 	orr.w	r5, r5, r5, lsl #8
  401dc2:	2c0f      	cmp	r4, #15
  401dc4:	ea45 4505 	orr.w	r5, r5, r5, lsl #16
  401dc8:	d919      	bls.n	401dfe <memset+0x66>
  401dca:	f103 0210 	add.w	r2, r3, #16
  401dce:	4626      	mov	r6, r4
  401dd0:	3e10      	subs	r6, #16
  401dd2:	2e0f      	cmp	r6, #15
  401dd4:	f842 5c10 	str.w	r5, [r2, #-16]
  401dd8:	f842 5c0c 	str.w	r5, [r2, #-12]
  401ddc:	f842 5c08 	str.w	r5, [r2, #-8]
  401de0:	f842 5c04 	str.w	r5, [r2, #-4]
  401de4:	f102 0210 	add.w	r2, r2, #16
  401de8:	d8f2      	bhi.n	401dd0 <memset+0x38>
  401dea:	f1a4 0210 	sub.w	r2, r4, #16
  401dee:	f022 020f 	bic.w	r2, r2, #15
  401df2:	f004 040f 	and.w	r4, r4, #15
  401df6:	3210      	adds	r2, #16
  401df8:	2c03      	cmp	r4, #3
  401dfa:	4413      	add	r3, r2
  401dfc:	d90d      	bls.n	401e1a <memset+0x82>
  401dfe:	461e      	mov	r6, r3
  401e00:	4622      	mov	r2, r4
  401e02:	3a04      	subs	r2, #4
  401e04:	2a03      	cmp	r2, #3
  401e06:	f846 5b04 	str.w	r5, [r6], #4
  401e0a:	d8fa      	bhi.n	401e02 <memset+0x6a>
  401e0c:	1f22      	subs	r2, r4, #4
  401e0e:	f022 0203 	bic.w	r2, r2, #3
  401e12:	3204      	adds	r2, #4
  401e14:	4413      	add	r3, r2
  401e16:	f004 0403 	and.w	r4, r4, #3
  401e1a:	b12c      	cbz	r4, 401e28 <memset+0x90>
  401e1c:	b2c9      	uxtb	r1, r1
  401e1e:	441c      	add	r4, r3
  401e20:	f803 1b01 	strb.w	r1, [r3], #1
  401e24:	429c      	cmp	r4, r3
  401e26:	d1fb      	bne.n	401e20 <memset+0x88>
  401e28:	bc70      	pop	{r4, r5, r6}
  401e2a:	4770      	bx	lr
  401e2c:	4614      	mov	r4, r2
  401e2e:	4603      	mov	r3, r0
  401e30:	e7c2      	b.n	401db8 <memset+0x20>
  401e32:	bf00      	nop

00401e34 <setbuf>:
  401e34:	2900      	cmp	r1, #0
  401e36:	bf0c      	ite	eq
  401e38:	2202      	moveq	r2, #2
  401e3a:	2200      	movne	r2, #0
  401e3c:	f44f 6380 	mov.w	r3, #1024	; 0x400
  401e40:	f000 b800 	b.w	401e44 <setvbuf>

00401e44 <setvbuf>:
  401e44:	e92d 43f0 	stmdb	sp!, {r4, r5, r6, r7, r8, r9, lr}
  401e48:	4c50      	ldr	r4, [pc, #320]	; (401f8c <setvbuf+0x148>)
  401e4a:	6825      	ldr	r5, [r4, #0]
  401e4c:	b083      	sub	sp, #12
  401e4e:	4604      	mov	r4, r0
  401e50:	460f      	mov	r7, r1
  401e52:	4690      	mov	r8, r2
  401e54:	461e      	mov	r6, r3
  401e56:	b115      	cbz	r5, 401e5e <setvbuf+0x1a>
  401e58:	6bab      	ldr	r3, [r5, #56]	; 0x38
  401e5a:	2b00      	cmp	r3, #0
  401e5c:	d077      	beq.n	401f4e <setvbuf+0x10a>
  401e5e:	f1b8 0f02 	cmp.w	r8, #2
  401e62:	d004      	beq.n	401e6e <setvbuf+0x2a>
  401e64:	f1b8 0f01 	cmp.w	r8, #1
  401e68:	d87d      	bhi.n	401f66 <setvbuf+0x122>
  401e6a:	2e00      	cmp	r6, #0
  401e6c:	db7b      	blt.n	401f66 <setvbuf+0x122>
  401e6e:	4621      	mov	r1, r4
  401e70:	4628      	mov	r0, r5
  401e72:	f001 f817 	bl	402ea4 <_fflush_r>
  401e76:	6b21      	ldr	r1, [r4, #48]	; 0x30
  401e78:	b141      	cbz	r1, 401e8c <setvbuf+0x48>
  401e7a:	f104 0340 	add.w	r3, r4, #64	; 0x40
  401e7e:	4299      	cmp	r1, r3
  401e80:	d002      	beq.n	401e88 <setvbuf+0x44>
  401e82:	4628      	mov	r0, r5
  401e84:	f001 f978 	bl	403178 <_free_r>
  401e88:	2300      	movs	r3, #0
  401e8a:	6323      	str	r3, [r4, #48]	; 0x30
  401e8c:	f9b4 300c 	ldrsh.w	r3, [r4, #12]
  401e90:	2200      	movs	r2, #0
  401e92:	61a2      	str	r2, [r4, #24]
  401e94:	6062      	str	r2, [r4, #4]
  401e96:	061a      	lsls	r2, r3, #24
  401e98:	d452      	bmi.n	401f40 <setvbuf+0xfc>
  401e9a:	f423 634a 	bic.w	r3, r3, #3232	; 0xca0
  401e9e:	f023 0303 	bic.w	r3, r3, #3
  401ea2:	f1b8 0f02 	cmp.w	r8, #2
  401ea6:	81a3      	strh	r3, [r4, #12]
  401ea8:	d037      	beq.n	401f1a <setvbuf+0xd6>
  401eaa:	ab01      	add	r3, sp, #4
  401eac:	466a      	mov	r2, sp
  401eae:	4621      	mov	r1, r4
  401eb0:	4628      	mov	r0, r5
  401eb2:	f001 fbf7 	bl	4036a4 <__swhatbuf_r>
  401eb6:	89a3      	ldrh	r3, [r4, #12]
  401eb8:	4318      	orrs	r0, r3
  401eba:	81a0      	strh	r0, [r4, #12]
  401ebc:	b316      	cbz	r6, 401f04 <setvbuf+0xc0>
  401ebe:	b317      	cbz	r7, 401f06 <setvbuf+0xc2>
  401ec0:	6bab      	ldr	r3, [r5, #56]	; 0x38
  401ec2:	2b00      	cmp	r3, #0
  401ec4:	d04b      	beq.n	401f5e <setvbuf+0x11a>
  401ec6:	9b00      	ldr	r3, [sp, #0]
  401ec8:	6027      	str	r7, [r4, #0]
  401eca:	429e      	cmp	r6, r3
  401ecc:	f9b4 300c 	ldrsh.w	r3, [r4, #12]
  401ed0:	6127      	str	r7, [r4, #16]
  401ed2:	bf1c      	itt	ne
  401ed4:	f443 6300 	orrne.w	r3, r3, #2048	; 0x800
  401ed8:	81a3      	strhne	r3, [r4, #12]
  401eda:	f1b8 0f01 	cmp.w	r8, #1
  401ede:	bf04      	itt	eq
  401ee0:	f043 0301 	orreq.w	r3, r3, #1
  401ee4:	81a3      	strheq	r3, [r4, #12]
  401ee6:	b29b      	uxth	r3, r3
  401ee8:	f013 0008 	ands.w	r0, r3, #8
  401eec:	6166      	str	r6, [r4, #20]
  401eee:	d023      	beq.n	401f38 <setvbuf+0xf4>
  401ef0:	f013 0001 	ands.w	r0, r3, #1
  401ef4:	d02f      	beq.n	401f56 <setvbuf+0x112>
  401ef6:	2000      	movs	r0, #0
  401ef8:	4276      	negs	r6, r6
  401efa:	61a6      	str	r6, [r4, #24]
  401efc:	60a0      	str	r0, [r4, #8]
  401efe:	b003      	add	sp, #12
  401f00:	e8bd 83f0 	ldmia.w	sp!, {r4, r5, r6, r7, r8, r9, pc}
  401f04:	9e00      	ldr	r6, [sp, #0]
  401f06:	4630      	mov	r0, r6
  401f08:	f001 fc3e 	bl	403788 <malloc>
  401f0c:	4607      	mov	r7, r0
  401f0e:	b368      	cbz	r0, 401f6c <setvbuf+0x128>
  401f10:	89a3      	ldrh	r3, [r4, #12]
  401f12:	f043 0380 	orr.w	r3, r3, #128	; 0x80
  401f16:	81a3      	strh	r3, [r4, #12]
  401f18:	e7d2      	b.n	401ec0 <setvbuf+0x7c>
  401f1a:	2000      	movs	r0, #0
  401f1c:	f104 0243 	add.w	r2, r4, #67	; 0x43
  401f20:	f043 0302 	orr.w	r3, r3, #2
  401f24:	2500      	movs	r5, #0
  401f26:	2101      	movs	r1, #1
  401f28:	81a3      	strh	r3, [r4, #12]
  401f2a:	60a5      	str	r5, [r4, #8]
  401f2c:	6022      	str	r2, [r4, #0]
  401f2e:	6122      	str	r2, [r4, #16]
  401f30:	6161      	str	r1, [r4, #20]
  401f32:	b003      	add	sp, #12
  401f34:	e8bd 83f0 	ldmia.w	sp!, {r4, r5, r6, r7, r8, r9, pc}
  401f38:	60a0      	str	r0, [r4, #8]
  401f3a:	b003      	add	sp, #12
  401f3c:	e8bd 83f0 	ldmia.w	sp!, {r4, r5, r6, r7, r8, r9, pc}
  401f40:	6921      	ldr	r1, [r4, #16]
  401f42:	4628      	mov	r0, r5
  401f44:	f001 f918 	bl	403178 <_free_r>
  401f48:	f9b4 300c 	ldrsh.w	r3, [r4, #12]
  401f4c:	e7a5      	b.n	401e9a <setvbuf+0x56>
  401f4e:	4628      	mov	r0, r5
  401f50:	f001 f83c 	bl	402fcc <__sinit>
  401f54:	e783      	b.n	401e5e <setvbuf+0x1a>
  401f56:	60a6      	str	r6, [r4, #8]
  401f58:	b003      	add	sp, #12
  401f5a:	e8bd 83f0 	ldmia.w	sp!, {r4, r5, r6, r7, r8, r9, pc}
  401f5e:	4628      	mov	r0, r5
  401f60:	f001 f834 	bl	402fcc <__sinit>
  401f64:	e7af      	b.n	401ec6 <setvbuf+0x82>
  401f66:	f04f 30ff 	mov.w	r0, #4294967295
  401f6a:	e7e2      	b.n	401f32 <setvbuf+0xee>
  401f6c:	f8dd 9000 	ldr.w	r9, [sp]
  401f70:	45b1      	cmp	r9, r6
  401f72:	d006      	beq.n	401f82 <setvbuf+0x13e>
  401f74:	4648      	mov	r0, r9
  401f76:	f001 fc07 	bl	403788 <malloc>
  401f7a:	4607      	mov	r7, r0
  401f7c:	b108      	cbz	r0, 401f82 <setvbuf+0x13e>
  401f7e:	464e      	mov	r6, r9
  401f80:	e7c6      	b.n	401f10 <setvbuf+0xcc>
  401f82:	f9b4 300c 	ldrsh.w	r3, [r4, #12]
  401f86:	f04f 30ff 	mov.w	r0, #4294967295
  401f8a:	e7c7      	b.n	401f1c <setvbuf+0xd8>
  401f8c:	20400008 	.word	0x20400008

00401f90 <__sprint_r.part.0>:
  401f90:	e92d 4ff8 	stmdb	sp!, {r3, r4, r5, r6, r7, r8, r9, sl, fp, lr}
  401f94:	6e4b      	ldr	r3, [r1, #100]	; 0x64
  401f96:	049c      	lsls	r4, r3, #18
  401f98:	4693      	mov	fp, r2
  401f9a:	d52f      	bpl.n	401ffc <__sprint_r.part.0+0x6c>
  401f9c:	6893      	ldr	r3, [r2, #8]
  401f9e:	6812      	ldr	r2, [r2, #0]
  401fa0:	b353      	cbz	r3, 401ff8 <__sprint_r.part.0+0x68>
  401fa2:	460e      	mov	r6, r1
  401fa4:	4607      	mov	r7, r0
  401fa6:	f102 0908 	add.w	r9, r2, #8
  401faa:	e919 0420 	ldmdb	r9, {r5, sl}
  401fae:	ea5f 089a 	movs.w	r8, sl, lsr #2
  401fb2:	d017      	beq.n	401fe4 <__sprint_r.part.0+0x54>
  401fb4:	3d04      	subs	r5, #4
  401fb6:	2400      	movs	r4, #0
  401fb8:	e001      	b.n	401fbe <__sprint_r.part.0+0x2e>
  401fba:	45a0      	cmp	r8, r4
  401fbc:	d010      	beq.n	401fe0 <__sprint_r.part.0+0x50>
  401fbe:	4632      	mov	r2, r6
  401fc0:	f855 1f04 	ldr.w	r1, [r5, #4]!
  401fc4:	4638      	mov	r0, r7
  401fc6:	f001 f875 	bl	4030b4 <_fputwc_r>
  401fca:	1c43      	adds	r3, r0, #1
  401fcc:	f104 0401 	add.w	r4, r4, #1
  401fd0:	d1f3      	bne.n	401fba <__sprint_r.part.0+0x2a>
  401fd2:	2300      	movs	r3, #0
  401fd4:	f8cb 3008 	str.w	r3, [fp, #8]
  401fd8:	f8cb 3004 	str.w	r3, [fp, #4]
  401fdc:	e8bd 8ff8 	ldmia.w	sp!, {r3, r4, r5, r6, r7, r8, r9, sl, fp, pc}
  401fe0:	f8db 3008 	ldr.w	r3, [fp, #8]
  401fe4:	f02a 0a03 	bic.w	sl, sl, #3
  401fe8:	eba3 030a 	sub.w	r3, r3, sl
  401fec:	f8cb 3008 	str.w	r3, [fp, #8]
  401ff0:	f109 0908 	add.w	r9, r9, #8
  401ff4:	2b00      	cmp	r3, #0
  401ff6:	d1d8      	bne.n	401faa <__sprint_r.part.0+0x1a>
  401ff8:	2000      	movs	r0, #0
  401ffa:	e7ea      	b.n	401fd2 <__sprint_r.part.0+0x42>
  401ffc:	f001 f9a2 	bl	403344 <__sfvwrite_r>
  402000:	2300      	movs	r3, #0
  402002:	f8cb 3008 	str.w	r3, [fp, #8]
  402006:	f8cb 3004 	str.w	r3, [fp, #4]
  40200a:	e8bd 8ff8 	ldmia.w	sp!, {r3, r4, r5, r6, r7, r8, r9, sl, fp, pc}
  40200e:	bf00      	nop

00402010 <_vfiprintf_r>:
  402010:	e92d 4ff0 	stmdb	sp!, {r4, r5, r6, r7, r8, r9, sl, fp, lr}
  402014:	b0ad      	sub	sp, #180	; 0xb4
  402016:	461d      	mov	r5, r3
  402018:	9101      	str	r1, [sp, #4]
  40201a:	4691      	mov	r9, r2
  40201c:	9308      	str	r3, [sp, #32]
  40201e:	9006      	str	r0, [sp, #24]
  402020:	b118      	cbz	r0, 40202a <_vfiprintf_r+0x1a>
  402022:	6b83      	ldr	r3, [r0, #56]	; 0x38
  402024:	2b00      	cmp	r3, #0
  402026:	f000 80e0 	beq.w	4021ea <_vfiprintf_r+0x1da>
  40202a:	9c01      	ldr	r4, [sp, #4]
  40202c:	f9b4 000c 	ldrsh.w	r0, [r4, #12]
  402030:	b281      	uxth	r1, r0
  402032:	048b      	lsls	r3, r1, #18
  402034:	d407      	bmi.n	402046 <_vfiprintf_r+0x36>
  402036:	6e63      	ldr	r3, [r4, #100]	; 0x64
  402038:	f440 5100 	orr.w	r1, r0, #8192	; 0x2000
  40203c:	f423 5300 	bic.w	r3, r3, #8192	; 0x2000
  402040:	81a1      	strh	r1, [r4, #12]
  402042:	6663      	str	r3, [r4, #100]	; 0x64
  402044:	b289      	uxth	r1, r1
  402046:	070f      	lsls	r7, r1, #28
  402048:	f140 80b1 	bpl.w	4021ae <_vfiprintf_r+0x19e>
  40204c:	9b01      	ldr	r3, [sp, #4]
  40204e:	691b      	ldr	r3, [r3, #16]
  402050:	2b00      	cmp	r3, #0
  402052:	f000 80ac 	beq.w	4021ae <_vfiprintf_r+0x19e>
  402056:	f001 011a 	and.w	r1, r1, #26
  40205a:	290a      	cmp	r1, #10
  40205c:	f000 80b5 	beq.w	4021ca <_vfiprintf_r+0x1ba>
  402060:	2300      	movs	r3, #0
  402062:	f10d 0b70 	add.w	fp, sp, #112	; 0x70
  402066:	930b      	str	r3, [sp, #44]	; 0x2c
  402068:	9311      	str	r3, [sp, #68]	; 0x44
  40206a:	9310      	str	r3, [sp, #64]	; 0x40
  40206c:	9304      	str	r3, [sp, #16]
  40206e:	f8cd b03c 	str.w	fp, [sp, #60]	; 0x3c
  402072:	46da      	mov	sl, fp
  402074:	f899 3000 	ldrb.w	r3, [r9]
  402078:	464c      	mov	r4, r9
  40207a:	b1fb      	cbz	r3, 4020bc <_vfiprintf_r+0xac>
  40207c:	2b25      	cmp	r3, #37	; 0x25
  40207e:	d102      	bne.n	402086 <_vfiprintf_r+0x76>
  402080:	e01c      	b.n	4020bc <_vfiprintf_r+0xac>
  402082:	2b25      	cmp	r3, #37	; 0x25
  402084:	d003      	beq.n	40208e <_vfiprintf_r+0x7e>
  402086:	f814 3f01 	ldrb.w	r3, [r4, #1]!
  40208a:	2b00      	cmp	r3, #0
  40208c:	d1f9      	bne.n	402082 <_vfiprintf_r+0x72>
  40208e:	eba4 0509 	sub.w	r5, r4, r9
  402092:	b19d      	cbz	r5, 4020bc <_vfiprintf_r+0xac>
  402094:	9b10      	ldr	r3, [sp, #64]	; 0x40
  402096:	9a11      	ldr	r2, [sp, #68]	; 0x44
  402098:	f8ca 9000 	str.w	r9, [sl]
  40209c:	3301      	adds	r3, #1
  40209e:	442a      	add	r2, r5
  4020a0:	2b07      	cmp	r3, #7
  4020a2:	f8ca 5004 	str.w	r5, [sl, #4]
  4020a6:	9211      	str	r2, [sp, #68]	; 0x44
  4020a8:	9310      	str	r3, [sp, #64]	; 0x40
  4020aa:	dd7a      	ble.n	4021a2 <_vfiprintf_r+0x192>
  4020ac:	2a00      	cmp	r2, #0
  4020ae:	f040 848f 	bne.w	4029d0 <_vfiprintf_r+0x9c0>
  4020b2:	9b04      	ldr	r3, [sp, #16]
  4020b4:	9210      	str	r2, [sp, #64]	; 0x40
  4020b6:	442b      	add	r3, r5
  4020b8:	46da      	mov	sl, fp
  4020ba:	9304      	str	r3, [sp, #16]
  4020bc:	7823      	ldrb	r3, [r4, #0]
  4020be:	2b00      	cmp	r3, #0
  4020c0:	f000 83b1 	beq.w	402826 <_vfiprintf_r+0x816>
  4020c4:	2000      	movs	r0, #0
  4020c6:	f04f 0300 	mov.w	r3, #0
  4020ca:	f88d 3037 	strb.w	r3, [sp, #55]	; 0x37
  4020ce:	f104 0901 	add.w	r9, r4, #1
  4020d2:	7862      	ldrb	r2, [r4, #1]
  4020d4:	4605      	mov	r5, r0
  4020d6:	4606      	mov	r6, r0
  4020d8:	4603      	mov	r3, r0
  4020da:	f04f 34ff 	mov.w	r4, #4294967295
  4020de:	f109 0901 	add.w	r9, r9, #1
  4020e2:	f1a2 0120 	sub.w	r1, r2, #32
  4020e6:	2958      	cmp	r1, #88	; 0x58
  4020e8:	f200 830e 	bhi.w	402708 <_vfiprintf_r+0x6f8>
  4020ec:	e8df f011 	tbh	[pc, r1, lsl #1]
  4020f0:	030c0237 	.word	0x030c0237
  4020f4:	02eb030c 	.word	0x02eb030c
  4020f8:	030c030c 	.word	0x030c030c
  4020fc:	030c030c 	.word	0x030c030c
  402100:	030c030c 	.word	0x030c030c
  402104:	02f0029e 	.word	0x02f0029e
  402108:	0082030c 	.word	0x0082030c
  40210c:	030c0277 	.word	0x030c0277
  402110:	01d401cf 	.word	0x01d401cf
  402114:	01d401d4 	.word	0x01d401d4
  402118:	01d401d4 	.word	0x01d401d4
  40211c:	01d401d4 	.word	0x01d401d4
  402120:	01d401d4 	.word	0x01d401d4
  402124:	030c030c 	.word	0x030c030c
  402128:	030c030c 	.word	0x030c030c
  40212c:	030c030c 	.word	0x030c030c
  402130:	030c030c 	.word	0x030c030c
  402134:	030c030c 	.word	0x030c030c
  402138:	030c023f 	.word	0x030c023f
  40213c:	030c030c 	.word	0x030c030c
  402140:	030c030c 	.word	0x030c030c
  402144:	030c030c 	.word	0x030c030c
  402148:	030c030c 	.word	0x030c030c
  40214c:	0246030c 	.word	0x0246030c
  402150:	030c030c 	.word	0x030c030c
  402154:	030c030c 	.word	0x030c030c
  402158:	024a030c 	.word	0x024a030c
  40215c:	030c030c 	.word	0x030c030c
  402160:	030c0252 	.word	0x030c0252
  402164:	030c030c 	.word	0x030c030c
  402168:	030c030c 	.word	0x030c030c
  40216c:	030c030c 	.word	0x030c030c
  402170:	030c030c 	.word	0x030c030c
  402174:	01e2030c 	.word	0x01e2030c
  402178:	030c01f6 	.word	0x030c01f6
  40217c:	030c030c 	.word	0x030c030c
  402180:	01f60307 	.word	0x01f60307
  402184:	030c030c 	.word	0x030c030c
  402188:	030c0291 	.word	0x030c0291
  40218c:	008702f5 	.word	0x008702f5
  402190:	02c302b1 	.word	0x02c302b1
  402194:	02c8030c 	.word	0x02c8030c
  402198:	01bd030c 	.word	0x01bd030c
  40219c:	030c030c 	.word	0x030c030c
  4021a0:	02aa      	.short	0x02aa
  4021a2:	f10a 0a08 	add.w	sl, sl, #8
  4021a6:	9b04      	ldr	r3, [sp, #16]
  4021a8:	442b      	add	r3, r5
  4021aa:	9304      	str	r3, [sp, #16]
  4021ac:	e786      	b.n	4020bc <_vfiprintf_r+0xac>
  4021ae:	9c01      	ldr	r4, [sp, #4]
  4021b0:	9806      	ldr	r0, [sp, #24]
  4021b2:	4621      	mov	r1, r4
  4021b4:	f000 fd62 	bl	402c7c <__swsetup_r>
  4021b8:	2800      	cmp	r0, #0
  4021ba:	f040 8340 	bne.w	40283e <_vfiprintf_r+0x82e>
  4021be:	89a1      	ldrh	r1, [r4, #12]
  4021c0:	f001 011a 	and.w	r1, r1, #26
  4021c4:	290a      	cmp	r1, #10
  4021c6:	f47f af4b 	bne.w	402060 <_vfiprintf_r+0x50>
  4021ca:	9901      	ldr	r1, [sp, #4]
  4021cc:	f9b1 300e 	ldrsh.w	r3, [r1, #14]
  4021d0:	2b00      	cmp	r3, #0
  4021d2:	f6ff af45 	blt.w	402060 <_vfiprintf_r+0x50>
  4021d6:	462b      	mov	r3, r5
  4021d8:	464a      	mov	r2, r9
  4021da:	9806      	ldr	r0, [sp, #24]
  4021dc:	f000 fd18 	bl	402c10 <__sbprintf>
  4021e0:	9004      	str	r0, [sp, #16]
  4021e2:	9804      	ldr	r0, [sp, #16]
  4021e4:	b02d      	add	sp, #180	; 0xb4
  4021e6:	e8bd 8ff0 	ldmia.w	sp!, {r4, r5, r6, r7, r8, r9, sl, fp, pc}
  4021ea:	f000 feef 	bl	402fcc <__sinit>
  4021ee:	e71c      	b.n	40202a <_vfiprintf_r+0x1a>
  4021f0:	4276      	negs	r6, r6
  4021f2:	9208      	str	r2, [sp, #32]
  4021f4:	f043 0304 	orr.w	r3, r3, #4
  4021f8:	f899 2000 	ldrb.w	r2, [r9]
  4021fc:	e76f      	b.n	4020de <_vfiprintf_r+0xce>
  4021fe:	9607      	str	r6, [sp, #28]
  402200:	f013 0220 	ands.w	r2, r3, #32
  402204:	f040 845a 	bne.w	402abc <_vfiprintf_r+0xaac>
  402208:	f013 0110 	ands.w	r1, r3, #16
  40220c:	f040 83f1 	bne.w	4029f2 <_vfiprintf_r+0x9e2>
  402210:	f013 0240 	ands.w	r2, r3, #64	; 0x40
  402214:	f000 83ed 	beq.w	4029f2 <_vfiprintf_r+0x9e2>
  402218:	9808      	ldr	r0, [sp, #32]
  40221a:	460a      	mov	r2, r1
  40221c:	4601      	mov	r1, r0
  40221e:	3104      	adds	r1, #4
  402220:	8806      	ldrh	r6, [r0, #0]
  402222:	9108      	str	r1, [sp, #32]
  402224:	2700      	movs	r7, #0
  402226:	f04f 0100 	mov.w	r1, #0
  40222a:	f88d 1037 	strb.w	r1, [sp, #55]	; 0x37
  40222e:	2500      	movs	r5, #0
  402230:	1c61      	adds	r1, r4, #1
  402232:	f000 8175 	beq.w	402520 <_vfiprintf_r+0x510>
  402236:	f023 0180 	bic.w	r1, r3, #128	; 0x80
  40223a:	9103      	str	r1, [sp, #12]
  40223c:	ea56 0107 	orrs.w	r1, r6, r7
  402240:	f040 8173 	bne.w	40252a <_vfiprintf_r+0x51a>
  402244:	2c00      	cmp	r4, #0
  402246:	f040 8356 	bne.w	4028f6 <_vfiprintf_r+0x8e6>
  40224a:	2a00      	cmp	r2, #0
  40224c:	f040 83b2 	bne.w	4029b4 <_vfiprintf_r+0x9a4>
  402250:	f013 0301 	ands.w	r3, r3, #1
  402254:	9305      	str	r3, [sp, #20]
  402256:	f000 8447 	beq.w	402ae8 <_vfiprintf_r+0xad8>
  40225a:	f10d 08b0 	add.w	r8, sp, #176	; 0xb0
  40225e:	2330      	movs	r3, #48	; 0x30
  402260:	f808 3d41 	strb.w	r3, [r8, #-65]!
  402264:	9b05      	ldr	r3, [sp, #20]
  402266:	42a3      	cmp	r3, r4
  402268:	bfb8      	it	lt
  40226a:	4623      	movlt	r3, r4
  40226c:	9302      	str	r3, [sp, #8]
  40226e:	b10d      	cbz	r5, 402274 <_vfiprintf_r+0x264>
  402270:	3301      	adds	r3, #1
  402272:	9302      	str	r3, [sp, #8]
  402274:	9b03      	ldr	r3, [sp, #12]
  402276:	f013 0302 	ands.w	r3, r3, #2
  40227a:	9309      	str	r3, [sp, #36]	; 0x24
  40227c:	d002      	beq.n	402284 <_vfiprintf_r+0x274>
  40227e:	9b02      	ldr	r3, [sp, #8]
  402280:	3302      	adds	r3, #2
  402282:	9302      	str	r3, [sp, #8]
  402284:	9b03      	ldr	r3, [sp, #12]
  402286:	f013 0384 	ands.w	r3, r3, #132	; 0x84
  40228a:	930a      	str	r3, [sp, #40]	; 0x28
  40228c:	f040 8263 	bne.w	402756 <_vfiprintf_r+0x746>
  402290:	9b07      	ldr	r3, [sp, #28]
  402292:	9a02      	ldr	r2, [sp, #8]
  402294:	1a9d      	subs	r5, r3, r2
  402296:	2d00      	cmp	r5, #0
  402298:	f340 825d 	ble.w	402756 <_vfiprintf_r+0x746>
  40229c:	2d10      	cmp	r5, #16
  40229e:	f340 8477 	ble.w	402b90 <_vfiprintf_r+0xb80>
  4022a2:	9b10      	ldr	r3, [sp, #64]	; 0x40
  4022a4:	9a11      	ldr	r2, [sp, #68]	; 0x44
  4022a6:	4eb9      	ldr	r6, [pc, #740]	; (40258c <_vfiprintf_r+0x57c>)
  4022a8:	46d6      	mov	lr, sl
  4022aa:	2710      	movs	r7, #16
  4022ac:	46a2      	mov	sl, r4
  4022ae:	4619      	mov	r1, r3
  4022b0:	9c06      	ldr	r4, [sp, #24]
  4022b2:	e007      	b.n	4022c4 <_vfiprintf_r+0x2b4>
  4022b4:	f101 0c02 	add.w	ip, r1, #2
  4022b8:	f10e 0e08 	add.w	lr, lr, #8
  4022bc:	4601      	mov	r1, r0
  4022be:	3d10      	subs	r5, #16
  4022c0:	2d10      	cmp	r5, #16
  4022c2:	dd11      	ble.n	4022e8 <_vfiprintf_r+0x2d8>
  4022c4:	1c48      	adds	r0, r1, #1
  4022c6:	3210      	adds	r2, #16
  4022c8:	2807      	cmp	r0, #7
  4022ca:	9211      	str	r2, [sp, #68]	; 0x44
  4022cc:	e88e 00c0 	stmia.w	lr, {r6, r7}
  4022d0:	9010      	str	r0, [sp, #64]	; 0x40
  4022d2:	ddef      	ble.n	4022b4 <_vfiprintf_r+0x2a4>
  4022d4:	2a00      	cmp	r2, #0
  4022d6:	f040 8231 	bne.w	40273c <_vfiprintf_r+0x72c>
  4022da:	3d10      	subs	r5, #16
  4022dc:	2d10      	cmp	r5, #16
  4022de:	4611      	mov	r1, r2
  4022e0:	f04f 0c01 	mov.w	ip, #1
  4022e4:	46de      	mov	lr, fp
  4022e6:	dced      	bgt.n	4022c4 <_vfiprintf_r+0x2b4>
  4022e8:	4654      	mov	r4, sl
  4022ea:	4661      	mov	r1, ip
  4022ec:	46f2      	mov	sl, lr
  4022ee:	442a      	add	r2, r5
  4022f0:	2907      	cmp	r1, #7
  4022f2:	9211      	str	r2, [sp, #68]	; 0x44
  4022f4:	f8ca 6000 	str.w	r6, [sl]
  4022f8:	f8ca 5004 	str.w	r5, [sl, #4]
  4022fc:	9110      	str	r1, [sp, #64]	; 0x40
  4022fe:	f300 82e6 	bgt.w	4028ce <_vfiprintf_r+0x8be>
  402302:	f89d 5037 	ldrb.w	r5, [sp, #55]	; 0x37
  402306:	f10a 0a08 	add.w	sl, sl, #8
  40230a:	1c48      	adds	r0, r1, #1
  40230c:	2d00      	cmp	r5, #0
  40230e:	f040 822a 	bne.w	402766 <_vfiprintf_r+0x756>
  402312:	9b09      	ldr	r3, [sp, #36]	; 0x24
  402314:	2b00      	cmp	r3, #0
  402316:	f000 8244 	beq.w	4027a2 <_vfiprintf_r+0x792>
  40231a:	3202      	adds	r2, #2
  40231c:	a90e      	add	r1, sp, #56	; 0x38
  40231e:	2302      	movs	r3, #2
  402320:	2807      	cmp	r0, #7
  402322:	9211      	str	r2, [sp, #68]	; 0x44
  402324:	9010      	str	r0, [sp, #64]	; 0x40
  402326:	e88a 000a 	stmia.w	sl, {r1, r3}
  40232a:	f340 8236 	ble.w	40279a <_vfiprintf_r+0x78a>
  40232e:	2a00      	cmp	r2, #0
  402330:	f040 838b 	bne.w	402a4a <_vfiprintf_r+0xa3a>
  402334:	9b0a      	ldr	r3, [sp, #40]	; 0x28
  402336:	2b80      	cmp	r3, #128	; 0x80
  402338:	f04f 0001 	mov.w	r0, #1
  40233c:	4611      	mov	r1, r2
  40233e:	46da      	mov	sl, fp
  402340:	f040 8233 	bne.w	4027aa <_vfiprintf_r+0x79a>
  402344:	9b07      	ldr	r3, [sp, #28]
  402346:	9d02      	ldr	r5, [sp, #8]
  402348:	1b5e      	subs	r6, r3, r5
  40234a:	2e00      	cmp	r6, #0
  40234c:	f340 822d 	ble.w	4027aa <_vfiprintf_r+0x79a>
  402350:	2e10      	cmp	r6, #16
  402352:	4d8f      	ldr	r5, [pc, #572]	; (402590 <_vfiprintf_r+0x580>)
  402354:	f340 842f 	ble.w	402bb6 <_vfiprintf_r+0xba6>
  402358:	46d4      	mov	ip, sl
  40235a:	2710      	movs	r7, #16
  40235c:	46a2      	mov	sl, r4
  40235e:	9c06      	ldr	r4, [sp, #24]
  402360:	e007      	b.n	402372 <_vfiprintf_r+0x362>
  402362:	f101 0e02 	add.w	lr, r1, #2
  402366:	f10c 0c08 	add.w	ip, ip, #8
  40236a:	4601      	mov	r1, r0
  40236c:	3e10      	subs	r6, #16
  40236e:	2e10      	cmp	r6, #16
  402370:	dd11      	ble.n	402396 <_vfiprintf_r+0x386>
  402372:	1c48      	adds	r0, r1, #1
  402374:	3210      	adds	r2, #16
  402376:	2807      	cmp	r0, #7
  402378:	9211      	str	r2, [sp, #68]	; 0x44
  40237a:	e88c 00a0 	stmia.w	ip, {r5, r7}
  40237e:	9010      	str	r0, [sp, #64]	; 0x40
  402380:	ddef      	ble.n	402362 <_vfiprintf_r+0x352>
  402382:	2a00      	cmp	r2, #0
  402384:	f040 8296 	bne.w	4028b4 <_vfiprintf_r+0x8a4>
  402388:	3e10      	subs	r6, #16
  40238a:	2e10      	cmp	r6, #16
  40238c:	f04f 0e01 	mov.w	lr, #1
  402390:	4611      	mov	r1, r2
  402392:	46dc      	mov	ip, fp
  402394:	dced      	bgt.n	402372 <_vfiprintf_r+0x362>
  402396:	4654      	mov	r4, sl
  402398:	46e2      	mov	sl, ip
  40239a:	4432      	add	r2, r6
  40239c:	f1be 0f07 	cmp.w	lr, #7
  4023a0:	9211      	str	r2, [sp, #68]	; 0x44
  4023a2:	e88a 0060 	stmia.w	sl, {r5, r6}
  4023a6:	f8cd e040 	str.w	lr, [sp, #64]	; 0x40
  4023aa:	f300 835b 	bgt.w	402a64 <_vfiprintf_r+0xa54>
  4023ae:	9b05      	ldr	r3, [sp, #20]
  4023b0:	1ae4      	subs	r4, r4, r3
  4023b2:	2c00      	cmp	r4, #0
  4023b4:	f10a 0a08 	add.w	sl, sl, #8
  4023b8:	f10e 0001 	add.w	r0, lr, #1
  4023bc:	4671      	mov	r1, lr
  4023be:	f300 81f9 	bgt.w	4027b4 <_vfiprintf_r+0x7a4>
  4023c2:	9905      	ldr	r1, [sp, #20]
  4023c4:	f8ca 8000 	str.w	r8, [sl]
  4023c8:	440a      	add	r2, r1
  4023ca:	2807      	cmp	r0, #7
  4023cc:	9211      	str	r2, [sp, #68]	; 0x44
  4023ce:	f8ca 1004 	str.w	r1, [sl, #4]
  4023d2:	9010      	str	r0, [sp, #64]	; 0x40
  4023d4:	f340 8255 	ble.w	402882 <_vfiprintf_r+0x872>
  4023d8:	2a00      	cmp	r2, #0
  4023da:	f040 82ee 	bne.w	4029ba <_vfiprintf_r+0x9aa>
  4023de:	9b03      	ldr	r3, [sp, #12]
  4023e0:	9210      	str	r2, [sp, #64]	; 0x40
  4023e2:	0758      	lsls	r0, r3, #29
  4023e4:	d538      	bpl.n	402458 <_vfiprintf_r+0x448>
  4023e6:	9b07      	ldr	r3, [sp, #28]
  4023e8:	9902      	ldr	r1, [sp, #8]
  4023ea:	1a5c      	subs	r4, r3, r1
  4023ec:	2c00      	cmp	r4, #0
  4023ee:	f340 82ba 	ble.w	402966 <_vfiprintf_r+0x956>
  4023f2:	46da      	mov	sl, fp
  4023f4:	2c10      	cmp	r4, #16
  4023f6:	f340 83da 	ble.w	402bae <_vfiprintf_r+0xb9e>
  4023fa:	9910      	ldr	r1, [sp, #64]	; 0x40
  4023fc:	4e63      	ldr	r6, [pc, #396]	; (40258c <_vfiprintf_r+0x57c>)
  4023fe:	9f06      	ldr	r7, [sp, #24]
  402400:	f8dd 8004 	ldr.w	r8, [sp, #4]
  402404:	2510      	movs	r5, #16
  402406:	e006      	b.n	402416 <_vfiprintf_r+0x406>
  402408:	1c88      	adds	r0, r1, #2
  40240a:	f10a 0a08 	add.w	sl, sl, #8
  40240e:	4619      	mov	r1, r3
  402410:	3c10      	subs	r4, #16
  402412:	2c10      	cmp	r4, #16
  402414:	dd13      	ble.n	40243e <_vfiprintf_r+0x42e>
  402416:	1c4b      	adds	r3, r1, #1
  402418:	3210      	adds	r2, #16
  40241a:	2b07      	cmp	r3, #7
  40241c:	9211      	str	r2, [sp, #68]	; 0x44
  40241e:	f8ca 6000 	str.w	r6, [sl]
  402422:	f8ca 5004 	str.w	r5, [sl, #4]
  402426:	9310      	str	r3, [sp, #64]	; 0x40
  402428:	ddee      	ble.n	402408 <_vfiprintf_r+0x3f8>
  40242a:	2a00      	cmp	r2, #0
  40242c:	f040 820b 	bne.w	402846 <_vfiprintf_r+0x836>
  402430:	3c10      	subs	r4, #16
  402432:	2c10      	cmp	r4, #16
  402434:	f04f 0001 	mov.w	r0, #1
  402438:	4611      	mov	r1, r2
  40243a:	46da      	mov	sl, fp
  40243c:	dceb      	bgt.n	402416 <_vfiprintf_r+0x406>
  40243e:	4422      	add	r2, r4
  402440:	2807      	cmp	r0, #7
  402442:	9211      	str	r2, [sp, #68]	; 0x44
  402444:	f8ca 6000 	str.w	r6, [sl]
  402448:	f8ca 4004 	str.w	r4, [sl, #4]
  40244c:	9010      	str	r0, [sp, #64]	; 0x40
  40244e:	f340 8223 	ble.w	402898 <_vfiprintf_r+0x888>
  402452:	2a00      	cmp	r2, #0
  402454:	f040 8367 	bne.w	402b26 <_vfiprintf_r+0xb16>
  402458:	9b04      	ldr	r3, [sp, #16]
  40245a:	9a07      	ldr	r2, [sp, #28]
  40245c:	9902      	ldr	r1, [sp, #8]
  40245e:	428a      	cmp	r2, r1
  402460:	bfac      	ite	ge
  402462:	189b      	addge	r3, r3, r2
  402464:	185b      	addlt	r3, r3, r1
  402466:	9304      	str	r3, [sp, #16]
  402468:	e21f      	b.n	4028aa <_vfiprintf_r+0x89a>
  40246a:	9607      	str	r6, [sp, #28]
  40246c:	069e      	lsls	r6, r3, #26
  40246e:	f100 8319 	bmi.w	402aa4 <_vfiprintf_r+0xa94>
  402472:	9908      	ldr	r1, [sp, #32]
  402474:	06dd      	lsls	r5, r3, #27
  402476:	460a      	mov	r2, r1
  402478:	f100 82b5 	bmi.w	4029e6 <_vfiprintf_r+0x9d6>
  40247c:	0658      	lsls	r0, r3, #25
  40247e:	f140 82b2 	bpl.w	4029e6 <_vfiprintf_r+0x9d6>
  402482:	880e      	ldrh	r6, [r1, #0]
  402484:	3104      	adds	r1, #4
  402486:	2700      	movs	r7, #0
  402488:	2201      	movs	r2, #1
  40248a:	9108      	str	r1, [sp, #32]
  40248c:	e6cb      	b.n	402226 <_vfiprintf_r+0x216>
  40248e:	f043 0380 	orr.w	r3, r3, #128	; 0x80
  402492:	f899 2000 	ldrb.w	r2, [r9]
  402496:	e622      	b.n	4020de <_vfiprintf_r+0xce>
  402498:	f1a2 0130 	sub.w	r1, r2, #48	; 0x30
  40249c:	2600      	movs	r6, #0
  40249e:	f819 2b01 	ldrb.w	r2, [r9], #1
  4024a2:	eb06 0686 	add.w	r6, r6, r6, lsl #2
  4024a6:	eb01 0646 	add.w	r6, r1, r6, lsl #1
  4024aa:	f1a2 0130 	sub.w	r1, r2, #48	; 0x30
  4024ae:	2909      	cmp	r1, #9
  4024b0:	d9f5      	bls.n	40249e <_vfiprintf_r+0x48e>
  4024b2:	e616      	b.n	4020e2 <_vfiprintf_r+0xd2>
  4024b4:	9908      	ldr	r1, [sp, #32]
  4024b6:	9607      	str	r6, [sp, #28]
  4024b8:	680a      	ldr	r2, [r1, #0]
  4024ba:	f88d 2048 	strb.w	r2, [sp, #72]	; 0x48
  4024be:	f04f 0000 	mov.w	r0, #0
  4024c2:	460a      	mov	r2, r1
  4024c4:	f88d 0037 	strb.w	r0, [sp, #55]	; 0x37
  4024c8:	3204      	adds	r2, #4
  4024ca:	2001      	movs	r0, #1
  4024cc:	9002      	str	r0, [sp, #8]
  4024ce:	9208      	str	r2, [sp, #32]
  4024d0:	9005      	str	r0, [sp, #20]
  4024d2:	f10d 0848 	add.w	r8, sp, #72	; 0x48
  4024d6:	9303      	str	r3, [sp, #12]
  4024d8:	2400      	movs	r4, #0
  4024da:	e6cb      	b.n	402274 <_vfiprintf_r+0x264>
  4024dc:	9607      	str	r6, [sp, #28]
  4024de:	2800      	cmp	r0, #0
  4024e0:	f040 8382 	bne.w	402be8 <_vfiprintf_r+0xbd8>
  4024e4:	069e      	lsls	r6, r3, #26
  4024e6:	f100 82d1 	bmi.w	402a8c <_vfiprintf_r+0xa7c>
  4024ea:	06dd      	lsls	r5, r3, #27
  4024ec:	f100 828d 	bmi.w	402a0a <_vfiprintf_r+0x9fa>
  4024f0:	0658      	lsls	r0, r3, #25
  4024f2:	f140 828a 	bpl.w	402a0a <_vfiprintf_r+0x9fa>
  4024f6:	9d08      	ldr	r5, [sp, #32]
  4024f8:	f9b5 6000 	ldrsh.w	r6, [r5]
  4024fc:	462a      	mov	r2, r5
  4024fe:	17f7      	asrs	r7, r6, #31
  402500:	3204      	adds	r2, #4
  402502:	4630      	mov	r0, r6
  402504:	4639      	mov	r1, r7
  402506:	9208      	str	r2, [sp, #32]
  402508:	2800      	cmp	r0, #0
  40250a:	f171 0200 	sbcs.w	r2, r1, #0
  40250e:	f2c0 82ee 	blt.w	402aee <_vfiprintf_r+0xade>
  402512:	1c61      	adds	r1, r4, #1
  402514:	f89d 5037 	ldrb.w	r5, [sp, #55]	; 0x37
  402518:	f04f 0201 	mov.w	r2, #1
  40251c:	f47f ae8b 	bne.w	402236 <_vfiprintf_r+0x226>
  402520:	ea56 0107 	orrs.w	r1, r6, r7
  402524:	f000 81e8 	beq.w	4028f8 <_vfiprintf_r+0x8e8>
  402528:	9303      	str	r3, [sp, #12]
  40252a:	2a01      	cmp	r2, #1
  40252c:	f000 8225 	beq.w	40297a <_vfiprintf_r+0x96a>
  402530:	2a02      	cmp	r2, #2
  402532:	f040 81f5 	bne.w	402920 <_vfiprintf_r+0x910>
  402536:	980b      	ldr	r0, [sp, #44]	; 0x2c
  402538:	46d8      	mov	r8, fp
  40253a:	0933      	lsrs	r3, r6, #4
  40253c:	f006 010f 	and.w	r1, r6, #15
  402540:	ea43 7307 	orr.w	r3, r3, r7, lsl #28
  402544:	093a      	lsrs	r2, r7, #4
  402546:	461e      	mov	r6, r3
  402548:	4617      	mov	r7, r2
  40254a:	5c43      	ldrb	r3, [r0, r1]
  40254c:	f808 3d01 	strb.w	r3, [r8, #-1]!
  402550:	ea56 0307 	orrs.w	r3, r6, r7
  402554:	d1f1      	bne.n	40253a <_vfiprintf_r+0x52a>
  402556:	ebab 0308 	sub.w	r3, fp, r8
  40255a:	9305      	str	r3, [sp, #20]
  40255c:	e682      	b.n	402264 <_vfiprintf_r+0x254>
  40255e:	f899 2000 	ldrb.w	r2, [r9]
  402562:	2d00      	cmp	r5, #0
  402564:	f47f adbb 	bne.w	4020de <_vfiprintf_r+0xce>
  402568:	2001      	movs	r0, #1
  40256a:	2520      	movs	r5, #32
  40256c:	e5b7      	b.n	4020de <_vfiprintf_r+0xce>
  40256e:	9607      	str	r6, [sp, #28]
  402570:	2800      	cmp	r0, #0
  402572:	f040 8336 	bne.w	402be2 <_vfiprintf_r+0xbd2>
  402576:	f043 0310 	orr.w	r3, r3, #16
  40257a:	e7b3      	b.n	4024e4 <_vfiprintf_r+0x4d4>
  40257c:	9607      	str	r6, [sp, #28]
  40257e:	f043 0310 	orr.w	r3, r3, #16
  402582:	e63d      	b.n	402200 <_vfiprintf_r+0x1f0>
  402584:	9607      	str	r6, [sp, #28]
  402586:	f043 0310 	orr.w	r3, r3, #16
  40258a:	e76f      	b.n	40246c <_vfiprintf_r+0x45c>
  40258c:	00423444 	.word	0x00423444
  402590:	00423454 	.word	0x00423454
  402594:	9607      	str	r6, [sp, #28]
  402596:	2800      	cmp	r0, #0
  402598:	f040 832c 	bne.w	402bf4 <_vfiprintf_r+0xbe4>
  40259c:	49b0      	ldr	r1, [pc, #704]	; (402860 <_vfiprintf_r+0x850>)
  40259e:	910b      	str	r1, [sp, #44]	; 0x2c
  4025a0:	069f      	lsls	r7, r3, #26
  4025a2:	f100 8297 	bmi.w	402ad4 <_vfiprintf_r+0xac4>
  4025a6:	9808      	ldr	r0, [sp, #32]
  4025a8:	06de      	lsls	r6, r3, #27
  4025aa:	4601      	mov	r1, r0
  4025ac:	f100 8228 	bmi.w	402a00 <_vfiprintf_r+0x9f0>
  4025b0:	065d      	lsls	r5, r3, #25
  4025b2:	f140 8225 	bpl.w	402a00 <_vfiprintf_r+0x9f0>
  4025b6:	3104      	adds	r1, #4
  4025b8:	8806      	ldrh	r6, [r0, #0]
  4025ba:	9108      	str	r1, [sp, #32]
  4025bc:	2700      	movs	r7, #0
  4025be:	07d8      	lsls	r0, r3, #31
  4025c0:	f140 81d9 	bpl.w	402976 <_vfiprintf_r+0x966>
  4025c4:	ea56 0107 	orrs.w	r1, r6, r7
  4025c8:	f000 81d5 	beq.w	402976 <_vfiprintf_r+0x966>
  4025cc:	2130      	movs	r1, #48	; 0x30
  4025ce:	f88d 2039 	strb.w	r2, [sp, #57]	; 0x39
  4025d2:	f043 0302 	orr.w	r3, r3, #2
  4025d6:	f88d 1038 	strb.w	r1, [sp, #56]	; 0x38
  4025da:	2202      	movs	r2, #2
  4025dc:	e623      	b.n	402226 <_vfiprintf_r+0x216>
  4025de:	f899 2000 	ldrb.w	r2, [r9]
  4025e2:	2a2a      	cmp	r2, #42	; 0x2a
  4025e4:	f109 0701 	add.w	r7, r9, #1
  4025e8:	f000 82f0 	beq.w	402bcc <_vfiprintf_r+0xbbc>
  4025ec:	f1a2 0130 	sub.w	r1, r2, #48	; 0x30
  4025f0:	2909      	cmp	r1, #9
  4025f2:	46b9      	mov	r9, r7
  4025f4:	f04f 0400 	mov.w	r4, #0
  4025f8:	f63f ad73 	bhi.w	4020e2 <_vfiprintf_r+0xd2>
  4025fc:	f819 2b01 	ldrb.w	r2, [r9], #1
  402600:	eb04 0484 	add.w	r4, r4, r4, lsl #2
  402604:	eb01 0444 	add.w	r4, r1, r4, lsl #1
  402608:	f1a2 0130 	sub.w	r1, r2, #48	; 0x30
  40260c:	2909      	cmp	r1, #9
  40260e:	d9f5      	bls.n	4025fc <_vfiprintf_r+0x5ec>
  402610:	e567      	b.n	4020e2 <_vfiprintf_r+0xd2>
  402612:	f899 2000 	ldrb.w	r2, [r9]
  402616:	2a6c      	cmp	r2, #108	; 0x6c
  402618:	bf03      	ittte	eq
  40261a:	f899 2001 	ldrbeq.w	r2, [r9, #1]
  40261e:	f043 0320 	orreq.w	r3, r3, #32
  402622:	f109 0901 	addeq.w	r9, r9, #1
  402626:	f043 0310 	orrne.w	r3, r3, #16
  40262a:	e558      	b.n	4020de <_vfiprintf_r+0xce>
  40262c:	9908      	ldr	r1, [sp, #32]
  40262e:	680e      	ldr	r6, [r1, #0]
  402630:	460a      	mov	r2, r1
  402632:	2e00      	cmp	r6, #0
  402634:	f102 0204 	add.w	r2, r2, #4
  402638:	f6ff adda 	blt.w	4021f0 <_vfiprintf_r+0x1e0>
  40263c:	9208      	str	r2, [sp, #32]
  40263e:	f899 2000 	ldrb.w	r2, [r9]
  402642:	e54c      	b.n	4020de <_vfiprintf_r+0xce>
  402644:	9607      	str	r6, [sp, #28]
  402646:	2800      	cmp	r0, #0
  402648:	f040 82da 	bne.w	402c00 <_vfiprintf_r+0xbf0>
  40264c:	4985      	ldr	r1, [pc, #532]	; (402864 <_vfiprintf_r+0x854>)
  40264e:	910b      	str	r1, [sp, #44]	; 0x2c
  402650:	e7a6      	b.n	4025a0 <_vfiprintf_r+0x590>
  402652:	9808      	ldr	r0, [sp, #32]
  402654:	4a83      	ldr	r2, [pc, #524]	; (402864 <_vfiprintf_r+0x854>)
  402656:	9607      	str	r6, [sp, #28]
  402658:	920b      	str	r2, [sp, #44]	; 0x2c
  40265a:	6806      	ldr	r6, [r0, #0]
  40265c:	2278      	movs	r2, #120	; 0x78
  40265e:	2130      	movs	r1, #48	; 0x30
  402660:	3004      	adds	r0, #4
  402662:	f88d 2039 	strb.w	r2, [sp, #57]	; 0x39
  402666:	f043 0302 	orr.w	r3, r3, #2
  40266a:	9008      	str	r0, [sp, #32]
  40266c:	2700      	movs	r7, #0
  40266e:	f88d 1038 	strb.w	r1, [sp, #56]	; 0x38
  402672:	2202      	movs	r2, #2
  402674:	e5d7      	b.n	402226 <_vfiprintf_r+0x216>
  402676:	f043 0320 	orr.w	r3, r3, #32
  40267a:	f899 2000 	ldrb.w	r2, [r9]
  40267e:	e52e      	b.n	4020de <_vfiprintf_r+0xce>
  402680:	9908      	ldr	r1, [sp, #32]
  402682:	9607      	str	r6, [sp, #28]
  402684:	f8d1 8000 	ldr.w	r8, [r1]
  402688:	f04f 0200 	mov.w	r2, #0
  40268c:	f88d 2037 	strb.w	r2, [sp, #55]	; 0x37
  402690:	1d0e      	adds	r6, r1, #4
  402692:	f1b8 0f00 	cmp.w	r8, #0
  402696:	f000 8281 	beq.w	402b9c <_vfiprintf_r+0xb8c>
  40269a:	1c67      	adds	r7, r4, #1
  40269c:	f000 8260 	beq.w	402b60 <_vfiprintf_r+0xb50>
  4026a0:	4622      	mov	r2, r4
  4026a2:	2100      	movs	r1, #0
  4026a4:	4640      	mov	r0, r8
  4026a6:	9302      	str	r3, [sp, #8]
  4026a8:	f001 fb42 	bl	403d30 <memchr>
  4026ac:	9b02      	ldr	r3, [sp, #8]
  4026ae:	2800      	cmp	r0, #0
  4026b0:	f000 8284 	beq.w	402bbc <_vfiprintf_r+0xbac>
  4026b4:	eba0 0208 	sub.w	r2, r0, r8
  4026b8:	9205      	str	r2, [sp, #20]
  4026ba:	9608      	str	r6, [sp, #32]
  4026bc:	9303      	str	r3, [sp, #12]
  4026be:	f89d 5037 	ldrb.w	r5, [sp, #55]	; 0x37
  4026c2:	2400      	movs	r4, #0
  4026c4:	e5ce      	b.n	402264 <_vfiprintf_r+0x254>
  4026c6:	f043 0301 	orr.w	r3, r3, #1
  4026ca:	f899 2000 	ldrb.w	r2, [r9]
  4026ce:	e506      	b.n	4020de <_vfiprintf_r+0xce>
  4026d0:	f899 2000 	ldrb.w	r2, [r9]
  4026d4:	2001      	movs	r0, #1
  4026d6:	252b      	movs	r5, #43	; 0x2b
  4026d8:	e501      	b.n	4020de <_vfiprintf_r+0xce>
  4026da:	2800      	cmp	r0, #0
  4026dc:	f040 8287 	bne.w	402bee <_vfiprintf_r+0xbde>
  4026e0:	0699      	lsls	r1, r3, #26
  4026e2:	f100 8231 	bmi.w	402b48 <_vfiprintf_r+0xb38>
  4026e6:	06da      	lsls	r2, r3, #27
  4026e8:	d421      	bmi.n	40272e <_vfiprintf_r+0x71e>
  4026ea:	065b      	lsls	r3, r3, #25
  4026ec:	d51f      	bpl.n	40272e <_vfiprintf_r+0x71e>
  4026ee:	9a08      	ldr	r2, [sp, #32]
  4026f0:	6813      	ldr	r3, [r2, #0]
  4026f2:	3204      	adds	r2, #4
  4026f4:	9208      	str	r2, [sp, #32]
  4026f6:	f8bd 2010 	ldrh.w	r2, [sp, #16]
  4026fa:	801a      	strh	r2, [r3, #0]
  4026fc:	e4ba      	b.n	402074 <_vfiprintf_r+0x64>
  4026fe:	f043 0340 	orr.w	r3, r3, #64	; 0x40
  402702:	f899 2000 	ldrb.w	r2, [r9]
  402706:	e4ea      	b.n	4020de <_vfiprintf_r+0xce>
  402708:	9607      	str	r6, [sp, #28]
  40270a:	2800      	cmp	r0, #0
  40270c:	f040 8275 	bne.w	402bfa <_vfiprintf_r+0xbea>
  402710:	2a00      	cmp	r2, #0
  402712:	f000 8088 	beq.w	402826 <_vfiprintf_r+0x816>
  402716:	2101      	movs	r1, #1
  402718:	f88d 2048 	strb.w	r2, [sp, #72]	; 0x48
  40271c:	f04f 0200 	mov.w	r2, #0
  402720:	9102      	str	r1, [sp, #8]
  402722:	f88d 2037 	strb.w	r2, [sp, #55]	; 0x37
  402726:	9105      	str	r1, [sp, #20]
  402728:	f10d 0848 	add.w	r8, sp, #72	; 0x48
  40272c:	e6d3      	b.n	4024d6 <_vfiprintf_r+0x4c6>
  40272e:	9a08      	ldr	r2, [sp, #32]
  402730:	6813      	ldr	r3, [r2, #0]
  402732:	3204      	adds	r2, #4
  402734:	9208      	str	r2, [sp, #32]
  402736:	9a04      	ldr	r2, [sp, #16]
  402738:	601a      	str	r2, [r3, #0]
  40273a:	e49b      	b.n	402074 <_vfiprintf_r+0x64>
  40273c:	aa0f      	add	r2, sp, #60	; 0x3c
  40273e:	9901      	ldr	r1, [sp, #4]
  402740:	4620      	mov	r0, r4
  402742:	f7ff fc25 	bl	401f90 <__sprint_r.part.0>
  402746:	2800      	cmp	r0, #0
  402748:	d174      	bne.n	402834 <_vfiprintf_r+0x824>
  40274a:	9910      	ldr	r1, [sp, #64]	; 0x40
  40274c:	9a11      	ldr	r2, [sp, #68]	; 0x44
  40274e:	f101 0c01 	add.w	ip, r1, #1
  402752:	46de      	mov	lr, fp
  402754:	e5b3      	b.n	4022be <_vfiprintf_r+0x2ae>
  402756:	9910      	ldr	r1, [sp, #64]	; 0x40
  402758:	9a11      	ldr	r2, [sp, #68]	; 0x44
  40275a:	1c48      	adds	r0, r1, #1
  40275c:	f89d 5037 	ldrb.w	r5, [sp, #55]	; 0x37
  402760:	2d00      	cmp	r5, #0
  402762:	f43f add6 	beq.w	402312 <_vfiprintf_r+0x302>
  402766:	3201      	adds	r2, #1
  402768:	f10d 0537 	add.w	r5, sp, #55	; 0x37
  40276c:	2101      	movs	r1, #1
  40276e:	2807      	cmp	r0, #7
  402770:	9211      	str	r2, [sp, #68]	; 0x44
  402772:	9010      	str	r0, [sp, #64]	; 0x40
  402774:	f8ca 5000 	str.w	r5, [sl]
  402778:	f8ca 1004 	str.w	r1, [sl, #4]
  40277c:	f340 80b6 	ble.w	4028ec <_vfiprintf_r+0x8dc>
  402780:	2a00      	cmp	r2, #0
  402782:	f040 8155 	bne.w	402a30 <_vfiprintf_r+0xa20>
  402786:	9b09      	ldr	r3, [sp, #36]	; 0x24
  402788:	2b00      	cmp	r3, #0
  40278a:	f43f add3 	beq.w	402334 <_vfiprintf_r+0x324>
  40278e:	ab0e      	add	r3, sp, #56	; 0x38
  402790:	2202      	movs	r2, #2
  402792:	4608      	mov	r0, r1
  402794:	931c      	str	r3, [sp, #112]	; 0x70
  402796:	921d      	str	r2, [sp, #116]	; 0x74
  402798:	46da      	mov	sl, fp
  40279a:	4601      	mov	r1, r0
  40279c:	f10a 0a08 	add.w	sl, sl, #8
  4027a0:	3001      	adds	r0, #1
  4027a2:	9b0a      	ldr	r3, [sp, #40]	; 0x28
  4027a4:	2b80      	cmp	r3, #128	; 0x80
  4027a6:	f43f adcd 	beq.w	402344 <_vfiprintf_r+0x334>
  4027aa:	9b05      	ldr	r3, [sp, #20]
  4027ac:	1ae4      	subs	r4, r4, r3
  4027ae:	2c00      	cmp	r4, #0
  4027b0:	f77f ae07 	ble.w	4023c2 <_vfiprintf_r+0x3b2>
  4027b4:	2c10      	cmp	r4, #16
  4027b6:	4d2c      	ldr	r5, [pc, #176]	; (402868 <_vfiprintf_r+0x858>)
  4027b8:	dd1d      	ble.n	4027f6 <_vfiprintf_r+0x7e6>
  4027ba:	46d6      	mov	lr, sl
  4027bc:	2610      	movs	r6, #16
  4027be:	9f06      	ldr	r7, [sp, #24]
  4027c0:	f8dd a004 	ldr.w	sl, [sp, #4]
  4027c4:	e006      	b.n	4027d4 <_vfiprintf_r+0x7c4>
  4027c6:	1c88      	adds	r0, r1, #2
  4027c8:	f10e 0e08 	add.w	lr, lr, #8
  4027cc:	4619      	mov	r1, r3
  4027ce:	3c10      	subs	r4, #16
  4027d0:	2c10      	cmp	r4, #16
  4027d2:	dd0f      	ble.n	4027f4 <_vfiprintf_r+0x7e4>
  4027d4:	1c4b      	adds	r3, r1, #1
  4027d6:	3210      	adds	r2, #16
  4027d8:	2b07      	cmp	r3, #7
  4027da:	9211      	str	r2, [sp, #68]	; 0x44
  4027dc:	e88e 0060 	stmia.w	lr, {r5, r6}
  4027e0:	9310      	str	r3, [sp, #64]	; 0x40
  4027e2:	ddf0      	ble.n	4027c6 <_vfiprintf_r+0x7b6>
  4027e4:	b9a2      	cbnz	r2, 402810 <_vfiprintf_r+0x800>
  4027e6:	3c10      	subs	r4, #16
  4027e8:	2c10      	cmp	r4, #16
  4027ea:	f04f 0001 	mov.w	r0, #1
  4027ee:	4611      	mov	r1, r2
  4027f0:	46de      	mov	lr, fp
  4027f2:	dcef      	bgt.n	4027d4 <_vfiprintf_r+0x7c4>
  4027f4:	46f2      	mov	sl, lr
  4027f6:	4422      	add	r2, r4
  4027f8:	2807      	cmp	r0, #7
  4027fa:	9211      	str	r2, [sp, #68]	; 0x44
  4027fc:	f8ca 5000 	str.w	r5, [sl]
  402800:	f8ca 4004 	str.w	r4, [sl, #4]
  402804:	9010      	str	r0, [sp, #64]	; 0x40
  402806:	dc31      	bgt.n	40286c <_vfiprintf_r+0x85c>
  402808:	f10a 0a08 	add.w	sl, sl, #8
  40280c:	3001      	adds	r0, #1
  40280e:	e5d8      	b.n	4023c2 <_vfiprintf_r+0x3b2>
  402810:	aa0f      	add	r2, sp, #60	; 0x3c
  402812:	4651      	mov	r1, sl
  402814:	4638      	mov	r0, r7
  402816:	f7ff fbbb 	bl	401f90 <__sprint_r.part.0>
  40281a:	b958      	cbnz	r0, 402834 <_vfiprintf_r+0x824>
  40281c:	9910      	ldr	r1, [sp, #64]	; 0x40
  40281e:	9a11      	ldr	r2, [sp, #68]	; 0x44
  402820:	1c48      	adds	r0, r1, #1
  402822:	46de      	mov	lr, fp
  402824:	e7d3      	b.n	4027ce <_vfiprintf_r+0x7be>
  402826:	9b11      	ldr	r3, [sp, #68]	; 0x44
  402828:	b123      	cbz	r3, 402834 <_vfiprintf_r+0x824>
  40282a:	9806      	ldr	r0, [sp, #24]
  40282c:	9901      	ldr	r1, [sp, #4]
  40282e:	aa0f      	add	r2, sp, #60	; 0x3c
  402830:	f7ff fbae 	bl	401f90 <__sprint_r.part.0>
  402834:	9b01      	ldr	r3, [sp, #4]
  402836:	899b      	ldrh	r3, [r3, #12]
  402838:	065b      	lsls	r3, r3, #25
  40283a:	f57f acd2 	bpl.w	4021e2 <_vfiprintf_r+0x1d2>
  40283e:	f04f 33ff 	mov.w	r3, #4294967295
  402842:	9304      	str	r3, [sp, #16]
  402844:	e4cd      	b.n	4021e2 <_vfiprintf_r+0x1d2>
  402846:	aa0f      	add	r2, sp, #60	; 0x3c
  402848:	4641      	mov	r1, r8
  40284a:	4638      	mov	r0, r7
  40284c:	f7ff fba0 	bl	401f90 <__sprint_r.part.0>
  402850:	2800      	cmp	r0, #0
  402852:	d1ef      	bne.n	402834 <_vfiprintf_r+0x824>
  402854:	9910      	ldr	r1, [sp, #64]	; 0x40
  402856:	9a11      	ldr	r2, [sp, #68]	; 0x44
  402858:	1c48      	adds	r0, r1, #1
  40285a:	46da      	mov	sl, fp
  40285c:	e5d8      	b.n	402410 <_vfiprintf_r+0x400>
  40285e:	bf00      	nop
  402860:	00423414 	.word	0x00423414
  402864:	00423428 	.word	0x00423428
  402868:	00423454 	.word	0x00423454
  40286c:	2a00      	cmp	r2, #0
  40286e:	f040 8100 	bne.w	402a72 <_vfiprintf_r+0xa62>
  402872:	9a05      	ldr	r2, [sp, #20]
  402874:	921d      	str	r2, [sp, #116]	; 0x74
  402876:	2301      	movs	r3, #1
  402878:	9211      	str	r2, [sp, #68]	; 0x44
  40287a:	f8cd 8070 	str.w	r8, [sp, #112]	; 0x70
  40287e:	9310      	str	r3, [sp, #64]	; 0x40
  402880:	46da      	mov	sl, fp
  402882:	f10a 0a08 	add.w	sl, sl, #8
  402886:	9b03      	ldr	r3, [sp, #12]
  402888:	0759      	lsls	r1, r3, #29
  40288a:	d505      	bpl.n	402898 <_vfiprintf_r+0x888>
  40288c:	9b07      	ldr	r3, [sp, #28]
  40288e:	9902      	ldr	r1, [sp, #8]
  402890:	1a5c      	subs	r4, r3, r1
  402892:	2c00      	cmp	r4, #0
  402894:	f73f adae 	bgt.w	4023f4 <_vfiprintf_r+0x3e4>
  402898:	9b04      	ldr	r3, [sp, #16]
  40289a:	9907      	ldr	r1, [sp, #28]
  40289c:	9802      	ldr	r0, [sp, #8]
  40289e:	4281      	cmp	r1, r0
  4028a0:	bfac      	ite	ge
  4028a2:	185b      	addge	r3, r3, r1
  4028a4:	181b      	addlt	r3, r3, r0
  4028a6:	9304      	str	r3, [sp, #16]
  4028a8:	bb7a      	cbnz	r2, 40290a <_vfiprintf_r+0x8fa>
  4028aa:	2300      	movs	r3, #0
  4028ac:	9310      	str	r3, [sp, #64]	; 0x40
  4028ae:	46da      	mov	sl, fp
  4028b0:	f7ff bbe0 	b.w	402074 <_vfiprintf_r+0x64>
  4028b4:	aa0f      	add	r2, sp, #60	; 0x3c
  4028b6:	9901      	ldr	r1, [sp, #4]
  4028b8:	4620      	mov	r0, r4
  4028ba:	f7ff fb69 	bl	401f90 <__sprint_r.part.0>
  4028be:	2800      	cmp	r0, #0
  4028c0:	d1b8      	bne.n	402834 <_vfiprintf_r+0x824>
  4028c2:	9910      	ldr	r1, [sp, #64]	; 0x40
  4028c4:	9a11      	ldr	r2, [sp, #68]	; 0x44
  4028c6:	f101 0e01 	add.w	lr, r1, #1
  4028ca:	46dc      	mov	ip, fp
  4028cc:	e54e      	b.n	40236c <_vfiprintf_r+0x35c>
  4028ce:	2a00      	cmp	r2, #0
  4028d0:	f040 811c 	bne.w	402b0c <_vfiprintf_r+0xafc>
  4028d4:	f89d 1037 	ldrb.w	r1, [sp, #55]	; 0x37
  4028d8:	2900      	cmp	r1, #0
  4028da:	f000 8111 	beq.w	402b00 <_vfiprintf_r+0xaf0>
  4028de:	2201      	movs	r2, #1
  4028e0:	f10d 0137 	add.w	r1, sp, #55	; 0x37
  4028e4:	4610      	mov	r0, r2
  4028e6:	921d      	str	r2, [sp, #116]	; 0x74
  4028e8:	911c      	str	r1, [sp, #112]	; 0x70
  4028ea:	46da      	mov	sl, fp
  4028ec:	4601      	mov	r1, r0
  4028ee:	f10a 0a08 	add.w	sl, sl, #8
  4028f2:	3001      	adds	r0, #1
  4028f4:	e50d      	b.n	402312 <_vfiprintf_r+0x302>
  4028f6:	9b03      	ldr	r3, [sp, #12]
  4028f8:	2a01      	cmp	r2, #1
  4028fa:	f000 8090 	beq.w	402a1e <_vfiprintf_r+0xa0e>
  4028fe:	2a02      	cmp	r2, #2
  402900:	d10b      	bne.n	40291a <_vfiprintf_r+0x90a>
  402902:	9303      	str	r3, [sp, #12]
  402904:	2600      	movs	r6, #0
  402906:	2700      	movs	r7, #0
  402908:	e615      	b.n	402536 <_vfiprintf_r+0x526>
  40290a:	aa0f      	add	r2, sp, #60	; 0x3c
  40290c:	9901      	ldr	r1, [sp, #4]
  40290e:	9806      	ldr	r0, [sp, #24]
  402910:	f7ff fb3e 	bl	401f90 <__sprint_r.part.0>
  402914:	2800      	cmp	r0, #0
  402916:	d0c8      	beq.n	4028aa <_vfiprintf_r+0x89a>
  402918:	e78c      	b.n	402834 <_vfiprintf_r+0x824>
  40291a:	9303      	str	r3, [sp, #12]
  40291c:	2600      	movs	r6, #0
  40291e:	2700      	movs	r7, #0
  402920:	4659      	mov	r1, fp
  402922:	e000      	b.n	402926 <_vfiprintf_r+0x916>
  402924:	4641      	mov	r1, r8
  402926:	08f2      	lsrs	r2, r6, #3
  402928:	ea42 7247 	orr.w	r2, r2, r7, lsl #29
  40292c:	08f8      	lsrs	r0, r7, #3
  40292e:	f006 0307 	and.w	r3, r6, #7
  402932:	4607      	mov	r7, r0
  402934:	4616      	mov	r6, r2
  402936:	3330      	adds	r3, #48	; 0x30
  402938:	ea56 0207 	orrs.w	r2, r6, r7
  40293c:	f801 3c01 	strb.w	r3, [r1, #-1]
  402940:	f101 38ff 	add.w	r8, r1, #4294967295
  402944:	d1ee      	bne.n	402924 <_vfiprintf_r+0x914>
  402946:	9a03      	ldr	r2, [sp, #12]
  402948:	07d6      	lsls	r6, r2, #31
  40294a:	f57f ae04 	bpl.w	402556 <_vfiprintf_r+0x546>
  40294e:	2b30      	cmp	r3, #48	; 0x30
  402950:	f43f ae01 	beq.w	402556 <_vfiprintf_r+0x546>
  402954:	3902      	subs	r1, #2
  402956:	2330      	movs	r3, #48	; 0x30
  402958:	f808 3c01 	strb.w	r3, [r8, #-1]
  40295c:	ebab 0301 	sub.w	r3, fp, r1
  402960:	9305      	str	r3, [sp, #20]
  402962:	4688      	mov	r8, r1
  402964:	e47e      	b.n	402264 <_vfiprintf_r+0x254>
  402966:	9b04      	ldr	r3, [sp, #16]
  402968:	9a07      	ldr	r2, [sp, #28]
  40296a:	428a      	cmp	r2, r1
  40296c:	bfac      	ite	ge
  40296e:	189b      	addge	r3, r3, r2
  402970:	185b      	addlt	r3, r3, r1
  402972:	9304      	str	r3, [sp, #16]
  402974:	e799      	b.n	4028aa <_vfiprintf_r+0x89a>
  402976:	2202      	movs	r2, #2
  402978:	e455      	b.n	402226 <_vfiprintf_r+0x216>
  40297a:	2f00      	cmp	r7, #0
  40297c:	bf08      	it	eq
  40297e:	2e0a      	cmpeq	r6, #10
  402980:	d34c      	bcc.n	402a1c <_vfiprintf_r+0xa0c>
  402982:	46d8      	mov	r8, fp
  402984:	4630      	mov	r0, r6
  402986:	4639      	mov	r1, r7
  402988:	220a      	movs	r2, #10
  40298a:	2300      	movs	r3, #0
  40298c:	f001 fea2 	bl	4046d4 <__aeabi_uldivmod>
  402990:	3230      	adds	r2, #48	; 0x30
  402992:	f808 2d01 	strb.w	r2, [r8, #-1]!
  402996:	4630      	mov	r0, r6
  402998:	4639      	mov	r1, r7
  40299a:	2300      	movs	r3, #0
  40299c:	220a      	movs	r2, #10
  40299e:	f001 fe99 	bl	4046d4 <__aeabi_uldivmod>
  4029a2:	4606      	mov	r6, r0
  4029a4:	460f      	mov	r7, r1
  4029a6:	ea56 0307 	orrs.w	r3, r6, r7
  4029aa:	d1eb      	bne.n	402984 <_vfiprintf_r+0x974>
  4029ac:	ebab 0308 	sub.w	r3, fp, r8
  4029b0:	9305      	str	r3, [sp, #20]
  4029b2:	e457      	b.n	402264 <_vfiprintf_r+0x254>
  4029b4:	9405      	str	r4, [sp, #20]
  4029b6:	46d8      	mov	r8, fp
  4029b8:	e454      	b.n	402264 <_vfiprintf_r+0x254>
  4029ba:	aa0f      	add	r2, sp, #60	; 0x3c
  4029bc:	9901      	ldr	r1, [sp, #4]
  4029be:	9806      	ldr	r0, [sp, #24]
  4029c0:	f7ff fae6 	bl	401f90 <__sprint_r.part.0>
  4029c4:	2800      	cmp	r0, #0
  4029c6:	f47f af35 	bne.w	402834 <_vfiprintf_r+0x824>
  4029ca:	9a11      	ldr	r2, [sp, #68]	; 0x44
  4029cc:	46da      	mov	sl, fp
  4029ce:	e75a      	b.n	402886 <_vfiprintf_r+0x876>
  4029d0:	aa0f      	add	r2, sp, #60	; 0x3c
  4029d2:	9901      	ldr	r1, [sp, #4]
  4029d4:	9806      	ldr	r0, [sp, #24]
  4029d6:	f7ff fadb 	bl	401f90 <__sprint_r.part.0>
  4029da:	2800      	cmp	r0, #0
  4029dc:	f47f af2a 	bne.w	402834 <_vfiprintf_r+0x824>
  4029e0:	46da      	mov	sl, fp
  4029e2:	f7ff bbe0 	b.w	4021a6 <_vfiprintf_r+0x196>
  4029e6:	3104      	adds	r1, #4
  4029e8:	6816      	ldr	r6, [r2, #0]
  4029ea:	9108      	str	r1, [sp, #32]
  4029ec:	2201      	movs	r2, #1
  4029ee:	2700      	movs	r7, #0
  4029f0:	e419      	b.n	402226 <_vfiprintf_r+0x216>
  4029f2:	9808      	ldr	r0, [sp, #32]
  4029f4:	4601      	mov	r1, r0
  4029f6:	3104      	adds	r1, #4
  4029f8:	6806      	ldr	r6, [r0, #0]
  4029fa:	9108      	str	r1, [sp, #32]
  4029fc:	2700      	movs	r7, #0
  4029fe:	e412      	b.n	402226 <_vfiprintf_r+0x216>
  402a00:	680e      	ldr	r6, [r1, #0]
  402a02:	3104      	adds	r1, #4
  402a04:	9108      	str	r1, [sp, #32]
  402a06:	2700      	movs	r7, #0
  402a08:	e5d9      	b.n	4025be <_vfiprintf_r+0x5ae>
  402a0a:	9908      	ldr	r1, [sp, #32]
  402a0c:	680e      	ldr	r6, [r1, #0]
  402a0e:	460a      	mov	r2, r1
  402a10:	17f7      	asrs	r7, r6, #31
  402a12:	3204      	adds	r2, #4
  402a14:	9208      	str	r2, [sp, #32]
  402a16:	4630      	mov	r0, r6
  402a18:	4639      	mov	r1, r7
  402a1a:	e575      	b.n	402508 <_vfiprintf_r+0x4f8>
  402a1c:	9b03      	ldr	r3, [sp, #12]
  402a1e:	9303      	str	r3, [sp, #12]
  402a20:	f10d 08b0 	add.w	r8, sp, #176	; 0xb0
  402a24:	3630      	adds	r6, #48	; 0x30
  402a26:	2301      	movs	r3, #1
  402a28:	f808 6d41 	strb.w	r6, [r8, #-65]!
  402a2c:	9305      	str	r3, [sp, #20]
  402a2e:	e419      	b.n	402264 <_vfiprintf_r+0x254>
  402a30:	aa0f      	add	r2, sp, #60	; 0x3c
  402a32:	9901      	ldr	r1, [sp, #4]
  402a34:	9806      	ldr	r0, [sp, #24]
  402a36:	f7ff faab 	bl	401f90 <__sprint_r.part.0>
  402a3a:	2800      	cmp	r0, #0
  402a3c:	f47f aefa 	bne.w	402834 <_vfiprintf_r+0x824>
  402a40:	9910      	ldr	r1, [sp, #64]	; 0x40
  402a42:	9a11      	ldr	r2, [sp, #68]	; 0x44
  402a44:	1c48      	adds	r0, r1, #1
  402a46:	46da      	mov	sl, fp
  402a48:	e463      	b.n	402312 <_vfiprintf_r+0x302>
  402a4a:	aa0f      	add	r2, sp, #60	; 0x3c
  402a4c:	9901      	ldr	r1, [sp, #4]
  402a4e:	9806      	ldr	r0, [sp, #24]
  402a50:	f7ff fa9e 	bl	401f90 <__sprint_r.part.0>
  402a54:	2800      	cmp	r0, #0
  402a56:	f47f aeed 	bne.w	402834 <_vfiprintf_r+0x824>
  402a5a:	9910      	ldr	r1, [sp, #64]	; 0x40
  402a5c:	9a11      	ldr	r2, [sp, #68]	; 0x44
  402a5e:	1c48      	adds	r0, r1, #1
  402a60:	46da      	mov	sl, fp
  402a62:	e69e      	b.n	4027a2 <_vfiprintf_r+0x792>
  402a64:	2a00      	cmp	r2, #0
  402a66:	f040 8086 	bne.w	402b76 <_vfiprintf_r+0xb66>
  402a6a:	2001      	movs	r0, #1
  402a6c:	4611      	mov	r1, r2
  402a6e:	46da      	mov	sl, fp
  402a70:	e69b      	b.n	4027aa <_vfiprintf_r+0x79a>
  402a72:	aa0f      	add	r2, sp, #60	; 0x3c
  402a74:	9901      	ldr	r1, [sp, #4]
  402a76:	9806      	ldr	r0, [sp, #24]
  402a78:	f7ff fa8a 	bl	401f90 <__sprint_r.part.0>
  402a7c:	2800      	cmp	r0, #0
  402a7e:	f47f aed9 	bne.w	402834 <_vfiprintf_r+0x824>
  402a82:	9810      	ldr	r0, [sp, #64]	; 0x40
  402a84:	9a11      	ldr	r2, [sp, #68]	; 0x44
  402a86:	3001      	adds	r0, #1
  402a88:	46da      	mov	sl, fp
  402a8a:	e49a      	b.n	4023c2 <_vfiprintf_r+0x3b2>
  402a8c:	9e08      	ldr	r6, [sp, #32]
  402a8e:	3607      	adds	r6, #7
  402a90:	f026 0607 	bic.w	r6, r6, #7
  402a94:	e9d6 0100 	ldrd	r0, r1, [r6]
  402a98:	f106 0208 	add.w	r2, r6, #8
  402a9c:	9208      	str	r2, [sp, #32]
  402a9e:	4606      	mov	r6, r0
  402aa0:	460f      	mov	r7, r1
  402aa2:	e531      	b.n	402508 <_vfiprintf_r+0x4f8>
  402aa4:	9e08      	ldr	r6, [sp, #32]
  402aa6:	3607      	adds	r6, #7
  402aa8:	f026 0207 	bic.w	r2, r6, #7
  402aac:	f102 0108 	add.w	r1, r2, #8
  402ab0:	e9d2 6700 	ldrd	r6, r7, [r2]
  402ab4:	9108      	str	r1, [sp, #32]
  402ab6:	2201      	movs	r2, #1
  402ab8:	f7ff bbb5 	b.w	402226 <_vfiprintf_r+0x216>
  402abc:	9e08      	ldr	r6, [sp, #32]
  402abe:	3607      	adds	r6, #7
  402ac0:	f026 0207 	bic.w	r2, r6, #7
  402ac4:	f102 0108 	add.w	r1, r2, #8
  402ac8:	e9d2 6700 	ldrd	r6, r7, [r2]
  402acc:	9108      	str	r1, [sp, #32]
  402ace:	2200      	movs	r2, #0
  402ad0:	f7ff bba9 	b.w	402226 <_vfiprintf_r+0x216>
  402ad4:	9e08      	ldr	r6, [sp, #32]
  402ad6:	3607      	adds	r6, #7
  402ad8:	f026 0107 	bic.w	r1, r6, #7
  402adc:	f101 0008 	add.w	r0, r1, #8
  402ae0:	9008      	str	r0, [sp, #32]
  402ae2:	e9d1 6700 	ldrd	r6, r7, [r1]
  402ae6:	e56a      	b.n	4025be <_vfiprintf_r+0x5ae>
  402ae8:	46d8      	mov	r8, fp
  402aea:	f7ff bbbb 	b.w	402264 <_vfiprintf_r+0x254>
  402aee:	252d      	movs	r5, #45	; 0x2d
  402af0:	4276      	negs	r6, r6
  402af2:	eb67 0747 	sbc.w	r7, r7, r7, lsl #1
  402af6:	f88d 5037 	strb.w	r5, [sp, #55]	; 0x37
  402afa:	2201      	movs	r2, #1
  402afc:	f7ff bb98 	b.w	402230 <_vfiprintf_r+0x220>
  402b00:	9b09      	ldr	r3, [sp, #36]	; 0x24
  402b02:	b9d3      	cbnz	r3, 402b3a <_vfiprintf_r+0xb2a>
  402b04:	4611      	mov	r1, r2
  402b06:	2001      	movs	r0, #1
  402b08:	46da      	mov	sl, fp
  402b0a:	e64e      	b.n	4027aa <_vfiprintf_r+0x79a>
  402b0c:	aa0f      	add	r2, sp, #60	; 0x3c
  402b0e:	9901      	ldr	r1, [sp, #4]
  402b10:	9806      	ldr	r0, [sp, #24]
  402b12:	f7ff fa3d 	bl	401f90 <__sprint_r.part.0>
  402b16:	2800      	cmp	r0, #0
  402b18:	f47f ae8c 	bne.w	402834 <_vfiprintf_r+0x824>
  402b1c:	9910      	ldr	r1, [sp, #64]	; 0x40
  402b1e:	9a11      	ldr	r2, [sp, #68]	; 0x44
  402b20:	1c48      	adds	r0, r1, #1
  402b22:	46da      	mov	sl, fp
  402b24:	e61a      	b.n	40275c <_vfiprintf_r+0x74c>
  402b26:	aa0f      	add	r2, sp, #60	; 0x3c
  402b28:	9901      	ldr	r1, [sp, #4]
  402b2a:	9806      	ldr	r0, [sp, #24]
  402b2c:	f7ff fa30 	bl	401f90 <__sprint_r.part.0>
  402b30:	2800      	cmp	r0, #0
  402b32:	f47f ae7f 	bne.w	402834 <_vfiprintf_r+0x824>
  402b36:	9a11      	ldr	r2, [sp, #68]	; 0x44
  402b38:	e6ae      	b.n	402898 <_vfiprintf_r+0x888>
  402b3a:	ab0e      	add	r3, sp, #56	; 0x38
  402b3c:	2202      	movs	r2, #2
  402b3e:	931c      	str	r3, [sp, #112]	; 0x70
  402b40:	921d      	str	r2, [sp, #116]	; 0x74
  402b42:	2001      	movs	r0, #1
  402b44:	46da      	mov	sl, fp
  402b46:	e628      	b.n	40279a <_vfiprintf_r+0x78a>
  402b48:	9a08      	ldr	r2, [sp, #32]
  402b4a:	9904      	ldr	r1, [sp, #16]
  402b4c:	6813      	ldr	r3, [r2, #0]
  402b4e:	17cd      	asrs	r5, r1, #31
  402b50:	4608      	mov	r0, r1
  402b52:	3204      	adds	r2, #4
  402b54:	4629      	mov	r1, r5
  402b56:	9208      	str	r2, [sp, #32]
  402b58:	e9c3 0100 	strd	r0, r1, [r3]
  402b5c:	f7ff ba8a 	b.w	402074 <_vfiprintf_r+0x64>
  402b60:	4640      	mov	r0, r8
  402b62:	9608      	str	r6, [sp, #32]
  402b64:	9303      	str	r3, [sp, #12]
  402b66:	f001 fbab 	bl	4042c0 <strlen>
  402b6a:	2400      	movs	r4, #0
  402b6c:	9005      	str	r0, [sp, #20]
  402b6e:	f89d 5037 	ldrb.w	r5, [sp, #55]	; 0x37
  402b72:	f7ff bb77 	b.w	402264 <_vfiprintf_r+0x254>
  402b76:	aa0f      	add	r2, sp, #60	; 0x3c
  402b78:	9901      	ldr	r1, [sp, #4]
  402b7a:	9806      	ldr	r0, [sp, #24]
  402b7c:	f7ff fa08 	bl	401f90 <__sprint_r.part.0>
  402b80:	2800      	cmp	r0, #0
  402b82:	f47f ae57 	bne.w	402834 <_vfiprintf_r+0x824>
  402b86:	9910      	ldr	r1, [sp, #64]	; 0x40
  402b88:	9a11      	ldr	r2, [sp, #68]	; 0x44
  402b8a:	1c48      	adds	r0, r1, #1
  402b8c:	46da      	mov	sl, fp
  402b8e:	e60c      	b.n	4027aa <_vfiprintf_r+0x79a>
  402b90:	9910      	ldr	r1, [sp, #64]	; 0x40
  402b92:	9a11      	ldr	r2, [sp, #68]	; 0x44
  402b94:	4e1c      	ldr	r6, [pc, #112]	; (402c08 <_vfiprintf_r+0xbf8>)
  402b96:	3101      	adds	r1, #1
  402b98:	f7ff bba9 	b.w	4022ee <_vfiprintf_r+0x2de>
  402b9c:	2c06      	cmp	r4, #6
  402b9e:	bf28      	it	cs
  402ba0:	2406      	movcs	r4, #6
  402ba2:	9405      	str	r4, [sp, #20]
  402ba4:	9608      	str	r6, [sp, #32]
  402ba6:	9402      	str	r4, [sp, #8]
  402ba8:	f8df 8060 	ldr.w	r8, [pc, #96]	; 402c0c <_vfiprintf_r+0xbfc>
  402bac:	e493      	b.n	4024d6 <_vfiprintf_r+0x4c6>
  402bae:	9810      	ldr	r0, [sp, #64]	; 0x40
  402bb0:	4e15      	ldr	r6, [pc, #84]	; (402c08 <_vfiprintf_r+0xbf8>)
  402bb2:	3001      	adds	r0, #1
  402bb4:	e443      	b.n	40243e <_vfiprintf_r+0x42e>
  402bb6:	4686      	mov	lr, r0
  402bb8:	f7ff bbef 	b.w	40239a <_vfiprintf_r+0x38a>
  402bbc:	9405      	str	r4, [sp, #20]
  402bbe:	f89d 5037 	ldrb.w	r5, [sp, #55]	; 0x37
  402bc2:	9608      	str	r6, [sp, #32]
  402bc4:	9303      	str	r3, [sp, #12]
  402bc6:	4604      	mov	r4, r0
  402bc8:	f7ff bb4c 	b.w	402264 <_vfiprintf_r+0x254>
  402bcc:	9908      	ldr	r1, [sp, #32]
  402bce:	f899 2001 	ldrb.w	r2, [r9, #1]
  402bd2:	680c      	ldr	r4, [r1, #0]
  402bd4:	3104      	adds	r1, #4
  402bd6:	ea44 74e4 	orr.w	r4, r4, r4, asr #31
  402bda:	46b9      	mov	r9, r7
  402bdc:	9108      	str	r1, [sp, #32]
  402bde:	f7ff ba7e 	b.w	4020de <_vfiprintf_r+0xce>
  402be2:	f88d 5037 	strb.w	r5, [sp, #55]	; 0x37
  402be6:	e4c6      	b.n	402576 <_vfiprintf_r+0x566>
  402be8:	f88d 5037 	strb.w	r5, [sp, #55]	; 0x37
  402bec:	e47a      	b.n	4024e4 <_vfiprintf_r+0x4d4>
  402bee:	f88d 5037 	strb.w	r5, [sp, #55]	; 0x37
  402bf2:	e575      	b.n	4026e0 <_vfiprintf_r+0x6d0>
  402bf4:	f88d 5037 	strb.w	r5, [sp, #55]	; 0x37
  402bf8:	e4d0      	b.n	40259c <_vfiprintf_r+0x58c>
  402bfa:	f88d 5037 	strb.w	r5, [sp, #55]	; 0x37
  402bfe:	e587      	b.n	402710 <_vfiprintf_r+0x700>
  402c00:	f88d 5037 	strb.w	r5, [sp, #55]	; 0x37
  402c04:	e522      	b.n	40264c <_vfiprintf_r+0x63c>
  402c06:	bf00      	nop
  402c08:	00423444 	.word	0x00423444
  402c0c:	0042343c 	.word	0x0042343c

00402c10 <__sbprintf>:
  402c10:	b5f0      	push	{r4, r5, r6, r7, lr}
  402c12:	460c      	mov	r4, r1
  402c14:	f2ad 4d6c 	subw	sp, sp, #1132	; 0x46c
  402c18:	8989      	ldrh	r1, [r1, #12]
  402c1a:	6e66      	ldr	r6, [r4, #100]	; 0x64
  402c1c:	89e5      	ldrh	r5, [r4, #14]
  402c1e:	9619      	str	r6, [sp, #100]	; 0x64
  402c20:	f021 0102 	bic.w	r1, r1, #2
  402c24:	6a66      	ldr	r6, [r4, #36]	; 0x24
  402c26:	f8ad 500e 	strh.w	r5, [sp, #14]
  402c2a:	2500      	movs	r5, #0
  402c2c:	69e7      	ldr	r7, [r4, #28]
  402c2e:	f8ad 100c 	strh.w	r1, [sp, #12]
  402c32:	9609      	str	r6, [sp, #36]	; 0x24
  402c34:	9506      	str	r5, [sp, #24]
  402c36:	ae1a      	add	r6, sp, #104	; 0x68
  402c38:	f44f 6580 	mov.w	r5, #1024	; 0x400
  402c3c:	4669      	mov	r1, sp
  402c3e:	9600      	str	r6, [sp, #0]
  402c40:	9604      	str	r6, [sp, #16]
  402c42:	9502      	str	r5, [sp, #8]
  402c44:	9505      	str	r5, [sp, #20]
  402c46:	9707      	str	r7, [sp, #28]
  402c48:	4606      	mov	r6, r0
  402c4a:	f7ff f9e1 	bl	402010 <_vfiprintf_r>
  402c4e:	1e05      	subs	r5, r0, #0
  402c50:	db07      	blt.n	402c62 <__sbprintf+0x52>
  402c52:	4630      	mov	r0, r6
  402c54:	4669      	mov	r1, sp
  402c56:	f000 f925 	bl	402ea4 <_fflush_r>
  402c5a:	2800      	cmp	r0, #0
  402c5c:	bf18      	it	ne
  402c5e:	f04f 35ff 	movne.w	r5, #4294967295
  402c62:	f8bd 300c 	ldrh.w	r3, [sp, #12]
  402c66:	065b      	lsls	r3, r3, #25
  402c68:	d503      	bpl.n	402c72 <__sbprintf+0x62>
  402c6a:	89a3      	ldrh	r3, [r4, #12]
  402c6c:	f043 0340 	orr.w	r3, r3, #64	; 0x40
  402c70:	81a3      	strh	r3, [r4, #12]
  402c72:	4628      	mov	r0, r5
  402c74:	f20d 4d6c 	addw	sp, sp, #1132	; 0x46c
  402c78:	bdf0      	pop	{r4, r5, r6, r7, pc}
  402c7a:	bf00      	nop

00402c7c <__swsetup_r>:
  402c7c:	b538      	push	{r3, r4, r5, lr}
  402c7e:	4b30      	ldr	r3, [pc, #192]	; (402d40 <__swsetup_r+0xc4>)
  402c80:	681b      	ldr	r3, [r3, #0]
  402c82:	4605      	mov	r5, r0
  402c84:	460c      	mov	r4, r1
  402c86:	b113      	cbz	r3, 402c8e <__swsetup_r+0x12>
  402c88:	6b9a      	ldr	r2, [r3, #56]	; 0x38
  402c8a:	2a00      	cmp	r2, #0
  402c8c:	d038      	beq.n	402d00 <__swsetup_r+0x84>
  402c8e:	f9b4 200c 	ldrsh.w	r2, [r4, #12]
  402c92:	b293      	uxth	r3, r2
  402c94:	0718      	lsls	r0, r3, #28
  402c96:	d50c      	bpl.n	402cb2 <__swsetup_r+0x36>
  402c98:	6920      	ldr	r0, [r4, #16]
  402c9a:	b1a8      	cbz	r0, 402cc8 <__swsetup_r+0x4c>
  402c9c:	f013 0201 	ands.w	r2, r3, #1
  402ca0:	d01e      	beq.n	402ce0 <__swsetup_r+0x64>
  402ca2:	6963      	ldr	r3, [r4, #20]
  402ca4:	2200      	movs	r2, #0
  402ca6:	425b      	negs	r3, r3
  402ca8:	61a3      	str	r3, [r4, #24]
  402caa:	60a2      	str	r2, [r4, #8]
  402cac:	b1f0      	cbz	r0, 402cec <__swsetup_r+0x70>
  402cae:	2000      	movs	r0, #0
  402cb0:	bd38      	pop	{r3, r4, r5, pc}
  402cb2:	06d9      	lsls	r1, r3, #27
  402cb4:	d53c      	bpl.n	402d30 <__swsetup_r+0xb4>
  402cb6:	0758      	lsls	r0, r3, #29
  402cb8:	d426      	bmi.n	402d08 <__swsetup_r+0x8c>
  402cba:	6920      	ldr	r0, [r4, #16]
  402cbc:	f042 0308 	orr.w	r3, r2, #8
  402cc0:	81a3      	strh	r3, [r4, #12]
  402cc2:	b29b      	uxth	r3, r3
  402cc4:	2800      	cmp	r0, #0
  402cc6:	d1e9      	bne.n	402c9c <__swsetup_r+0x20>
  402cc8:	f403 7220 	and.w	r2, r3, #640	; 0x280
  402ccc:	f5b2 7f00 	cmp.w	r2, #512	; 0x200
  402cd0:	d0e4      	beq.n	402c9c <__swsetup_r+0x20>
  402cd2:	4628      	mov	r0, r5
  402cd4:	4621      	mov	r1, r4
  402cd6:	f000 fd13 	bl	403700 <__smakebuf_r>
  402cda:	89a3      	ldrh	r3, [r4, #12]
  402cdc:	6920      	ldr	r0, [r4, #16]
  402cde:	e7dd      	b.n	402c9c <__swsetup_r+0x20>
  402ce0:	0799      	lsls	r1, r3, #30
  402ce2:	bf58      	it	pl
  402ce4:	6962      	ldrpl	r2, [r4, #20]
  402ce6:	60a2      	str	r2, [r4, #8]
  402ce8:	2800      	cmp	r0, #0
  402cea:	d1e0      	bne.n	402cae <__swsetup_r+0x32>
  402cec:	f9b4 300c 	ldrsh.w	r3, [r4, #12]
  402cf0:	061a      	lsls	r2, r3, #24
  402cf2:	d5dd      	bpl.n	402cb0 <__swsetup_r+0x34>
  402cf4:	f043 0340 	orr.w	r3, r3, #64	; 0x40
  402cf8:	81a3      	strh	r3, [r4, #12]
  402cfa:	f04f 30ff 	mov.w	r0, #4294967295
  402cfe:	bd38      	pop	{r3, r4, r5, pc}
  402d00:	4618      	mov	r0, r3
  402d02:	f000 f963 	bl	402fcc <__sinit>
  402d06:	e7c2      	b.n	402c8e <__swsetup_r+0x12>
  402d08:	6b21      	ldr	r1, [r4, #48]	; 0x30
  402d0a:	b151      	cbz	r1, 402d22 <__swsetup_r+0xa6>
  402d0c:	f104 0340 	add.w	r3, r4, #64	; 0x40
  402d10:	4299      	cmp	r1, r3
  402d12:	d004      	beq.n	402d1e <__swsetup_r+0xa2>
  402d14:	4628      	mov	r0, r5
  402d16:	f000 fa2f 	bl	403178 <_free_r>
  402d1a:	f9b4 200c 	ldrsh.w	r2, [r4, #12]
  402d1e:	2300      	movs	r3, #0
  402d20:	6323      	str	r3, [r4, #48]	; 0x30
  402d22:	2300      	movs	r3, #0
  402d24:	6920      	ldr	r0, [r4, #16]
  402d26:	6063      	str	r3, [r4, #4]
  402d28:	f022 0224 	bic.w	r2, r2, #36	; 0x24
  402d2c:	6020      	str	r0, [r4, #0]
  402d2e:	e7c5      	b.n	402cbc <__swsetup_r+0x40>
  402d30:	f042 0240 	orr.w	r2, r2, #64	; 0x40
  402d34:	2309      	movs	r3, #9
  402d36:	602b      	str	r3, [r5, #0]
  402d38:	f04f 30ff 	mov.w	r0, #4294967295
  402d3c:	81a2      	strh	r2, [r4, #12]
  402d3e:	bd38      	pop	{r3, r4, r5, pc}
  402d40:	20400008 	.word	0x20400008

00402d44 <register_fini>:
  402d44:	4b02      	ldr	r3, [pc, #8]	; (402d50 <register_fini+0xc>)
  402d46:	b113      	cbz	r3, 402d4e <register_fini+0xa>
  402d48:	4802      	ldr	r0, [pc, #8]	; (402d54 <register_fini+0x10>)
  402d4a:	f000 b805 	b.w	402d58 <atexit>
  402d4e:	4770      	bx	lr
  402d50:	00000000 	.word	0x00000000
  402d54:	00402fe1 	.word	0x00402fe1

00402d58 <atexit>:
  402d58:	2300      	movs	r3, #0
  402d5a:	4601      	mov	r1, r0
  402d5c:	461a      	mov	r2, r3
  402d5e:	4618      	mov	r0, r3
  402d60:	f001 bbc2 	b.w	4044e8 <__register_exitproc>

00402d64 <__sflush_r>:
  402d64:	f9b1 300c 	ldrsh.w	r3, [r1, #12]
  402d68:	b29a      	uxth	r2, r3
  402d6a:	e92d 41f0 	stmdb	sp!, {r4, r5, r6, r7, r8, lr}
  402d6e:	460d      	mov	r5, r1
  402d70:	0711      	lsls	r1, r2, #28
  402d72:	4680      	mov	r8, r0
  402d74:	d43a      	bmi.n	402dec <__sflush_r+0x88>
  402d76:	686a      	ldr	r2, [r5, #4]
  402d78:	f443 6300 	orr.w	r3, r3, #2048	; 0x800
  402d7c:	2a00      	cmp	r2, #0
  402d7e:	81ab      	strh	r3, [r5, #12]
  402d80:	dd6f      	ble.n	402e62 <__sflush_r+0xfe>
  402d82:	6aac      	ldr	r4, [r5, #40]	; 0x28
  402d84:	2c00      	cmp	r4, #0
  402d86:	d049      	beq.n	402e1c <__sflush_r+0xb8>
  402d88:	2200      	movs	r2, #0
  402d8a:	b29b      	uxth	r3, r3
  402d8c:	f8d8 6000 	ldr.w	r6, [r8]
  402d90:	f8c8 2000 	str.w	r2, [r8]
  402d94:	f413 5280 	ands.w	r2, r3, #4096	; 0x1000
  402d98:	d067      	beq.n	402e6a <__sflush_r+0x106>
  402d9a:	6d2a      	ldr	r2, [r5, #80]	; 0x50
  402d9c:	075f      	lsls	r7, r3, #29
  402d9e:	d505      	bpl.n	402dac <__sflush_r+0x48>
  402da0:	6869      	ldr	r1, [r5, #4]
  402da2:	6b2b      	ldr	r3, [r5, #48]	; 0x30
  402da4:	1a52      	subs	r2, r2, r1
  402da6:	b10b      	cbz	r3, 402dac <__sflush_r+0x48>
  402da8:	6beb      	ldr	r3, [r5, #60]	; 0x3c
  402daa:	1ad2      	subs	r2, r2, r3
  402dac:	2300      	movs	r3, #0
  402dae:	69e9      	ldr	r1, [r5, #28]
  402db0:	4640      	mov	r0, r8
  402db2:	47a0      	blx	r4
  402db4:	1c44      	adds	r4, r0, #1
  402db6:	d03c      	beq.n	402e32 <__sflush_r+0xce>
  402db8:	f9b5 300c 	ldrsh.w	r3, [r5, #12]
  402dbc:	692a      	ldr	r2, [r5, #16]
  402dbe:	602a      	str	r2, [r5, #0]
  402dc0:	f423 6300 	bic.w	r3, r3, #2048	; 0x800
  402dc4:	2200      	movs	r2, #0
  402dc6:	81ab      	strh	r3, [r5, #12]
  402dc8:	04db      	lsls	r3, r3, #19
  402dca:	606a      	str	r2, [r5, #4]
  402dcc:	d447      	bmi.n	402e5e <__sflush_r+0xfa>
  402dce:	6b29      	ldr	r1, [r5, #48]	; 0x30
  402dd0:	f8c8 6000 	str.w	r6, [r8]
  402dd4:	b311      	cbz	r1, 402e1c <__sflush_r+0xb8>
  402dd6:	f105 0340 	add.w	r3, r5, #64	; 0x40
  402dda:	4299      	cmp	r1, r3
  402ddc:	d002      	beq.n	402de4 <__sflush_r+0x80>
  402dde:	4640      	mov	r0, r8
  402de0:	f000 f9ca 	bl	403178 <_free_r>
  402de4:	2000      	movs	r0, #0
  402de6:	6328      	str	r0, [r5, #48]	; 0x30
  402de8:	e8bd 81f0 	ldmia.w	sp!, {r4, r5, r6, r7, r8, pc}
  402dec:	692e      	ldr	r6, [r5, #16]
  402dee:	b1ae      	cbz	r6, 402e1c <__sflush_r+0xb8>
  402df0:	682c      	ldr	r4, [r5, #0]
  402df2:	602e      	str	r6, [r5, #0]
  402df4:	0791      	lsls	r1, r2, #30
  402df6:	bf0c      	ite	eq
  402df8:	696b      	ldreq	r3, [r5, #20]
  402dfa:	2300      	movne	r3, #0
  402dfc:	1ba4      	subs	r4, r4, r6
  402dfe:	60ab      	str	r3, [r5, #8]
  402e00:	e00a      	b.n	402e18 <__sflush_r+0xb4>
  402e02:	4623      	mov	r3, r4
  402e04:	4632      	mov	r2, r6
  402e06:	6a6f      	ldr	r7, [r5, #36]	; 0x24
  402e08:	69e9      	ldr	r1, [r5, #28]
  402e0a:	4640      	mov	r0, r8
  402e0c:	47b8      	blx	r7
  402e0e:	2800      	cmp	r0, #0
  402e10:	eba4 0400 	sub.w	r4, r4, r0
  402e14:	4406      	add	r6, r0
  402e16:	dd04      	ble.n	402e22 <__sflush_r+0xbe>
  402e18:	2c00      	cmp	r4, #0
  402e1a:	dcf2      	bgt.n	402e02 <__sflush_r+0x9e>
  402e1c:	2000      	movs	r0, #0
  402e1e:	e8bd 81f0 	ldmia.w	sp!, {r4, r5, r6, r7, r8, pc}
  402e22:	89ab      	ldrh	r3, [r5, #12]
  402e24:	f043 0340 	orr.w	r3, r3, #64	; 0x40
  402e28:	81ab      	strh	r3, [r5, #12]
  402e2a:	f04f 30ff 	mov.w	r0, #4294967295
  402e2e:	e8bd 81f0 	ldmia.w	sp!, {r4, r5, r6, r7, r8, pc}
  402e32:	f8d8 4000 	ldr.w	r4, [r8]
  402e36:	2c1d      	cmp	r4, #29
  402e38:	d8f3      	bhi.n	402e22 <__sflush_r+0xbe>
  402e3a:	4b19      	ldr	r3, [pc, #100]	; (402ea0 <__sflush_r+0x13c>)
  402e3c:	40e3      	lsrs	r3, r4
  402e3e:	43db      	mvns	r3, r3
  402e40:	f013 0301 	ands.w	r3, r3, #1
  402e44:	d1ed      	bne.n	402e22 <__sflush_r+0xbe>
  402e46:	f9b5 200c 	ldrsh.w	r2, [r5, #12]
  402e4a:	606b      	str	r3, [r5, #4]
  402e4c:	f422 6300 	bic.w	r3, r2, #2048	; 0x800
  402e50:	6929      	ldr	r1, [r5, #16]
  402e52:	81ab      	strh	r3, [r5, #12]
  402e54:	04da      	lsls	r2, r3, #19
  402e56:	6029      	str	r1, [r5, #0]
  402e58:	d5b9      	bpl.n	402dce <__sflush_r+0x6a>
  402e5a:	2c00      	cmp	r4, #0
  402e5c:	d1b7      	bne.n	402dce <__sflush_r+0x6a>
  402e5e:	6528      	str	r0, [r5, #80]	; 0x50
  402e60:	e7b5      	b.n	402dce <__sflush_r+0x6a>
  402e62:	6bea      	ldr	r2, [r5, #60]	; 0x3c
  402e64:	2a00      	cmp	r2, #0
  402e66:	dc8c      	bgt.n	402d82 <__sflush_r+0x1e>
  402e68:	e7d8      	b.n	402e1c <__sflush_r+0xb8>
  402e6a:	2301      	movs	r3, #1
  402e6c:	69e9      	ldr	r1, [r5, #28]
  402e6e:	4640      	mov	r0, r8
  402e70:	47a0      	blx	r4
  402e72:	1c43      	adds	r3, r0, #1
  402e74:	4602      	mov	r2, r0
  402e76:	d002      	beq.n	402e7e <__sflush_r+0x11a>
  402e78:	89ab      	ldrh	r3, [r5, #12]
  402e7a:	6aac      	ldr	r4, [r5, #40]	; 0x28
  402e7c:	e78e      	b.n	402d9c <__sflush_r+0x38>
  402e7e:	f8d8 3000 	ldr.w	r3, [r8]
  402e82:	2b00      	cmp	r3, #0
  402e84:	d0f8      	beq.n	402e78 <__sflush_r+0x114>
  402e86:	2b1d      	cmp	r3, #29
  402e88:	d001      	beq.n	402e8e <__sflush_r+0x12a>
  402e8a:	2b16      	cmp	r3, #22
  402e8c:	d102      	bne.n	402e94 <__sflush_r+0x130>
  402e8e:	f8c8 6000 	str.w	r6, [r8]
  402e92:	e7c3      	b.n	402e1c <__sflush_r+0xb8>
  402e94:	89ab      	ldrh	r3, [r5, #12]
  402e96:	f043 0340 	orr.w	r3, r3, #64	; 0x40
  402e9a:	81ab      	strh	r3, [r5, #12]
  402e9c:	e8bd 81f0 	ldmia.w	sp!, {r4, r5, r6, r7, r8, pc}
  402ea0:	20400001 	.word	0x20400001

00402ea4 <_fflush_r>:
  402ea4:	b510      	push	{r4, lr}
  402ea6:	4604      	mov	r4, r0
  402ea8:	b082      	sub	sp, #8
  402eaa:	b108      	cbz	r0, 402eb0 <_fflush_r+0xc>
  402eac:	6b83      	ldr	r3, [r0, #56]	; 0x38
  402eae:	b153      	cbz	r3, 402ec6 <_fflush_r+0x22>
  402eb0:	f9b1 000c 	ldrsh.w	r0, [r1, #12]
  402eb4:	b908      	cbnz	r0, 402eba <_fflush_r+0x16>
  402eb6:	b002      	add	sp, #8
  402eb8:	bd10      	pop	{r4, pc}
  402eba:	4620      	mov	r0, r4
  402ebc:	b002      	add	sp, #8
  402ebe:	e8bd 4010 	ldmia.w	sp!, {r4, lr}
  402ec2:	f7ff bf4f 	b.w	402d64 <__sflush_r>
  402ec6:	9101      	str	r1, [sp, #4]
  402ec8:	f000 f880 	bl	402fcc <__sinit>
  402ecc:	9901      	ldr	r1, [sp, #4]
  402ece:	e7ef      	b.n	402eb0 <_fflush_r+0xc>

00402ed0 <_cleanup_r>:
  402ed0:	4901      	ldr	r1, [pc, #4]	; (402ed8 <_cleanup_r+0x8>)
  402ed2:	f000 bbaf 	b.w	403634 <_fwalk_reent>
  402ed6:	bf00      	nop
  402ed8:	004045b1 	.word	0x004045b1

00402edc <__sinit.part.1>:
  402edc:	e92d 4ff0 	stmdb	sp!, {r4, r5, r6, r7, r8, r9, sl, fp, lr}
  402ee0:	4b35      	ldr	r3, [pc, #212]	; (402fb8 <__sinit.part.1+0xdc>)
  402ee2:	6845      	ldr	r5, [r0, #4]
  402ee4:	63c3      	str	r3, [r0, #60]	; 0x3c
  402ee6:	2400      	movs	r4, #0
  402ee8:	4607      	mov	r7, r0
  402eea:	f500 723b 	add.w	r2, r0, #748	; 0x2ec
  402eee:	2304      	movs	r3, #4
  402ef0:	2103      	movs	r1, #3
  402ef2:	f8c0 12e4 	str.w	r1, [r0, #740]	; 0x2e4
  402ef6:	f8c0 22e8 	str.w	r2, [r0, #744]	; 0x2e8
  402efa:	f8c0 42e0 	str.w	r4, [r0, #736]	; 0x2e0
  402efe:	b083      	sub	sp, #12
  402f00:	602c      	str	r4, [r5, #0]
  402f02:	606c      	str	r4, [r5, #4]
  402f04:	60ac      	str	r4, [r5, #8]
  402f06:	666c      	str	r4, [r5, #100]	; 0x64
  402f08:	81ec      	strh	r4, [r5, #14]
  402f0a:	612c      	str	r4, [r5, #16]
  402f0c:	616c      	str	r4, [r5, #20]
  402f0e:	61ac      	str	r4, [r5, #24]
  402f10:	81ab      	strh	r3, [r5, #12]
  402f12:	4621      	mov	r1, r4
  402f14:	f105 005c 	add.w	r0, r5, #92	; 0x5c
  402f18:	2208      	movs	r2, #8
  402f1a:	f7fe ff3d 	bl	401d98 <memset>
  402f1e:	68be      	ldr	r6, [r7, #8]
  402f20:	f8df b098 	ldr.w	fp, [pc, #152]	; 402fbc <__sinit.part.1+0xe0>
  402f24:	f8df a098 	ldr.w	sl, [pc, #152]	; 402fc0 <__sinit.part.1+0xe4>
  402f28:	f8df 9098 	ldr.w	r9, [pc, #152]	; 402fc4 <__sinit.part.1+0xe8>
  402f2c:	f8df 8098 	ldr.w	r8, [pc, #152]	; 402fc8 <__sinit.part.1+0xec>
  402f30:	f8c5 b020 	str.w	fp, [r5, #32]
  402f34:	2301      	movs	r3, #1
  402f36:	2209      	movs	r2, #9
  402f38:	f8c5 a024 	str.w	sl, [r5, #36]	; 0x24
  402f3c:	f8c5 9028 	str.w	r9, [r5, #40]	; 0x28
  402f40:	f8c5 802c 	str.w	r8, [r5, #44]	; 0x2c
  402f44:	61ed      	str	r5, [r5, #28]
  402f46:	4621      	mov	r1, r4
  402f48:	81f3      	strh	r3, [r6, #14]
  402f4a:	81b2      	strh	r2, [r6, #12]
  402f4c:	f106 005c 	add.w	r0, r6, #92	; 0x5c
  402f50:	6034      	str	r4, [r6, #0]
  402f52:	6074      	str	r4, [r6, #4]
  402f54:	60b4      	str	r4, [r6, #8]
  402f56:	6674      	str	r4, [r6, #100]	; 0x64
  402f58:	6134      	str	r4, [r6, #16]
  402f5a:	6174      	str	r4, [r6, #20]
  402f5c:	61b4      	str	r4, [r6, #24]
  402f5e:	2208      	movs	r2, #8
  402f60:	9301      	str	r3, [sp, #4]
  402f62:	f7fe ff19 	bl	401d98 <memset>
  402f66:	68fd      	ldr	r5, [r7, #12]
  402f68:	61f6      	str	r6, [r6, #28]
  402f6a:	2012      	movs	r0, #18
  402f6c:	2202      	movs	r2, #2
  402f6e:	f8c6 b020 	str.w	fp, [r6, #32]
  402f72:	f8c6 a024 	str.w	sl, [r6, #36]	; 0x24
  402f76:	f8c6 9028 	str.w	r9, [r6, #40]	; 0x28
  402f7a:	f8c6 802c 	str.w	r8, [r6, #44]	; 0x2c
  402f7e:	4621      	mov	r1, r4
  402f80:	81a8      	strh	r0, [r5, #12]
  402f82:	81ea      	strh	r2, [r5, #14]
  402f84:	602c      	str	r4, [r5, #0]
  402f86:	606c      	str	r4, [r5, #4]
  402f88:	60ac      	str	r4, [r5, #8]
  402f8a:	666c      	str	r4, [r5, #100]	; 0x64
  402f8c:	612c      	str	r4, [r5, #16]
  402f8e:	616c      	str	r4, [r5, #20]
  402f90:	61ac      	str	r4, [r5, #24]
  402f92:	f105 005c 	add.w	r0, r5, #92	; 0x5c
  402f96:	2208      	movs	r2, #8
  402f98:	f7fe fefe 	bl	401d98 <memset>
  402f9c:	9b01      	ldr	r3, [sp, #4]
  402f9e:	61ed      	str	r5, [r5, #28]
  402fa0:	f8c5 b020 	str.w	fp, [r5, #32]
  402fa4:	f8c5 a024 	str.w	sl, [r5, #36]	; 0x24
  402fa8:	f8c5 9028 	str.w	r9, [r5, #40]	; 0x28
  402fac:	f8c5 802c 	str.w	r8, [r5, #44]	; 0x2c
  402fb0:	63bb      	str	r3, [r7, #56]	; 0x38
  402fb2:	b003      	add	sp, #12
  402fb4:	e8bd 8ff0 	ldmia.w	sp!, {r4, r5, r6, r7, r8, r9, sl, fp, pc}
  402fb8:	00402ed1 	.word	0x00402ed1
  402fbc:	00404211 	.word	0x00404211
  402fc0:	00404235 	.word	0x00404235
  402fc4:	00404271 	.word	0x00404271
  402fc8:	00404291 	.word	0x00404291

00402fcc <__sinit>:
  402fcc:	6b83      	ldr	r3, [r0, #56]	; 0x38
  402fce:	b103      	cbz	r3, 402fd2 <__sinit+0x6>
  402fd0:	4770      	bx	lr
  402fd2:	f7ff bf83 	b.w	402edc <__sinit.part.1>
  402fd6:	bf00      	nop

00402fd8 <__sfp_lock_acquire>:
  402fd8:	4770      	bx	lr
  402fda:	bf00      	nop

00402fdc <__sfp_lock_release>:
  402fdc:	4770      	bx	lr
  402fde:	bf00      	nop

00402fe0 <__libc_fini_array>:
  402fe0:	b538      	push	{r3, r4, r5, lr}
  402fe2:	4c0a      	ldr	r4, [pc, #40]	; (40300c <__libc_fini_array+0x2c>)
  402fe4:	4d0a      	ldr	r5, [pc, #40]	; (403010 <__libc_fini_array+0x30>)
  402fe6:	1b64      	subs	r4, r4, r5
  402fe8:	10a4      	asrs	r4, r4, #2
  402fea:	d00a      	beq.n	403002 <__libc_fini_array+0x22>
  402fec:	f104 4380 	add.w	r3, r4, #1073741824	; 0x40000000
  402ff0:	3b01      	subs	r3, #1
  402ff2:	eb05 0583 	add.w	r5, r5, r3, lsl #2
  402ff6:	3c01      	subs	r4, #1
  402ff8:	f855 3904 	ldr.w	r3, [r5], #-4
  402ffc:	4798      	blx	r3
  402ffe:	2c00      	cmp	r4, #0
  403000:	d1f9      	bne.n	402ff6 <__libc_fini_array+0x16>
  403002:	e8bd 4038 	ldmia.w	sp!, {r3, r4, r5, lr}
  403006:	f020 bac1 	b.w	42358c <_fini>
  40300a:	bf00      	nop
  40300c:	0042359c 	.word	0x0042359c
  403010:	00423598 	.word	0x00423598

00403014 <__fputwc>:
  403014:	e92d 47f0 	stmdb	sp!, {r4, r5, r6, r7, r8, r9, sl, lr}
  403018:	b082      	sub	sp, #8
  40301a:	4680      	mov	r8, r0
  40301c:	4689      	mov	r9, r1
  40301e:	4614      	mov	r4, r2
  403020:	f000 fb32 	bl	403688 <__locale_mb_cur_max>
  403024:	2801      	cmp	r0, #1
  403026:	d036      	beq.n	403096 <__fputwc+0x82>
  403028:	464a      	mov	r2, r9
  40302a:	f104 035c 	add.w	r3, r4, #92	; 0x5c
  40302e:	a901      	add	r1, sp, #4
  403030:	4640      	mov	r0, r8
  403032:	f001 fa0b 	bl	40444c <_wcrtomb_r>
  403036:	1c42      	adds	r2, r0, #1
  403038:	4606      	mov	r6, r0
  40303a:	d025      	beq.n	403088 <__fputwc+0x74>
  40303c:	b3a8      	cbz	r0, 4030aa <__fputwc+0x96>
  40303e:	f89d e004 	ldrb.w	lr, [sp, #4]
  403042:	2500      	movs	r5, #0
  403044:	f10d 0a04 	add.w	sl, sp, #4
  403048:	e009      	b.n	40305e <__fputwc+0x4a>
  40304a:	6823      	ldr	r3, [r4, #0]
  40304c:	1c5a      	adds	r2, r3, #1
  40304e:	6022      	str	r2, [r4, #0]
  403050:	f883 e000 	strb.w	lr, [r3]
  403054:	3501      	adds	r5, #1
  403056:	42b5      	cmp	r5, r6
  403058:	d227      	bcs.n	4030aa <__fputwc+0x96>
  40305a:	f815 e00a 	ldrb.w	lr, [r5, sl]
  40305e:	68a3      	ldr	r3, [r4, #8]
  403060:	3b01      	subs	r3, #1
  403062:	2b00      	cmp	r3, #0
  403064:	60a3      	str	r3, [r4, #8]
  403066:	daf0      	bge.n	40304a <__fputwc+0x36>
  403068:	69a7      	ldr	r7, [r4, #24]
  40306a:	42bb      	cmp	r3, r7
  40306c:	4671      	mov	r1, lr
  40306e:	4622      	mov	r2, r4
  403070:	4640      	mov	r0, r8
  403072:	db02      	blt.n	40307a <__fputwc+0x66>
  403074:	f1be 0f0a 	cmp.w	lr, #10
  403078:	d1e7      	bne.n	40304a <__fputwc+0x36>
  40307a:	f001 f98f 	bl	40439c <__swbuf_r>
  40307e:	1c43      	adds	r3, r0, #1
  403080:	d1e8      	bne.n	403054 <__fputwc+0x40>
  403082:	b002      	add	sp, #8
  403084:	e8bd 87f0 	ldmia.w	sp!, {r4, r5, r6, r7, r8, r9, sl, pc}
  403088:	89a3      	ldrh	r3, [r4, #12]
  40308a:	f043 0340 	orr.w	r3, r3, #64	; 0x40
  40308e:	81a3      	strh	r3, [r4, #12]
  403090:	b002      	add	sp, #8
  403092:	e8bd 87f0 	ldmia.w	sp!, {r4, r5, r6, r7, r8, r9, sl, pc}
  403096:	f109 33ff 	add.w	r3, r9, #4294967295
  40309a:	2bfe      	cmp	r3, #254	; 0xfe
  40309c:	d8c4      	bhi.n	403028 <__fputwc+0x14>
  40309e:	fa5f fe89 	uxtb.w	lr, r9
  4030a2:	4606      	mov	r6, r0
  4030a4:	f88d e004 	strb.w	lr, [sp, #4]
  4030a8:	e7cb      	b.n	403042 <__fputwc+0x2e>
  4030aa:	4648      	mov	r0, r9
  4030ac:	b002      	add	sp, #8
  4030ae:	e8bd 87f0 	ldmia.w	sp!, {r4, r5, r6, r7, r8, r9, sl, pc}
  4030b2:	bf00      	nop

004030b4 <_fputwc_r>:
  4030b4:	f9b2 300c 	ldrsh.w	r3, [r2, #12]
  4030b8:	f413 5f00 	tst.w	r3, #8192	; 0x2000
  4030bc:	d10a      	bne.n	4030d4 <_fputwc_r+0x20>
  4030be:	b410      	push	{r4}
  4030c0:	6e54      	ldr	r4, [r2, #100]	; 0x64
  4030c2:	f443 5300 	orr.w	r3, r3, #8192	; 0x2000
  4030c6:	f444 5400 	orr.w	r4, r4, #8192	; 0x2000
  4030ca:	6654      	str	r4, [r2, #100]	; 0x64
  4030cc:	8193      	strh	r3, [r2, #12]
  4030ce:	bc10      	pop	{r4}
  4030d0:	f7ff bfa0 	b.w	403014 <__fputwc>
  4030d4:	f7ff bf9e 	b.w	403014 <__fputwc>

004030d8 <_malloc_trim_r>:
  4030d8:	b5f8      	push	{r3, r4, r5, r6, r7, lr}
  4030da:	4f24      	ldr	r7, [pc, #144]	; (40316c <_malloc_trim_r+0x94>)
  4030dc:	460c      	mov	r4, r1
  4030de:	4606      	mov	r6, r0
  4030e0:	f000 feda 	bl	403e98 <__malloc_lock>
  4030e4:	68bb      	ldr	r3, [r7, #8]
  4030e6:	685d      	ldr	r5, [r3, #4]
  4030e8:	f5c4 617e 	rsb	r1, r4, #4064	; 0xfe0
  4030ec:	310f      	adds	r1, #15
  4030ee:	f025 0503 	bic.w	r5, r5, #3
  4030f2:	4429      	add	r1, r5
  4030f4:	f421 617f 	bic.w	r1, r1, #4080	; 0xff0
  4030f8:	f021 010f 	bic.w	r1, r1, #15
  4030fc:	f5a1 5480 	sub.w	r4, r1, #4096	; 0x1000
  403100:	f5b4 5f80 	cmp.w	r4, #4096	; 0x1000
  403104:	db07      	blt.n	403116 <_malloc_trim_r+0x3e>
  403106:	2100      	movs	r1, #0
  403108:	4630      	mov	r0, r6
  40310a:	f001 f86f 	bl	4041ec <_sbrk_r>
  40310e:	68bb      	ldr	r3, [r7, #8]
  403110:	442b      	add	r3, r5
  403112:	4298      	cmp	r0, r3
  403114:	d004      	beq.n	403120 <_malloc_trim_r+0x48>
  403116:	4630      	mov	r0, r6
  403118:	f000 fec0 	bl	403e9c <__malloc_unlock>
  40311c:	2000      	movs	r0, #0
  40311e:	bdf8      	pop	{r3, r4, r5, r6, r7, pc}
  403120:	4261      	negs	r1, r4
  403122:	4630      	mov	r0, r6
  403124:	f001 f862 	bl	4041ec <_sbrk_r>
  403128:	3001      	adds	r0, #1
  40312a:	d00d      	beq.n	403148 <_malloc_trim_r+0x70>
  40312c:	4b10      	ldr	r3, [pc, #64]	; (403170 <_malloc_trim_r+0x98>)
  40312e:	68ba      	ldr	r2, [r7, #8]
  403130:	6819      	ldr	r1, [r3, #0]
  403132:	1b2d      	subs	r5, r5, r4
  403134:	f045 0501 	orr.w	r5, r5, #1
  403138:	4630      	mov	r0, r6
  40313a:	1b09      	subs	r1, r1, r4
  40313c:	6055      	str	r5, [r2, #4]
  40313e:	6019      	str	r1, [r3, #0]
  403140:	f000 feac 	bl	403e9c <__malloc_unlock>
  403144:	2001      	movs	r0, #1
  403146:	bdf8      	pop	{r3, r4, r5, r6, r7, pc}
  403148:	2100      	movs	r1, #0
  40314a:	4630      	mov	r0, r6
  40314c:	f001 f84e 	bl	4041ec <_sbrk_r>
  403150:	68ba      	ldr	r2, [r7, #8]
  403152:	1a83      	subs	r3, r0, r2
  403154:	2b0f      	cmp	r3, #15
  403156:	ddde      	ble.n	403116 <_malloc_trim_r+0x3e>
  403158:	4c06      	ldr	r4, [pc, #24]	; (403174 <_malloc_trim_r+0x9c>)
  40315a:	4905      	ldr	r1, [pc, #20]	; (403170 <_malloc_trim_r+0x98>)
  40315c:	6824      	ldr	r4, [r4, #0]
  40315e:	f043 0301 	orr.w	r3, r3, #1
  403162:	1b00      	subs	r0, r0, r4
  403164:	6053      	str	r3, [r2, #4]
  403166:	6008      	str	r0, [r1, #0]
  403168:	e7d5      	b.n	403116 <_malloc_trim_r+0x3e>
  40316a:	bf00      	nop
  40316c:	204005a4 	.word	0x204005a4
  403170:	20400e08 	.word	0x20400e08
  403174:	204009ac 	.word	0x204009ac

00403178 <_free_r>:
  403178:	2900      	cmp	r1, #0
  40317a:	d044      	beq.n	403206 <_free_r+0x8e>
  40317c:	e92d 41f0 	stmdb	sp!, {r4, r5, r6, r7, r8, lr}
  403180:	460d      	mov	r5, r1
  403182:	4680      	mov	r8, r0
  403184:	f000 fe88 	bl	403e98 <__malloc_lock>
  403188:	f855 7c04 	ldr.w	r7, [r5, #-4]
  40318c:	4969      	ldr	r1, [pc, #420]	; (403334 <_free_r+0x1bc>)
  40318e:	f027 0301 	bic.w	r3, r7, #1
  403192:	f1a5 0408 	sub.w	r4, r5, #8
  403196:	18e2      	adds	r2, r4, r3
  403198:	688e      	ldr	r6, [r1, #8]
  40319a:	6850      	ldr	r0, [r2, #4]
  40319c:	42b2      	cmp	r2, r6
  40319e:	f020 0003 	bic.w	r0, r0, #3
  4031a2:	d05e      	beq.n	403262 <_free_r+0xea>
  4031a4:	07fe      	lsls	r6, r7, #31
  4031a6:	6050      	str	r0, [r2, #4]
  4031a8:	d40b      	bmi.n	4031c2 <_free_r+0x4a>
  4031aa:	f855 7c08 	ldr.w	r7, [r5, #-8]
  4031ae:	1be4      	subs	r4, r4, r7
  4031b0:	f101 0e08 	add.w	lr, r1, #8
  4031b4:	68a5      	ldr	r5, [r4, #8]
  4031b6:	4575      	cmp	r5, lr
  4031b8:	443b      	add	r3, r7
  4031ba:	d06d      	beq.n	403298 <_free_r+0x120>
  4031bc:	68e7      	ldr	r7, [r4, #12]
  4031be:	60ef      	str	r7, [r5, #12]
  4031c0:	60bd      	str	r5, [r7, #8]
  4031c2:	1815      	adds	r5, r2, r0
  4031c4:	686d      	ldr	r5, [r5, #4]
  4031c6:	07ed      	lsls	r5, r5, #31
  4031c8:	d53e      	bpl.n	403248 <_free_r+0xd0>
  4031ca:	f043 0201 	orr.w	r2, r3, #1
  4031ce:	6062      	str	r2, [r4, #4]
  4031d0:	50e3      	str	r3, [r4, r3]
  4031d2:	f5b3 7f00 	cmp.w	r3, #512	; 0x200
  4031d6:	d217      	bcs.n	403208 <_free_r+0x90>
  4031d8:	08db      	lsrs	r3, r3, #3
  4031da:	1c58      	adds	r0, r3, #1
  4031dc:	109a      	asrs	r2, r3, #2
  4031de:	684d      	ldr	r5, [r1, #4]
  4031e0:	f851 7030 	ldr.w	r7, [r1, r0, lsl #3]
  4031e4:	60a7      	str	r7, [r4, #8]
  4031e6:	2301      	movs	r3, #1
  4031e8:	4093      	lsls	r3, r2
  4031ea:	eb01 02c0 	add.w	r2, r1, r0, lsl #3
  4031ee:	432b      	orrs	r3, r5
  4031f0:	3a08      	subs	r2, #8
  4031f2:	60e2      	str	r2, [r4, #12]
  4031f4:	604b      	str	r3, [r1, #4]
  4031f6:	f841 4030 	str.w	r4, [r1, r0, lsl #3]
  4031fa:	60fc      	str	r4, [r7, #12]
  4031fc:	4640      	mov	r0, r8
  4031fe:	e8bd 41f0 	ldmia.w	sp!, {r4, r5, r6, r7, r8, lr}
  403202:	f000 be4b 	b.w	403e9c <__malloc_unlock>
  403206:	4770      	bx	lr
  403208:	0a5a      	lsrs	r2, r3, #9
  40320a:	2a04      	cmp	r2, #4
  40320c:	d852      	bhi.n	4032b4 <_free_r+0x13c>
  40320e:	099a      	lsrs	r2, r3, #6
  403210:	f102 0739 	add.w	r7, r2, #57	; 0x39
  403214:	00ff      	lsls	r7, r7, #3
  403216:	f102 0538 	add.w	r5, r2, #56	; 0x38
  40321a:	19c8      	adds	r0, r1, r7
  40321c:	59ca      	ldr	r2, [r1, r7]
  40321e:	3808      	subs	r0, #8
  403220:	4290      	cmp	r0, r2
  403222:	d04f      	beq.n	4032c4 <_free_r+0x14c>
  403224:	6851      	ldr	r1, [r2, #4]
  403226:	f021 0103 	bic.w	r1, r1, #3
  40322a:	428b      	cmp	r3, r1
  40322c:	d232      	bcs.n	403294 <_free_r+0x11c>
  40322e:	6892      	ldr	r2, [r2, #8]
  403230:	4290      	cmp	r0, r2
  403232:	d1f7      	bne.n	403224 <_free_r+0xac>
  403234:	68c3      	ldr	r3, [r0, #12]
  403236:	60a0      	str	r0, [r4, #8]
  403238:	60e3      	str	r3, [r4, #12]
  40323a:	609c      	str	r4, [r3, #8]
  40323c:	60c4      	str	r4, [r0, #12]
  40323e:	4640      	mov	r0, r8
  403240:	e8bd 41f0 	ldmia.w	sp!, {r4, r5, r6, r7, r8, lr}
  403244:	f000 be2a 	b.w	403e9c <__malloc_unlock>
  403248:	6895      	ldr	r5, [r2, #8]
  40324a:	4f3b      	ldr	r7, [pc, #236]	; (403338 <_free_r+0x1c0>)
  40324c:	42bd      	cmp	r5, r7
  40324e:	4403      	add	r3, r0
  403250:	d040      	beq.n	4032d4 <_free_r+0x15c>
  403252:	68d0      	ldr	r0, [r2, #12]
  403254:	60e8      	str	r0, [r5, #12]
  403256:	f043 0201 	orr.w	r2, r3, #1
  40325a:	6085      	str	r5, [r0, #8]
  40325c:	6062      	str	r2, [r4, #4]
  40325e:	50e3      	str	r3, [r4, r3]
  403260:	e7b7      	b.n	4031d2 <_free_r+0x5a>
  403262:	07ff      	lsls	r7, r7, #31
  403264:	4403      	add	r3, r0
  403266:	d407      	bmi.n	403278 <_free_r+0x100>
  403268:	f855 2c08 	ldr.w	r2, [r5, #-8]
  40326c:	1aa4      	subs	r4, r4, r2
  40326e:	4413      	add	r3, r2
  403270:	68a0      	ldr	r0, [r4, #8]
  403272:	68e2      	ldr	r2, [r4, #12]
  403274:	60c2      	str	r2, [r0, #12]
  403276:	6090      	str	r0, [r2, #8]
  403278:	4a30      	ldr	r2, [pc, #192]	; (40333c <_free_r+0x1c4>)
  40327a:	6812      	ldr	r2, [r2, #0]
  40327c:	f043 0001 	orr.w	r0, r3, #1
  403280:	4293      	cmp	r3, r2
  403282:	6060      	str	r0, [r4, #4]
  403284:	608c      	str	r4, [r1, #8]
  403286:	d3b9      	bcc.n	4031fc <_free_r+0x84>
  403288:	4b2d      	ldr	r3, [pc, #180]	; (403340 <_free_r+0x1c8>)
  40328a:	4640      	mov	r0, r8
  40328c:	6819      	ldr	r1, [r3, #0]
  40328e:	f7ff ff23 	bl	4030d8 <_malloc_trim_r>
  403292:	e7b3      	b.n	4031fc <_free_r+0x84>
  403294:	4610      	mov	r0, r2
  403296:	e7cd      	b.n	403234 <_free_r+0xbc>
  403298:	1811      	adds	r1, r2, r0
  40329a:	6849      	ldr	r1, [r1, #4]
  40329c:	07c9      	lsls	r1, r1, #31
  40329e:	d444      	bmi.n	40332a <_free_r+0x1b2>
  4032a0:	6891      	ldr	r1, [r2, #8]
  4032a2:	68d2      	ldr	r2, [r2, #12]
  4032a4:	60ca      	str	r2, [r1, #12]
  4032a6:	4403      	add	r3, r0
  4032a8:	f043 0001 	orr.w	r0, r3, #1
  4032ac:	6091      	str	r1, [r2, #8]
  4032ae:	6060      	str	r0, [r4, #4]
  4032b0:	50e3      	str	r3, [r4, r3]
  4032b2:	e7a3      	b.n	4031fc <_free_r+0x84>
  4032b4:	2a14      	cmp	r2, #20
  4032b6:	d816      	bhi.n	4032e6 <_free_r+0x16e>
  4032b8:	f102 075c 	add.w	r7, r2, #92	; 0x5c
  4032bc:	00ff      	lsls	r7, r7, #3
  4032be:	f102 055b 	add.w	r5, r2, #91	; 0x5b
  4032c2:	e7aa      	b.n	40321a <_free_r+0xa2>
  4032c4:	10aa      	asrs	r2, r5, #2
  4032c6:	2301      	movs	r3, #1
  4032c8:	684d      	ldr	r5, [r1, #4]
  4032ca:	4093      	lsls	r3, r2
  4032cc:	432b      	orrs	r3, r5
  4032ce:	604b      	str	r3, [r1, #4]
  4032d0:	4603      	mov	r3, r0
  4032d2:	e7b0      	b.n	403236 <_free_r+0xbe>
  4032d4:	f043 0201 	orr.w	r2, r3, #1
  4032d8:	614c      	str	r4, [r1, #20]
  4032da:	610c      	str	r4, [r1, #16]
  4032dc:	60e5      	str	r5, [r4, #12]
  4032de:	60a5      	str	r5, [r4, #8]
  4032e0:	6062      	str	r2, [r4, #4]
  4032e2:	50e3      	str	r3, [r4, r3]
  4032e4:	e78a      	b.n	4031fc <_free_r+0x84>
  4032e6:	2a54      	cmp	r2, #84	; 0x54
  4032e8:	d806      	bhi.n	4032f8 <_free_r+0x180>
  4032ea:	0b1a      	lsrs	r2, r3, #12
  4032ec:	f102 076f 	add.w	r7, r2, #111	; 0x6f
  4032f0:	00ff      	lsls	r7, r7, #3
  4032f2:	f102 056e 	add.w	r5, r2, #110	; 0x6e
  4032f6:	e790      	b.n	40321a <_free_r+0xa2>
  4032f8:	f5b2 7faa 	cmp.w	r2, #340	; 0x154
  4032fc:	d806      	bhi.n	40330c <_free_r+0x194>
  4032fe:	0bda      	lsrs	r2, r3, #15
  403300:	f102 0778 	add.w	r7, r2, #120	; 0x78
  403304:	00ff      	lsls	r7, r7, #3
  403306:	f102 0577 	add.w	r5, r2, #119	; 0x77
  40330a:	e786      	b.n	40321a <_free_r+0xa2>
  40330c:	f240 5054 	movw	r0, #1364	; 0x554
  403310:	4282      	cmp	r2, r0
  403312:	d806      	bhi.n	403322 <_free_r+0x1aa>
  403314:	0c9a      	lsrs	r2, r3, #18
  403316:	f102 077d 	add.w	r7, r2, #125	; 0x7d
  40331a:	00ff      	lsls	r7, r7, #3
  40331c:	f102 057c 	add.w	r5, r2, #124	; 0x7c
  403320:	e77b      	b.n	40321a <_free_r+0xa2>
  403322:	f44f 777e 	mov.w	r7, #1016	; 0x3f8
  403326:	257e      	movs	r5, #126	; 0x7e
  403328:	e777      	b.n	40321a <_free_r+0xa2>
  40332a:	f043 0101 	orr.w	r1, r3, #1
  40332e:	6061      	str	r1, [r4, #4]
  403330:	6013      	str	r3, [r2, #0]
  403332:	e763      	b.n	4031fc <_free_r+0x84>
  403334:	204005a4 	.word	0x204005a4
  403338:	204005ac 	.word	0x204005ac
  40333c:	204009b0 	.word	0x204009b0
  403340:	20400e38 	.word	0x20400e38

00403344 <__sfvwrite_r>:
  403344:	6893      	ldr	r3, [r2, #8]
  403346:	2b00      	cmp	r3, #0
  403348:	d073      	beq.n	403432 <__sfvwrite_r+0xee>
  40334a:	e92d 4ff0 	stmdb	sp!, {r4, r5, r6, r7, r8, r9, sl, fp, lr}
  40334e:	898b      	ldrh	r3, [r1, #12]
  403350:	b083      	sub	sp, #12
  403352:	460c      	mov	r4, r1
  403354:	0719      	lsls	r1, r3, #28
  403356:	9000      	str	r0, [sp, #0]
  403358:	4616      	mov	r6, r2
  40335a:	d526      	bpl.n	4033aa <__sfvwrite_r+0x66>
  40335c:	6922      	ldr	r2, [r4, #16]
  40335e:	b322      	cbz	r2, 4033aa <__sfvwrite_r+0x66>
  403360:	f013 0002 	ands.w	r0, r3, #2
  403364:	6835      	ldr	r5, [r6, #0]
  403366:	d02c      	beq.n	4033c2 <__sfvwrite_r+0x7e>
  403368:	f04f 0900 	mov.w	r9, #0
  40336c:	4fb0      	ldr	r7, [pc, #704]	; (403630 <__sfvwrite_r+0x2ec>)
  40336e:	46c8      	mov	r8, r9
  403370:	46b2      	mov	sl, r6
  403372:	45b8      	cmp	r8, r7
  403374:	4643      	mov	r3, r8
  403376:	464a      	mov	r2, r9
  403378:	bf28      	it	cs
  40337a:	463b      	movcs	r3, r7
  40337c:	9800      	ldr	r0, [sp, #0]
  40337e:	f1b8 0f00 	cmp.w	r8, #0
  403382:	d050      	beq.n	403426 <__sfvwrite_r+0xe2>
  403384:	69e1      	ldr	r1, [r4, #28]
  403386:	6a66      	ldr	r6, [r4, #36]	; 0x24
  403388:	47b0      	blx	r6
  40338a:	2800      	cmp	r0, #0
  40338c:	dd58      	ble.n	403440 <__sfvwrite_r+0xfc>
  40338e:	f8da 3008 	ldr.w	r3, [sl, #8]
  403392:	1a1b      	subs	r3, r3, r0
  403394:	4481      	add	r9, r0
  403396:	eba8 0800 	sub.w	r8, r8, r0
  40339a:	f8ca 3008 	str.w	r3, [sl, #8]
  40339e:	2b00      	cmp	r3, #0
  4033a0:	d1e7      	bne.n	403372 <__sfvwrite_r+0x2e>
  4033a2:	2000      	movs	r0, #0
  4033a4:	b003      	add	sp, #12
  4033a6:	e8bd 8ff0 	ldmia.w	sp!, {r4, r5, r6, r7, r8, r9, sl, fp, pc}
  4033aa:	4621      	mov	r1, r4
  4033ac:	9800      	ldr	r0, [sp, #0]
  4033ae:	f7ff fc65 	bl	402c7c <__swsetup_r>
  4033b2:	2800      	cmp	r0, #0
  4033b4:	f040 8133 	bne.w	40361e <__sfvwrite_r+0x2da>
  4033b8:	89a3      	ldrh	r3, [r4, #12]
  4033ba:	6835      	ldr	r5, [r6, #0]
  4033bc:	f013 0002 	ands.w	r0, r3, #2
  4033c0:	d1d2      	bne.n	403368 <__sfvwrite_r+0x24>
  4033c2:	f013 0901 	ands.w	r9, r3, #1
  4033c6:	d145      	bne.n	403454 <__sfvwrite_r+0x110>
  4033c8:	464f      	mov	r7, r9
  4033ca:	9601      	str	r6, [sp, #4]
  4033cc:	b337      	cbz	r7, 40341c <__sfvwrite_r+0xd8>
  4033ce:	059a      	lsls	r2, r3, #22
  4033d0:	f8d4 8008 	ldr.w	r8, [r4, #8]
  4033d4:	f140 8083 	bpl.w	4034de <__sfvwrite_r+0x19a>
  4033d8:	4547      	cmp	r7, r8
  4033da:	46c3      	mov	fp, r8
  4033dc:	f0c0 80ab 	bcc.w	403536 <__sfvwrite_r+0x1f2>
  4033e0:	f413 6f90 	tst.w	r3, #1152	; 0x480
  4033e4:	f040 80ac 	bne.w	403540 <__sfvwrite_r+0x1fc>
  4033e8:	6820      	ldr	r0, [r4, #0]
  4033ea:	46ba      	mov	sl, r7
  4033ec:	465a      	mov	r2, fp
  4033ee:	4649      	mov	r1, r9
  4033f0:	f000 fcee 	bl	403dd0 <memmove>
  4033f4:	68a2      	ldr	r2, [r4, #8]
  4033f6:	6823      	ldr	r3, [r4, #0]
  4033f8:	eba2 0208 	sub.w	r2, r2, r8
  4033fc:	445b      	add	r3, fp
  4033fe:	60a2      	str	r2, [r4, #8]
  403400:	6023      	str	r3, [r4, #0]
  403402:	9a01      	ldr	r2, [sp, #4]
  403404:	6893      	ldr	r3, [r2, #8]
  403406:	eba3 030a 	sub.w	r3, r3, sl
  40340a:	44d1      	add	r9, sl
  40340c:	eba7 070a 	sub.w	r7, r7, sl
  403410:	6093      	str	r3, [r2, #8]
  403412:	2b00      	cmp	r3, #0
  403414:	d0c5      	beq.n	4033a2 <__sfvwrite_r+0x5e>
  403416:	89a3      	ldrh	r3, [r4, #12]
  403418:	2f00      	cmp	r7, #0
  40341a:	d1d8      	bne.n	4033ce <__sfvwrite_r+0x8a>
  40341c:	f8d5 9000 	ldr.w	r9, [r5]
  403420:	686f      	ldr	r7, [r5, #4]
  403422:	3508      	adds	r5, #8
  403424:	e7d2      	b.n	4033cc <__sfvwrite_r+0x88>
  403426:	f8d5 9000 	ldr.w	r9, [r5]
  40342a:	f8d5 8004 	ldr.w	r8, [r5, #4]
  40342e:	3508      	adds	r5, #8
  403430:	e79f      	b.n	403372 <__sfvwrite_r+0x2e>
  403432:	2000      	movs	r0, #0
  403434:	4770      	bx	lr
  403436:	4621      	mov	r1, r4
  403438:	9800      	ldr	r0, [sp, #0]
  40343a:	f7ff fd33 	bl	402ea4 <_fflush_r>
  40343e:	b370      	cbz	r0, 40349e <__sfvwrite_r+0x15a>
  403440:	f9b4 300c 	ldrsh.w	r3, [r4, #12]
  403444:	f043 0340 	orr.w	r3, r3, #64	; 0x40
  403448:	f04f 30ff 	mov.w	r0, #4294967295
  40344c:	81a3      	strh	r3, [r4, #12]
  40344e:	b003      	add	sp, #12
  403450:	e8bd 8ff0 	ldmia.w	sp!, {r4, r5, r6, r7, r8, r9, sl, fp, pc}
  403454:	4681      	mov	r9, r0
  403456:	4633      	mov	r3, r6
  403458:	464e      	mov	r6, r9
  40345a:	46a8      	mov	r8, r5
  40345c:	469a      	mov	sl, r3
  40345e:	464d      	mov	r5, r9
  403460:	b34e      	cbz	r6, 4034b6 <__sfvwrite_r+0x172>
  403462:	b380      	cbz	r0, 4034c6 <__sfvwrite_r+0x182>
  403464:	6820      	ldr	r0, [r4, #0]
  403466:	6923      	ldr	r3, [r4, #16]
  403468:	6962      	ldr	r2, [r4, #20]
  40346a:	45b1      	cmp	r9, r6
  40346c:	46cb      	mov	fp, r9
  40346e:	bf28      	it	cs
  403470:	46b3      	movcs	fp, r6
  403472:	4298      	cmp	r0, r3
  403474:	465f      	mov	r7, fp
  403476:	d904      	bls.n	403482 <__sfvwrite_r+0x13e>
  403478:	68a3      	ldr	r3, [r4, #8]
  40347a:	4413      	add	r3, r2
  40347c:	459b      	cmp	fp, r3
  40347e:	f300 80a6 	bgt.w	4035ce <__sfvwrite_r+0x28a>
  403482:	4593      	cmp	fp, r2
  403484:	db4b      	blt.n	40351e <__sfvwrite_r+0x1da>
  403486:	4613      	mov	r3, r2
  403488:	6a67      	ldr	r7, [r4, #36]	; 0x24
  40348a:	69e1      	ldr	r1, [r4, #28]
  40348c:	9800      	ldr	r0, [sp, #0]
  40348e:	462a      	mov	r2, r5
  403490:	47b8      	blx	r7
  403492:	1e07      	subs	r7, r0, #0
  403494:	ddd4      	ble.n	403440 <__sfvwrite_r+0xfc>
  403496:	ebb9 0907 	subs.w	r9, r9, r7
  40349a:	d0cc      	beq.n	403436 <__sfvwrite_r+0xf2>
  40349c:	2001      	movs	r0, #1
  40349e:	f8da 3008 	ldr.w	r3, [sl, #8]
  4034a2:	1bdb      	subs	r3, r3, r7
  4034a4:	443d      	add	r5, r7
  4034a6:	1bf6      	subs	r6, r6, r7
  4034a8:	f8ca 3008 	str.w	r3, [sl, #8]
  4034ac:	2b00      	cmp	r3, #0
  4034ae:	f43f af78 	beq.w	4033a2 <__sfvwrite_r+0x5e>
  4034b2:	2e00      	cmp	r6, #0
  4034b4:	d1d5      	bne.n	403462 <__sfvwrite_r+0x11e>
  4034b6:	f108 0308 	add.w	r3, r8, #8
  4034ba:	e913 0060 	ldmdb	r3, {r5, r6}
  4034be:	4698      	mov	r8, r3
  4034c0:	3308      	adds	r3, #8
  4034c2:	2e00      	cmp	r6, #0
  4034c4:	d0f9      	beq.n	4034ba <__sfvwrite_r+0x176>
  4034c6:	4632      	mov	r2, r6
  4034c8:	210a      	movs	r1, #10
  4034ca:	4628      	mov	r0, r5
  4034cc:	f000 fc30 	bl	403d30 <memchr>
  4034d0:	2800      	cmp	r0, #0
  4034d2:	f000 80a1 	beq.w	403618 <__sfvwrite_r+0x2d4>
  4034d6:	3001      	adds	r0, #1
  4034d8:	eba0 0905 	sub.w	r9, r0, r5
  4034dc:	e7c2      	b.n	403464 <__sfvwrite_r+0x120>
  4034de:	6820      	ldr	r0, [r4, #0]
  4034e0:	6923      	ldr	r3, [r4, #16]
  4034e2:	4298      	cmp	r0, r3
  4034e4:	d802      	bhi.n	4034ec <__sfvwrite_r+0x1a8>
  4034e6:	6963      	ldr	r3, [r4, #20]
  4034e8:	429f      	cmp	r7, r3
  4034ea:	d25d      	bcs.n	4035a8 <__sfvwrite_r+0x264>
  4034ec:	45b8      	cmp	r8, r7
  4034ee:	bf28      	it	cs
  4034f0:	46b8      	movcs	r8, r7
  4034f2:	4642      	mov	r2, r8
  4034f4:	4649      	mov	r1, r9
  4034f6:	f000 fc6b 	bl	403dd0 <memmove>
  4034fa:	68a3      	ldr	r3, [r4, #8]
  4034fc:	6822      	ldr	r2, [r4, #0]
  4034fe:	eba3 0308 	sub.w	r3, r3, r8
  403502:	4442      	add	r2, r8
  403504:	60a3      	str	r3, [r4, #8]
  403506:	6022      	str	r2, [r4, #0]
  403508:	b10b      	cbz	r3, 40350e <__sfvwrite_r+0x1ca>
  40350a:	46c2      	mov	sl, r8
  40350c:	e779      	b.n	403402 <__sfvwrite_r+0xbe>
  40350e:	4621      	mov	r1, r4
  403510:	9800      	ldr	r0, [sp, #0]
  403512:	f7ff fcc7 	bl	402ea4 <_fflush_r>
  403516:	2800      	cmp	r0, #0
  403518:	d192      	bne.n	403440 <__sfvwrite_r+0xfc>
  40351a:	46c2      	mov	sl, r8
  40351c:	e771      	b.n	403402 <__sfvwrite_r+0xbe>
  40351e:	465a      	mov	r2, fp
  403520:	4629      	mov	r1, r5
  403522:	f000 fc55 	bl	403dd0 <memmove>
  403526:	68a2      	ldr	r2, [r4, #8]
  403528:	6823      	ldr	r3, [r4, #0]
  40352a:	eba2 020b 	sub.w	r2, r2, fp
  40352e:	445b      	add	r3, fp
  403530:	60a2      	str	r2, [r4, #8]
  403532:	6023      	str	r3, [r4, #0]
  403534:	e7af      	b.n	403496 <__sfvwrite_r+0x152>
  403536:	6820      	ldr	r0, [r4, #0]
  403538:	46b8      	mov	r8, r7
  40353a:	46ba      	mov	sl, r7
  40353c:	46bb      	mov	fp, r7
  40353e:	e755      	b.n	4033ec <__sfvwrite_r+0xa8>
  403540:	6962      	ldr	r2, [r4, #20]
  403542:	6820      	ldr	r0, [r4, #0]
  403544:	6921      	ldr	r1, [r4, #16]
  403546:	eb02 0842 	add.w	r8, r2, r2, lsl #1
  40354a:	eba0 0a01 	sub.w	sl, r0, r1
  40354e:	eb08 78d8 	add.w	r8, r8, r8, lsr #31
  403552:	f10a 0001 	add.w	r0, sl, #1
  403556:	ea4f 0868 	mov.w	r8, r8, asr #1
  40355a:	4438      	add	r0, r7
  40355c:	4540      	cmp	r0, r8
  40355e:	4642      	mov	r2, r8
  403560:	bf84      	itt	hi
  403562:	4680      	movhi	r8, r0
  403564:	4642      	movhi	r2, r8
  403566:	055b      	lsls	r3, r3, #21
  403568:	d544      	bpl.n	4035f4 <__sfvwrite_r+0x2b0>
  40356a:	4611      	mov	r1, r2
  40356c:	9800      	ldr	r0, [sp, #0]
  40356e:	f000 f913 	bl	403798 <_malloc_r>
  403572:	4683      	mov	fp, r0
  403574:	2800      	cmp	r0, #0
  403576:	d055      	beq.n	403624 <__sfvwrite_r+0x2e0>
  403578:	4652      	mov	r2, sl
  40357a:	6921      	ldr	r1, [r4, #16]
  40357c:	f7fe fb72 	bl	401c64 <memcpy>
  403580:	89a3      	ldrh	r3, [r4, #12]
  403582:	f423 6390 	bic.w	r3, r3, #1152	; 0x480
  403586:	f043 0380 	orr.w	r3, r3, #128	; 0x80
  40358a:	81a3      	strh	r3, [r4, #12]
  40358c:	eb0b 000a 	add.w	r0, fp, sl
  403590:	eba8 030a 	sub.w	r3, r8, sl
  403594:	f8c4 b010 	str.w	fp, [r4, #16]
  403598:	f8c4 8014 	str.w	r8, [r4, #20]
  40359c:	6020      	str	r0, [r4, #0]
  40359e:	60a3      	str	r3, [r4, #8]
  4035a0:	46b8      	mov	r8, r7
  4035a2:	46ba      	mov	sl, r7
  4035a4:	46bb      	mov	fp, r7
  4035a6:	e721      	b.n	4033ec <__sfvwrite_r+0xa8>
  4035a8:	f06f 4100 	mvn.w	r1, #2147483648	; 0x80000000
  4035ac:	42b9      	cmp	r1, r7
  4035ae:	bf28      	it	cs
  4035b0:	4639      	movcs	r1, r7
  4035b2:	464a      	mov	r2, r9
  4035b4:	fb91 f1f3 	sdiv	r1, r1, r3
  4035b8:	9800      	ldr	r0, [sp, #0]
  4035ba:	6a66      	ldr	r6, [r4, #36]	; 0x24
  4035bc:	fb03 f301 	mul.w	r3, r3, r1
  4035c0:	69e1      	ldr	r1, [r4, #28]
  4035c2:	47b0      	blx	r6
  4035c4:	f1b0 0a00 	subs.w	sl, r0, #0
  4035c8:	f73f af1b 	bgt.w	403402 <__sfvwrite_r+0xbe>
  4035cc:	e738      	b.n	403440 <__sfvwrite_r+0xfc>
  4035ce:	461a      	mov	r2, r3
  4035d0:	4629      	mov	r1, r5
  4035d2:	9301      	str	r3, [sp, #4]
  4035d4:	f000 fbfc 	bl	403dd0 <memmove>
  4035d8:	6822      	ldr	r2, [r4, #0]
  4035da:	9b01      	ldr	r3, [sp, #4]
  4035dc:	9800      	ldr	r0, [sp, #0]
  4035de:	441a      	add	r2, r3
  4035e0:	6022      	str	r2, [r4, #0]
  4035e2:	4621      	mov	r1, r4
  4035e4:	f7ff fc5e 	bl	402ea4 <_fflush_r>
  4035e8:	9b01      	ldr	r3, [sp, #4]
  4035ea:	2800      	cmp	r0, #0
  4035ec:	f47f af28 	bne.w	403440 <__sfvwrite_r+0xfc>
  4035f0:	461f      	mov	r7, r3
  4035f2:	e750      	b.n	403496 <__sfvwrite_r+0x152>
  4035f4:	9800      	ldr	r0, [sp, #0]
  4035f6:	f000 fc53 	bl	403ea0 <_realloc_r>
  4035fa:	4683      	mov	fp, r0
  4035fc:	2800      	cmp	r0, #0
  4035fe:	d1c5      	bne.n	40358c <__sfvwrite_r+0x248>
  403600:	9d00      	ldr	r5, [sp, #0]
  403602:	6921      	ldr	r1, [r4, #16]
  403604:	4628      	mov	r0, r5
  403606:	f7ff fdb7 	bl	403178 <_free_r>
  40360a:	f9b4 300c 	ldrsh.w	r3, [r4, #12]
  40360e:	220c      	movs	r2, #12
  403610:	f023 0380 	bic.w	r3, r3, #128	; 0x80
  403614:	602a      	str	r2, [r5, #0]
  403616:	e715      	b.n	403444 <__sfvwrite_r+0x100>
  403618:	f106 0901 	add.w	r9, r6, #1
  40361c:	e722      	b.n	403464 <__sfvwrite_r+0x120>
  40361e:	f04f 30ff 	mov.w	r0, #4294967295
  403622:	e6bf      	b.n	4033a4 <__sfvwrite_r+0x60>
  403624:	9a00      	ldr	r2, [sp, #0]
  403626:	230c      	movs	r3, #12
  403628:	6013      	str	r3, [r2, #0]
  40362a:	f9b4 300c 	ldrsh.w	r3, [r4, #12]
  40362e:	e709      	b.n	403444 <__sfvwrite_r+0x100>
  403630:	7ffffc00 	.word	0x7ffffc00

00403634 <_fwalk_reent>:
  403634:	e92d 43f8 	stmdb	sp!, {r3, r4, r5, r6, r7, r8, r9, lr}
  403638:	f510 7738 	adds.w	r7, r0, #736	; 0x2e0
  40363c:	d01f      	beq.n	40367e <_fwalk_reent+0x4a>
  40363e:	4688      	mov	r8, r1
  403640:	4606      	mov	r6, r0
  403642:	f04f 0900 	mov.w	r9, #0
  403646:	687d      	ldr	r5, [r7, #4]
  403648:	68bc      	ldr	r4, [r7, #8]
  40364a:	3d01      	subs	r5, #1
  40364c:	d411      	bmi.n	403672 <_fwalk_reent+0x3e>
  40364e:	89a3      	ldrh	r3, [r4, #12]
  403650:	2b01      	cmp	r3, #1
  403652:	f105 35ff 	add.w	r5, r5, #4294967295
  403656:	d908      	bls.n	40366a <_fwalk_reent+0x36>
  403658:	f9b4 300e 	ldrsh.w	r3, [r4, #14]
  40365c:	3301      	adds	r3, #1
  40365e:	4621      	mov	r1, r4
  403660:	4630      	mov	r0, r6
  403662:	d002      	beq.n	40366a <_fwalk_reent+0x36>
  403664:	47c0      	blx	r8
  403666:	ea49 0900 	orr.w	r9, r9, r0
  40366a:	1c6b      	adds	r3, r5, #1
  40366c:	f104 0468 	add.w	r4, r4, #104	; 0x68
  403670:	d1ed      	bne.n	40364e <_fwalk_reent+0x1a>
  403672:	683f      	ldr	r7, [r7, #0]
  403674:	2f00      	cmp	r7, #0
  403676:	d1e6      	bne.n	403646 <_fwalk_reent+0x12>
  403678:	4648      	mov	r0, r9
  40367a:	e8bd 83f8 	ldmia.w	sp!, {r3, r4, r5, r6, r7, r8, r9, pc}
  40367e:	46b9      	mov	r9, r7
  403680:	4648      	mov	r0, r9
  403682:	e8bd 83f8 	ldmia.w	sp!, {r3, r4, r5, r6, r7, r8, r9, pc}
  403686:	bf00      	nop

00403688 <__locale_mb_cur_max>:
  403688:	4b04      	ldr	r3, [pc, #16]	; (40369c <__locale_mb_cur_max+0x14>)
  40368a:	4a05      	ldr	r2, [pc, #20]	; (4036a0 <__locale_mb_cur_max+0x18>)
  40368c:	681b      	ldr	r3, [r3, #0]
  40368e:	6b5b      	ldr	r3, [r3, #52]	; 0x34
  403690:	2b00      	cmp	r3, #0
  403692:	bf08      	it	eq
  403694:	4613      	moveq	r3, r2
  403696:	f893 0128 	ldrb.w	r0, [r3, #296]	; 0x128
  40369a:	4770      	bx	lr
  40369c:	20400008 	.word	0x20400008
  4036a0:	20400438 	.word	0x20400438

004036a4 <__swhatbuf_r>:
  4036a4:	b570      	push	{r4, r5, r6, lr}
  4036a6:	460c      	mov	r4, r1
  4036a8:	f9b1 100e 	ldrsh.w	r1, [r1, #14]
  4036ac:	2900      	cmp	r1, #0
  4036ae:	b090      	sub	sp, #64	; 0x40
  4036b0:	4615      	mov	r5, r2
  4036b2:	461e      	mov	r6, r3
  4036b4:	db14      	blt.n	4036e0 <__swhatbuf_r+0x3c>
  4036b6:	aa01      	add	r2, sp, #4
  4036b8:	f000 ffba 	bl	404630 <_fstat_r>
  4036bc:	2800      	cmp	r0, #0
  4036be:	db0f      	blt.n	4036e0 <__swhatbuf_r+0x3c>
  4036c0:	9a02      	ldr	r2, [sp, #8]
  4036c2:	f402 4270 	and.w	r2, r2, #61440	; 0xf000
  4036c6:	f5a2 5200 	sub.w	r2, r2, #8192	; 0x2000
  4036ca:	fab2 f282 	clz	r2, r2
  4036ce:	0952      	lsrs	r2, r2, #5
  4036d0:	f44f 6380 	mov.w	r3, #1024	; 0x400
  4036d4:	f44f 6000 	mov.w	r0, #2048	; 0x800
  4036d8:	6032      	str	r2, [r6, #0]
  4036da:	602b      	str	r3, [r5, #0]
  4036dc:	b010      	add	sp, #64	; 0x40
  4036de:	bd70      	pop	{r4, r5, r6, pc}
  4036e0:	89a2      	ldrh	r2, [r4, #12]
  4036e2:	2300      	movs	r3, #0
  4036e4:	f012 0080 	ands.w	r0, r2, #128	; 0x80
  4036e8:	6033      	str	r3, [r6, #0]
  4036ea:	d004      	beq.n	4036f6 <__swhatbuf_r+0x52>
  4036ec:	2240      	movs	r2, #64	; 0x40
  4036ee:	4618      	mov	r0, r3
  4036f0:	602a      	str	r2, [r5, #0]
  4036f2:	b010      	add	sp, #64	; 0x40
  4036f4:	bd70      	pop	{r4, r5, r6, pc}
  4036f6:	f44f 6380 	mov.w	r3, #1024	; 0x400
  4036fa:	602b      	str	r3, [r5, #0]
  4036fc:	b010      	add	sp, #64	; 0x40
  4036fe:	bd70      	pop	{r4, r5, r6, pc}

00403700 <__smakebuf_r>:
  403700:	898a      	ldrh	r2, [r1, #12]
  403702:	0792      	lsls	r2, r2, #30
  403704:	460b      	mov	r3, r1
  403706:	d506      	bpl.n	403716 <__smakebuf_r+0x16>
  403708:	f101 0243 	add.w	r2, r1, #67	; 0x43
  40370c:	2101      	movs	r1, #1
  40370e:	601a      	str	r2, [r3, #0]
  403710:	611a      	str	r2, [r3, #16]
  403712:	6159      	str	r1, [r3, #20]
  403714:	4770      	bx	lr
  403716:	b5f0      	push	{r4, r5, r6, r7, lr}
  403718:	b083      	sub	sp, #12
  40371a:	ab01      	add	r3, sp, #4
  40371c:	466a      	mov	r2, sp
  40371e:	460c      	mov	r4, r1
  403720:	4605      	mov	r5, r0
  403722:	f7ff ffbf 	bl	4036a4 <__swhatbuf_r>
  403726:	9900      	ldr	r1, [sp, #0]
  403728:	4606      	mov	r6, r0
  40372a:	4628      	mov	r0, r5
  40372c:	f000 f834 	bl	403798 <_malloc_r>
  403730:	f9b4 300c 	ldrsh.w	r3, [r4, #12]
  403734:	b1d0      	cbz	r0, 40376c <__smakebuf_r+0x6c>
  403736:	9a01      	ldr	r2, [sp, #4]
  403738:	4f12      	ldr	r7, [pc, #72]	; (403784 <__smakebuf_r+0x84>)
  40373a:	9900      	ldr	r1, [sp, #0]
  40373c:	63ef      	str	r7, [r5, #60]	; 0x3c
  40373e:	f043 0380 	orr.w	r3, r3, #128	; 0x80
  403742:	81a3      	strh	r3, [r4, #12]
  403744:	6020      	str	r0, [r4, #0]
  403746:	6120      	str	r0, [r4, #16]
  403748:	6161      	str	r1, [r4, #20]
  40374a:	b91a      	cbnz	r2, 403754 <__smakebuf_r+0x54>
  40374c:	4333      	orrs	r3, r6
  40374e:	81a3      	strh	r3, [r4, #12]
  403750:	b003      	add	sp, #12
  403752:	bdf0      	pop	{r4, r5, r6, r7, pc}
  403754:	4628      	mov	r0, r5
  403756:	f9b4 100e 	ldrsh.w	r1, [r4, #14]
  40375a:	f000 ff7d 	bl	404658 <_isatty_r>
  40375e:	f9b4 300c 	ldrsh.w	r3, [r4, #12]
  403762:	2800      	cmp	r0, #0
  403764:	d0f2      	beq.n	40374c <__smakebuf_r+0x4c>
  403766:	f043 0301 	orr.w	r3, r3, #1
  40376a:	e7ef      	b.n	40374c <__smakebuf_r+0x4c>
  40376c:	059a      	lsls	r2, r3, #22
  40376e:	d4ef      	bmi.n	403750 <__smakebuf_r+0x50>
  403770:	f104 0243 	add.w	r2, r4, #67	; 0x43
  403774:	f043 0302 	orr.w	r3, r3, #2
  403778:	2101      	movs	r1, #1
  40377a:	81a3      	strh	r3, [r4, #12]
  40377c:	6022      	str	r2, [r4, #0]
  40377e:	6122      	str	r2, [r4, #16]
  403780:	6161      	str	r1, [r4, #20]
  403782:	e7e5      	b.n	403750 <__smakebuf_r+0x50>
  403784:	00402ed1 	.word	0x00402ed1

00403788 <malloc>:
  403788:	4b02      	ldr	r3, [pc, #8]	; (403794 <malloc+0xc>)
  40378a:	4601      	mov	r1, r0
  40378c:	6818      	ldr	r0, [r3, #0]
  40378e:	f000 b803 	b.w	403798 <_malloc_r>
  403792:	bf00      	nop
  403794:	20400008 	.word	0x20400008

00403798 <_malloc_r>:
  403798:	e92d 4ff0 	stmdb	sp!, {r4, r5, r6, r7, r8, r9, sl, fp, lr}
  40379c:	f101 060b 	add.w	r6, r1, #11
  4037a0:	2e16      	cmp	r6, #22
  4037a2:	b083      	sub	sp, #12
  4037a4:	4605      	mov	r5, r0
  4037a6:	f240 809e 	bls.w	4038e6 <_malloc_r+0x14e>
  4037aa:	f036 0607 	bics.w	r6, r6, #7
  4037ae:	f100 80bd 	bmi.w	40392c <_malloc_r+0x194>
  4037b2:	42b1      	cmp	r1, r6
  4037b4:	f200 80ba 	bhi.w	40392c <_malloc_r+0x194>
  4037b8:	f000 fb6e 	bl	403e98 <__malloc_lock>
  4037bc:	f5b6 7ffc 	cmp.w	r6, #504	; 0x1f8
  4037c0:	f0c0 8293 	bcc.w	403cea <_malloc_r+0x552>
  4037c4:	0a73      	lsrs	r3, r6, #9
  4037c6:	f000 80b8 	beq.w	40393a <_malloc_r+0x1a2>
  4037ca:	2b04      	cmp	r3, #4
  4037cc:	f200 8179 	bhi.w	403ac2 <_malloc_r+0x32a>
  4037d0:	09b3      	lsrs	r3, r6, #6
  4037d2:	f103 0039 	add.w	r0, r3, #57	; 0x39
  4037d6:	f103 0e38 	add.w	lr, r3, #56	; 0x38
  4037da:	00c3      	lsls	r3, r0, #3
  4037dc:	4fbf      	ldr	r7, [pc, #764]	; (403adc <_malloc_r+0x344>)
  4037de:	443b      	add	r3, r7
  4037e0:	f1a3 0108 	sub.w	r1, r3, #8
  4037e4:	685c      	ldr	r4, [r3, #4]
  4037e6:	42a1      	cmp	r1, r4
  4037e8:	d106      	bne.n	4037f8 <_malloc_r+0x60>
  4037ea:	e00c      	b.n	403806 <_malloc_r+0x6e>
  4037ec:	2a00      	cmp	r2, #0
  4037ee:	f280 80aa 	bge.w	403946 <_malloc_r+0x1ae>
  4037f2:	68e4      	ldr	r4, [r4, #12]
  4037f4:	42a1      	cmp	r1, r4
  4037f6:	d006      	beq.n	403806 <_malloc_r+0x6e>
  4037f8:	6863      	ldr	r3, [r4, #4]
  4037fa:	f023 0303 	bic.w	r3, r3, #3
  4037fe:	1b9a      	subs	r2, r3, r6
  403800:	2a0f      	cmp	r2, #15
  403802:	ddf3      	ble.n	4037ec <_malloc_r+0x54>
  403804:	4670      	mov	r0, lr
  403806:	693c      	ldr	r4, [r7, #16]
  403808:	f8df e2e4 	ldr.w	lr, [pc, #740]	; 403af0 <_malloc_r+0x358>
  40380c:	4574      	cmp	r4, lr
  40380e:	f000 81ab 	beq.w	403b68 <_malloc_r+0x3d0>
  403812:	6863      	ldr	r3, [r4, #4]
  403814:	f023 0303 	bic.w	r3, r3, #3
  403818:	1b9a      	subs	r2, r3, r6
  40381a:	2a0f      	cmp	r2, #15
  40381c:	f300 8190 	bgt.w	403b40 <_malloc_r+0x3a8>
  403820:	2a00      	cmp	r2, #0
  403822:	f8c7 e014 	str.w	lr, [r7, #20]
  403826:	f8c7 e010 	str.w	lr, [r7, #16]
  40382a:	f280 809d 	bge.w	403968 <_malloc_r+0x1d0>
  40382e:	f5b3 7f00 	cmp.w	r3, #512	; 0x200
  403832:	f080 8161 	bcs.w	403af8 <_malloc_r+0x360>
  403836:	08db      	lsrs	r3, r3, #3
  403838:	f103 0c01 	add.w	ip, r3, #1
  40383c:	1099      	asrs	r1, r3, #2
  40383e:	687a      	ldr	r2, [r7, #4]
  403840:	f857 803c 	ldr.w	r8, [r7, ip, lsl #3]
  403844:	f8c4 8008 	str.w	r8, [r4, #8]
  403848:	2301      	movs	r3, #1
  40384a:	408b      	lsls	r3, r1
  40384c:	eb07 01cc 	add.w	r1, r7, ip, lsl #3
  403850:	4313      	orrs	r3, r2
  403852:	3908      	subs	r1, #8
  403854:	60e1      	str	r1, [r4, #12]
  403856:	607b      	str	r3, [r7, #4]
  403858:	f847 403c 	str.w	r4, [r7, ip, lsl #3]
  40385c:	f8c8 400c 	str.w	r4, [r8, #12]
  403860:	1082      	asrs	r2, r0, #2
  403862:	2401      	movs	r4, #1
  403864:	4094      	lsls	r4, r2
  403866:	429c      	cmp	r4, r3
  403868:	f200 808b 	bhi.w	403982 <_malloc_r+0x1ea>
  40386c:	421c      	tst	r4, r3
  40386e:	d106      	bne.n	40387e <_malloc_r+0xe6>
  403870:	f020 0003 	bic.w	r0, r0, #3
  403874:	0064      	lsls	r4, r4, #1
  403876:	421c      	tst	r4, r3
  403878:	f100 0004 	add.w	r0, r0, #4
  40387c:	d0fa      	beq.n	403874 <_malloc_r+0xdc>
  40387e:	eb07 09c0 	add.w	r9, r7, r0, lsl #3
  403882:	46cc      	mov	ip, r9
  403884:	4680      	mov	r8, r0
  403886:	f8dc 300c 	ldr.w	r3, [ip, #12]
  40388a:	459c      	cmp	ip, r3
  40388c:	d107      	bne.n	40389e <_malloc_r+0x106>
  40388e:	e16d      	b.n	403b6c <_malloc_r+0x3d4>
  403890:	2a00      	cmp	r2, #0
  403892:	f280 817b 	bge.w	403b8c <_malloc_r+0x3f4>
  403896:	68db      	ldr	r3, [r3, #12]
  403898:	459c      	cmp	ip, r3
  40389a:	f000 8167 	beq.w	403b6c <_malloc_r+0x3d4>
  40389e:	6859      	ldr	r1, [r3, #4]
  4038a0:	f021 0103 	bic.w	r1, r1, #3
  4038a4:	1b8a      	subs	r2, r1, r6
  4038a6:	2a0f      	cmp	r2, #15
  4038a8:	ddf2      	ble.n	403890 <_malloc_r+0xf8>
  4038aa:	f8d3 c00c 	ldr.w	ip, [r3, #12]
  4038ae:	f8d3 8008 	ldr.w	r8, [r3, #8]
  4038b2:	9300      	str	r3, [sp, #0]
  4038b4:	199c      	adds	r4, r3, r6
  4038b6:	4628      	mov	r0, r5
  4038b8:	f046 0601 	orr.w	r6, r6, #1
  4038bc:	f042 0501 	orr.w	r5, r2, #1
  4038c0:	605e      	str	r6, [r3, #4]
  4038c2:	f8c8 c00c 	str.w	ip, [r8, #12]
  4038c6:	f8cc 8008 	str.w	r8, [ip, #8]
  4038ca:	617c      	str	r4, [r7, #20]
  4038cc:	613c      	str	r4, [r7, #16]
  4038ce:	f8c4 e00c 	str.w	lr, [r4, #12]
  4038d2:	f8c4 e008 	str.w	lr, [r4, #8]
  4038d6:	6065      	str	r5, [r4, #4]
  4038d8:	505a      	str	r2, [r3, r1]
  4038da:	f000 fadf 	bl	403e9c <__malloc_unlock>
  4038de:	9b00      	ldr	r3, [sp, #0]
  4038e0:	f103 0408 	add.w	r4, r3, #8
  4038e4:	e01e      	b.n	403924 <_malloc_r+0x18c>
  4038e6:	2910      	cmp	r1, #16
  4038e8:	d820      	bhi.n	40392c <_malloc_r+0x194>
  4038ea:	f000 fad5 	bl	403e98 <__malloc_lock>
  4038ee:	2610      	movs	r6, #16
  4038f0:	2318      	movs	r3, #24
  4038f2:	2002      	movs	r0, #2
  4038f4:	4f79      	ldr	r7, [pc, #484]	; (403adc <_malloc_r+0x344>)
  4038f6:	443b      	add	r3, r7
  4038f8:	f1a3 0208 	sub.w	r2, r3, #8
  4038fc:	685c      	ldr	r4, [r3, #4]
  4038fe:	4294      	cmp	r4, r2
  403900:	f000 813d 	beq.w	403b7e <_malloc_r+0x3e6>
  403904:	6863      	ldr	r3, [r4, #4]
  403906:	68e1      	ldr	r1, [r4, #12]
  403908:	68a6      	ldr	r6, [r4, #8]
  40390a:	f023 0303 	bic.w	r3, r3, #3
  40390e:	4423      	add	r3, r4
  403910:	4628      	mov	r0, r5
  403912:	685a      	ldr	r2, [r3, #4]
  403914:	60f1      	str	r1, [r6, #12]
  403916:	f042 0201 	orr.w	r2, r2, #1
  40391a:	608e      	str	r6, [r1, #8]
  40391c:	605a      	str	r2, [r3, #4]
  40391e:	f000 fabd 	bl	403e9c <__malloc_unlock>
  403922:	3408      	adds	r4, #8
  403924:	4620      	mov	r0, r4
  403926:	b003      	add	sp, #12
  403928:	e8bd 8ff0 	ldmia.w	sp!, {r4, r5, r6, r7, r8, r9, sl, fp, pc}
  40392c:	2400      	movs	r4, #0
  40392e:	230c      	movs	r3, #12
  403930:	4620      	mov	r0, r4
  403932:	602b      	str	r3, [r5, #0]
  403934:	b003      	add	sp, #12
  403936:	e8bd 8ff0 	ldmia.w	sp!, {r4, r5, r6, r7, r8, r9, sl, fp, pc}
  40393a:	2040      	movs	r0, #64	; 0x40
  40393c:	f44f 7300 	mov.w	r3, #512	; 0x200
  403940:	f04f 0e3f 	mov.w	lr, #63	; 0x3f
  403944:	e74a      	b.n	4037dc <_malloc_r+0x44>
  403946:	4423      	add	r3, r4
  403948:	68e1      	ldr	r1, [r4, #12]
  40394a:	685a      	ldr	r2, [r3, #4]
  40394c:	68a6      	ldr	r6, [r4, #8]
  40394e:	f042 0201 	orr.w	r2, r2, #1
  403952:	60f1      	str	r1, [r6, #12]
  403954:	4628      	mov	r0, r5
  403956:	608e      	str	r6, [r1, #8]
  403958:	605a      	str	r2, [r3, #4]
  40395a:	f000 fa9f 	bl	403e9c <__malloc_unlock>
  40395e:	3408      	adds	r4, #8
  403960:	4620      	mov	r0, r4
  403962:	b003      	add	sp, #12
  403964:	e8bd 8ff0 	ldmia.w	sp!, {r4, r5, r6, r7, r8, r9, sl, fp, pc}
  403968:	4423      	add	r3, r4
  40396a:	4628      	mov	r0, r5
  40396c:	685a      	ldr	r2, [r3, #4]
  40396e:	f042 0201 	orr.w	r2, r2, #1
  403972:	605a      	str	r2, [r3, #4]
  403974:	f000 fa92 	bl	403e9c <__malloc_unlock>
  403978:	3408      	adds	r4, #8
  40397a:	4620      	mov	r0, r4
  40397c:	b003      	add	sp, #12
  40397e:	e8bd 8ff0 	ldmia.w	sp!, {r4, r5, r6, r7, r8, r9, sl, fp, pc}
  403982:	68bc      	ldr	r4, [r7, #8]
  403984:	6863      	ldr	r3, [r4, #4]
  403986:	f023 0803 	bic.w	r8, r3, #3
  40398a:	45b0      	cmp	r8, r6
  40398c:	d304      	bcc.n	403998 <_malloc_r+0x200>
  40398e:	eba8 0306 	sub.w	r3, r8, r6
  403992:	2b0f      	cmp	r3, #15
  403994:	f300 8085 	bgt.w	403aa2 <_malloc_r+0x30a>
  403998:	f8df 9158 	ldr.w	r9, [pc, #344]	; 403af4 <_malloc_r+0x35c>
  40399c:	4b50      	ldr	r3, [pc, #320]	; (403ae0 <_malloc_r+0x348>)
  40399e:	f8d9 2000 	ldr.w	r2, [r9]
  4039a2:	681b      	ldr	r3, [r3, #0]
  4039a4:	3201      	adds	r2, #1
  4039a6:	4433      	add	r3, r6
  4039a8:	eb04 0a08 	add.w	sl, r4, r8
  4039ac:	f000 8155 	beq.w	403c5a <_malloc_r+0x4c2>
  4039b0:	f503 5380 	add.w	r3, r3, #4096	; 0x1000
  4039b4:	330f      	adds	r3, #15
  4039b6:	f423 6b7f 	bic.w	fp, r3, #4080	; 0xff0
  4039ba:	f02b 0b0f 	bic.w	fp, fp, #15
  4039be:	4659      	mov	r1, fp
  4039c0:	4628      	mov	r0, r5
  4039c2:	f000 fc13 	bl	4041ec <_sbrk_r>
  4039c6:	1c41      	adds	r1, r0, #1
  4039c8:	4602      	mov	r2, r0
  4039ca:	f000 80fc 	beq.w	403bc6 <_malloc_r+0x42e>
  4039ce:	4582      	cmp	sl, r0
  4039d0:	f200 80f7 	bhi.w	403bc2 <_malloc_r+0x42a>
  4039d4:	4b43      	ldr	r3, [pc, #268]	; (403ae4 <_malloc_r+0x34c>)
  4039d6:	6819      	ldr	r1, [r3, #0]
  4039d8:	4459      	add	r1, fp
  4039da:	6019      	str	r1, [r3, #0]
  4039dc:	f000 814d 	beq.w	403c7a <_malloc_r+0x4e2>
  4039e0:	f8d9 0000 	ldr.w	r0, [r9]
  4039e4:	3001      	adds	r0, #1
  4039e6:	bf1b      	ittet	ne
  4039e8:	eba2 0a0a 	subne.w	sl, r2, sl
  4039ec:	4451      	addne	r1, sl
  4039ee:	f8c9 2000 	streq.w	r2, [r9]
  4039f2:	6019      	strne	r1, [r3, #0]
  4039f4:	f012 0107 	ands.w	r1, r2, #7
  4039f8:	f000 8115 	beq.w	403c26 <_malloc_r+0x48e>
  4039fc:	f1c1 0008 	rsb	r0, r1, #8
  403a00:	f5c1 5180 	rsb	r1, r1, #4096	; 0x1000
  403a04:	4402      	add	r2, r0
  403a06:	3108      	adds	r1, #8
  403a08:	eb02 090b 	add.w	r9, r2, fp
  403a0c:	f3c9 090b 	ubfx	r9, r9, #0, #12
  403a10:	eba1 0909 	sub.w	r9, r1, r9
  403a14:	4649      	mov	r1, r9
  403a16:	4628      	mov	r0, r5
  403a18:	9301      	str	r3, [sp, #4]
  403a1a:	9200      	str	r2, [sp, #0]
  403a1c:	f000 fbe6 	bl	4041ec <_sbrk_r>
  403a20:	1c43      	adds	r3, r0, #1
  403a22:	e89d 000c 	ldmia.w	sp, {r2, r3}
  403a26:	f000 8143 	beq.w	403cb0 <_malloc_r+0x518>
  403a2a:	1a80      	subs	r0, r0, r2
  403a2c:	4448      	add	r0, r9
  403a2e:	f040 0001 	orr.w	r0, r0, #1
  403a32:	6819      	ldr	r1, [r3, #0]
  403a34:	60ba      	str	r2, [r7, #8]
  403a36:	4449      	add	r1, r9
  403a38:	42bc      	cmp	r4, r7
  403a3a:	6050      	str	r0, [r2, #4]
  403a3c:	6019      	str	r1, [r3, #0]
  403a3e:	d017      	beq.n	403a70 <_malloc_r+0x2d8>
  403a40:	f1b8 0f0f 	cmp.w	r8, #15
  403a44:	f240 80fb 	bls.w	403c3e <_malloc_r+0x4a6>
  403a48:	6860      	ldr	r0, [r4, #4]
  403a4a:	f1a8 020c 	sub.w	r2, r8, #12
  403a4e:	f022 0207 	bic.w	r2, r2, #7
  403a52:	eb04 0e02 	add.w	lr, r4, r2
  403a56:	f000 0001 	and.w	r0, r0, #1
  403a5a:	f04f 0c05 	mov.w	ip, #5
  403a5e:	4310      	orrs	r0, r2
  403a60:	2a0f      	cmp	r2, #15
  403a62:	6060      	str	r0, [r4, #4]
  403a64:	f8ce c004 	str.w	ip, [lr, #4]
  403a68:	f8ce c008 	str.w	ip, [lr, #8]
  403a6c:	f200 8117 	bhi.w	403c9e <_malloc_r+0x506>
  403a70:	4b1d      	ldr	r3, [pc, #116]	; (403ae8 <_malloc_r+0x350>)
  403a72:	68bc      	ldr	r4, [r7, #8]
  403a74:	681a      	ldr	r2, [r3, #0]
  403a76:	4291      	cmp	r1, r2
  403a78:	bf88      	it	hi
  403a7a:	6019      	strhi	r1, [r3, #0]
  403a7c:	4b1b      	ldr	r3, [pc, #108]	; (403aec <_malloc_r+0x354>)
  403a7e:	681a      	ldr	r2, [r3, #0]
  403a80:	4291      	cmp	r1, r2
  403a82:	6862      	ldr	r2, [r4, #4]
  403a84:	bf88      	it	hi
  403a86:	6019      	strhi	r1, [r3, #0]
  403a88:	f022 0203 	bic.w	r2, r2, #3
  403a8c:	4296      	cmp	r6, r2
  403a8e:	eba2 0306 	sub.w	r3, r2, r6
  403a92:	d801      	bhi.n	403a98 <_malloc_r+0x300>
  403a94:	2b0f      	cmp	r3, #15
  403a96:	dc04      	bgt.n	403aa2 <_malloc_r+0x30a>
  403a98:	4628      	mov	r0, r5
  403a9a:	f000 f9ff 	bl	403e9c <__malloc_unlock>
  403a9e:	2400      	movs	r4, #0
  403aa0:	e740      	b.n	403924 <_malloc_r+0x18c>
  403aa2:	19a2      	adds	r2, r4, r6
  403aa4:	f043 0301 	orr.w	r3, r3, #1
  403aa8:	f046 0601 	orr.w	r6, r6, #1
  403aac:	6066      	str	r6, [r4, #4]
  403aae:	4628      	mov	r0, r5
  403ab0:	60ba      	str	r2, [r7, #8]
  403ab2:	6053      	str	r3, [r2, #4]
  403ab4:	f000 f9f2 	bl	403e9c <__malloc_unlock>
  403ab8:	3408      	adds	r4, #8
  403aba:	4620      	mov	r0, r4
  403abc:	b003      	add	sp, #12
  403abe:	e8bd 8ff0 	ldmia.w	sp!, {r4, r5, r6, r7, r8, r9, sl, fp, pc}
  403ac2:	2b14      	cmp	r3, #20
  403ac4:	d971      	bls.n	403baa <_malloc_r+0x412>
  403ac6:	2b54      	cmp	r3, #84	; 0x54
  403ac8:	f200 80a3 	bhi.w	403c12 <_malloc_r+0x47a>
  403acc:	0b33      	lsrs	r3, r6, #12
  403ace:	f103 006f 	add.w	r0, r3, #111	; 0x6f
  403ad2:	f103 0e6e 	add.w	lr, r3, #110	; 0x6e
  403ad6:	00c3      	lsls	r3, r0, #3
  403ad8:	e680      	b.n	4037dc <_malloc_r+0x44>
  403ada:	bf00      	nop
  403adc:	204005a4 	.word	0x204005a4
  403ae0:	20400e38 	.word	0x20400e38
  403ae4:	20400e08 	.word	0x20400e08
  403ae8:	20400e30 	.word	0x20400e30
  403aec:	20400e34 	.word	0x20400e34
  403af0:	204005ac 	.word	0x204005ac
  403af4:	204009ac 	.word	0x204009ac
  403af8:	0a5a      	lsrs	r2, r3, #9
  403afa:	2a04      	cmp	r2, #4
  403afc:	d95b      	bls.n	403bb6 <_malloc_r+0x41e>
  403afe:	2a14      	cmp	r2, #20
  403b00:	f200 80ae 	bhi.w	403c60 <_malloc_r+0x4c8>
  403b04:	f102 015c 	add.w	r1, r2, #92	; 0x5c
  403b08:	00c9      	lsls	r1, r1, #3
  403b0a:	325b      	adds	r2, #91	; 0x5b
  403b0c:	eb07 0c01 	add.w	ip, r7, r1
  403b10:	5879      	ldr	r1, [r7, r1]
  403b12:	f1ac 0c08 	sub.w	ip, ip, #8
  403b16:	458c      	cmp	ip, r1
  403b18:	f000 8088 	beq.w	403c2c <_malloc_r+0x494>
  403b1c:	684a      	ldr	r2, [r1, #4]
  403b1e:	f022 0203 	bic.w	r2, r2, #3
  403b22:	4293      	cmp	r3, r2
  403b24:	d273      	bcs.n	403c0e <_malloc_r+0x476>
  403b26:	6889      	ldr	r1, [r1, #8]
  403b28:	458c      	cmp	ip, r1
  403b2a:	d1f7      	bne.n	403b1c <_malloc_r+0x384>
  403b2c:	f8dc 200c 	ldr.w	r2, [ip, #12]
  403b30:	687b      	ldr	r3, [r7, #4]
  403b32:	60e2      	str	r2, [r4, #12]
  403b34:	f8c4 c008 	str.w	ip, [r4, #8]
  403b38:	6094      	str	r4, [r2, #8]
  403b3a:	f8cc 400c 	str.w	r4, [ip, #12]
  403b3e:	e68f      	b.n	403860 <_malloc_r+0xc8>
  403b40:	19a1      	adds	r1, r4, r6
  403b42:	f046 0c01 	orr.w	ip, r6, #1
  403b46:	f042 0601 	orr.w	r6, r2, #1
  403b4a:	f8c4 c004 	str.w	ip, [r4, #4]
  403b4e:	4628      	mov	r0, r5
  403b50:	6179      	str	r1, [r7, #20]
  403b52:	6139      	str	r1, [r7, #16]
  403b54:	f8c1 e00c 	str.w	lr, [r1, #12]
  403b58:	f8c1 e008 	str.w	lr, [r1, #8]
  403b5c:	604e      	str	r6, [r1, #4]
  403b5e:	50e2      	str	r2, [r4, r3]
  403b60:	f000 f99c 	bl	403e9c <__malloc_unlock>
  403b64:	3408      	adds	r4, #8
  403b66:	e6dd      	b.n	403924 <_malloc_r+0x18c>
  403b68:	687b      	ldr	r3, [r7, #4]
  403b6a:	e679      	b.n	403860 <_malloc_r+0xc8>
  403b6c:	f108 0801 	add.w	r8, r8, #1
  403b70:	f018 0f03 	tst.w	r8, #3
  403b74:	f10c 0c08 	add.w	ip, ip, #8
  403b78:	f47f ae85 	bne.w	403886 <_malloc_r+0xee>
  403b7c:	e02d      	b.n	403bda <_malloc_r+0x442>
  403b7e:	68dc      	ldr	r4, [r3, #12]
  403b80:	42a3      	cmp	r3, r4
  403b82:	bf08      	it	eq
  403b84:	3002      	addeq	r0, #2
  403b86:	f43f ae3e 	beq.w	403806 <_malloc_r+0x6e>
  403b8a:	e6bb      	b.n	403904 <_malloc_r+0x16c>
  403b8c:	4419      	add	r1, r3
  403b8e:	461c      	mov	r4, r3
  403b90:	684a      	ldr	r2, [r1, #4]
  403b92:	68db      	ldr	r3, [r3, #12]
  403b94:	f854 6f08 	ldr.w	r6, [r4, #8]!
  403b98:	f042 0201 	orr.w	r2, r2, #1
  403b9c:	604a      	str	r2, [r1, #4]
  403b9e:	4628      	mov	r0, r5
  403ba0:	60f3      	str	r3, [r6, #12]
  403ba2:	609e      	str	r6, [r3, #8]
  403ba4:	f000 f97a 	bl	403e9c <__malloc_unlock>
  403ba8:	e6bc      	b.n	403924 <_malloc_r+0x18c>
  403baa:	f103 005c 	add.w	r0, r3, #92	; 0x5c
  403bae:	f103 0e5b 	add.w	lr, r3, #91	; 0x5b
  403bb2:	00c3      	lsls	r3, r0, #3
  403bb4:	e612      	b.n	4037dc <_malloc_r+0x44>
  403bb6:	099a      	lsrs	r2, r3, #6
  403bb8:	f102 0139 	add.w	r1, r2, #57	; 0x39
  403bbc:	00c9      	lsls	r1, r1, #3
  403bbe:	3238      	adds	r2, #56	; 0x38
  403bc0:	e7a4      	b.n	403b0c <_malloc_r+0x374>
  403bc2:	42bc      	cmp	r4, r7
  403bc4:	d054      	beq.n	403c70 <_malloc_r+0x4d8>
  403bc6:	68bc      	ldr	r4, [r7, #8]
  403bc8:	6862      	ldr	r2, [r4, #4]
  403bca:	f022 0203 	bic.w	r2, r2, #3
  403bce:	e75d      	b.n	403a8c <_malloc_r+0x2f4>
  403bd0:	f859 3908 	ldr.w	r3, [r9], #-8
  403bd4:	4599      	cmp	r9, r3
  403bd6:	f040 8086 	bne.w	403ce6 <_malloc_r+0x54e>
  403bda:	f010 0f03 	tst.w	r0, #3
  403bde:	f100 30ff 	add.w	r0, r0, #4294967295
  403be2:	d1f5      	bne.n	403bd0 <_malloc_r+0x438>
  403be4:	687b      	ldr	r3, [r7, #4]
  403be6:	ea23 0304 	bic.w	r3, r3, r4
  403bea:	607b      	str	r3, [r7, #4]
  403bec:	0064      	lsls	r4, r4, #1
  403bee:	429c      	cmp	r4, r3
  403bf0:	f63f aec7 	bhi.w	403982 <_malloc_r+0x1ea>
  403bf4:	2c00      	cmp	r4, #0
  403bf6:	f43f aec4 	beq.w	403982 <_malloc_r+0x1ea>
  403bfa:	421c      	tst	r4, r3
  403bfc:	4640      	mov	r0, r8
  403bfe:	f47f ae3e 	bne.w	40387e <_malloc_r+0xe6>
  403c02:	0064      	lsls	r4, r4, #1
  403c04:	421c      	tst	r4, r3
  403c06:	f100 0004 	add.w	r0, r0, #4
  403c0a:	d0fa      	beq.n	403c02 <_malloc_r+0x46a>
  403c0c:	e637      	b.n	40387e <_malloc_r+0xe6>
  403c0e:	468c      	mov	ip, r1
  403c10:	e78c      	b.n	403b2c <_malloc_r+0x394>
  403c12:	f5b3 7faa 	cmp.w	r3, #340	; 0x154
  403c16:	d815      	bhi.n	403c44 <_malloc_r+0x4ac>
  403c18:	0bf3      	lsrs	r3, r6, #15
  403c1a:	f103 0078 	add.w	r0, r3, #120	; 0x78
  403c1e:	f103 0e77 	add.w	lr, r3, #119	; 0x77
  403c22:	00c3      	lsls	r3, r0, #3
  403c24:	e5da      	b.n	4037dc <_malloc_r+0x44>
  403c26:	f44f 5180 	mov.w	r1, #4096	; 0x1000
  403c2a:	e6ed      	b.n	403a08 <_malloc_r+0x270>
  403c2c:	687b      	ldr	r3, [r7, #4]
  403c2e:	1092      	asrs	r2, r2, #2
  403c30:	2101      	movs	r1, #1
  403c32:	fa01 f202 	lsl.w	r2, r1, r2
  403c36:	4313      	orrs	r3, r2
  403c38:	607b      	str	r3, [r7, #4]
  403c3a:	4662      	mov	r2, ip
  403c3c:	e779      	b.n	403b32 <_malloc_r+0x39a>
  403c3e:	2301      	movs	r3, #1
  403c40:	6053      	str	r3, [r2, #4]
  403c42:	e729      	b.n	403a98 <_malloc_r+0x300>
  403c44:	f240 5254 	movw	r2, #1364	; 0x554
  403c48:	4293      	cmp	r3, r2
  403c4a:	d822      	bhi.n	403c92 <_malloc_r+0x4fa>
  403c4c:	0cb3      	lsrs	r3, r6, #18
  403c4e:	f103 007d 	add.w	r0, r3, #125	; 0x7d
  403c52:	f103 0e7c 	add.w	lr, r3, #124	; 0x7c
  403c56:	00c3      	lsls	r3, r0, #3
  403c58:	e5c0      	b.n	4037dc <_malloc_r+0x44>
  403c5a:	f103 0b10 	add.w	fp, r3, #16
  403c5e:	e6ae      	b.n	4039be <_malloc_r+0x226>
  403c60:	2a54      	cmp	r2, #84	; 0x54
  403c62:	d829      	bhi.n	403cb8 <_malloc_r+0x520>
  403c64:	0b1a      	lsrs	r2, r3, #12
  403c66:	f102 016f 	add.w	r1, r2, #111	; 0x6f
  403c6a:	00c9      	lsls	r1, r1, #3
  403c6c:	326e      	adds	r2, #110	; 0x6e
  403c6e:	e74d      	b.n	403b0c <_malloc_r+0x374>
  403c70:	4b20      	ldr	r3, [pc, #128]	; (403cf4 <_malloc_r+0x55c>)
  403c72:	6819      	ldr	r1, [r3, #0]
  403c74:	4459      	add	r1, fp
  403c76:	6019      	str	r1, [r3, #0]
  403c78:	e6b2      	b.n	4039e0 <_malloc_r+0x248>
  403c7a:	f3ca 000b 	ubfx	r0, sl, #0, #12
  403c7e:	2800      	cmp	r0, #0
  403c80:	f47f aeae 	bne.w	4039e0 <_malloc_r+0x248>
  403c84:	eb08 030b 	add.w	r3, r8, fp
  403c88:	68ba      	ldr	r2, [r7, #8]
  403c8a:	f043 0301 	orr.w	r3, r3, #1
  403c8e:	6053      	str	r3, [r2, #4]
  403c90:	e6ee      	b.n	403a70 <_malloc_r+0x2d8>
  403c92:	207f      	movs	r0, #127	; 0x7f
  403c94:	f44f 737e 	mov.w	r3, #1016	; 0x3f8
  403c98:	f04f 0e7e 	mov.w	lr, #126	; 0x7e
  403c9c:	e59e      	b.n	4037dc <_malloc_r+0x44>
  403c9e:	f104 0108 	add.w	r1, r4, #8
  403ca2:	4628      	mov	r0, r5
  403ca4:	9300      	str	r3, [sp, #0]
  403ca6:	f7ff fa67 	bl	403178 <_free_r>
  403caa:	9b00      	ldr	r3, [sp, #0]
  403cac:	6819      	ldr	r1, [r3, #0]
  403cae:	e6df      	b.n	403a70 <_malloc_r+0x2d8>
  403cb0:	2001      	movs	r0, #1
  403cb2:	f04f 0900 	mov.w	r9, #0
  403cb6:	e6bc      	b.n	403a32 <_malloc_r+0x29a>
  403cb8:	f5b2 7faa 	cmp.w	r2, #340	; 0x154
  403cbc:	d805      	bhi.n	403cca <_malloc_r+0x532>
  403cbe:	0bda      	lsrs	r2, r3, #15
  403cc0:	f102 0178 	add.w	r1, r2, #120	; 0x78
  403cc4:	00c9      	lsls	r1, r1, #3
  403cc6:	3277      	adds	r2, #119	; 0x77
  403cc8:	e720      	b.n	403b0c <_malloc_r+0x374>
  403cca:	f240 5154 	movw	r1, #1364	; 0x554
  403cce:	428a      	cmp	r2, r1
  403cd0:	d805      	bhi.n	403cde <_malloc_r+0x546>
  403cd2:	0c9a      	lsrs	r2, r3, #18
  403cd4:	f102 017d 	add.w	r1, r2, #125	; 0x7d
  403cd8:	00c9      	lsls	r1, r1, #3
  403cda:	327c      	adds	r2, #124	; 0x7c
  403cdc:	e716      	b.n	403b0c <_malloc_r+0x374>
  403cde:	f44f 717e 	mov.w	r1, #1016	; 0x3f8
  403ce2:	227e      	movs	r2, #126	; 0x7e
  403ce4:	e712      	b.n	403b0c <_malloc_r+0x374>
  403ce6:	687b      	ldr	r3, [r7, #4]
  403ce8:	e780      	b.n	403bec <_malloc_r+0x454>
  403cea:	08f0      	lsrs	r0, r6, #3
  403cec:	f106 0308 	add.w	r3, r6, #8
  403cf0:	e600      	b.n	4038f4 <_malloc_r+0x15c>
  403cf2:	bf00      	nop
  403cf4:	20400e08 	.word	0x20400e08

00403cf8 <__ascii_mbtowc>:
  403cf8:	b082      	sub	sp, #8
  403cfa:	b149      	cbz	r1, 403d10 <__ascii_mbtowc+0x18>
  403cfc:	b15a      	cbz	r2, 403d16 <__ascii_mbtowc+0x1e>
  403cfe:	b16b      	cbz	r3, 403d1c <__ascii_mbtowc+0x24>
  403d00:	7813      	ldrb	r3, [r2, #0]
  403d02:	600b      	str	r3, [r1, #0]
  403d04:	7812      	ldrb	r2, [r2, #0]
  403d06:	1c10      	adds	r0, r2, #0
  403d08:	bf18      	it	ne
  403d0a:	2001      	movne	r0, #1
  403d0c:	b002      	add	sp, #8
  403d0e:	4770      	bx	lr
  403d10:	a901      	add	r1, sp, #4
  403d12:	2a00      	cmp	r2, #0
  403d14:	d1f3      	bne.n	403cfe <__ascii_mbtowc+0x6>
  403d16:	4610      	mov	r0, r2
  403d18:	b002      	add	sp, #8
  403d1a:	4770      	bx	lr
  403d1c:	f06f 0001 	mvn.w	r0, #1
  403d20:	e7f4      	b.n	403d0c <__ascii_mbtowc+0x14>
  403d22:	bf00      	nop
	...

00403d30 <memchr>:
  403d30:	f001 01ff 	and.w	r1, r1, #255	; 0xff
  403d34:	2a10      	cmp	r2, #16
  403d36:	db2b      	blt.n	403d90 <memchr+0x60>
  403d38:	f010 0f07 	tst.w	r0, #7
  403d3c:	d008      	beq.n	403d50 <memchr+0x20>
  403d3e:	f810 3b01 	ldrb.w	r3, [r0], #1
  403d42:	3a01      	subs	r2, #1
  403d44:	428b      	cmp	r3, r1
  403d46:	d02d      	beq.n	403da4 <memchr+0x74>
  403d48:	f010 0f07 	tst.w	r0, #7
  403d4c:	b342      	cbz	r2, 403da0 <memchr+0x70>
  403d4e:	d1f6      	bne.n	403d3e <memchr+0xe>
  403d50:	b4f0      	push	{r4, r5, r6, r7}
  403d52:	ea41 2101 	orr.w	r1, r1, r1, lsl #8
  403d56:	ea41 4101 	orr.w	r1, r1, r1, lsl #16
  403d5a:	f022 0407 	bic.w	r4, r2, #7
  403d5e:	f07f 0700 	mvns.w	r7, #0
  403d62:	2300      	movs	r3, #0
  403d64:	e8f0 5602 	ldrd	r5, r6, [r0], #8
  403d68:	3c08      	subs	r4, #8
  403d6a:	ea85 0501 	eor.w	r5, r5, r1
  403d6e:	ea86 0601 	eor.w	r6, r6, r1
  403d72:	fa85 f547 	uadd8	r5, r5, r7
  403d76:	faa3 f587 	sel	r5, r3, r7
  403d7a:	fa86 f647 	uadd8	r6, r6, r7
  403d7e:	faa5 f687 	sel	r6, r5, r7
  403d82:	b98e      	cbnz	r6, 403da8 <memchr+0x78>
  403d84:	d1ee      	bne.n	403d64 <memchr+0x34>
  403d86:	bcf0      	pop	{r4, r5, r6, r7}
  403d88:	f001 01ff 	and.w	r1, r1, #255	; 0xff
  403d8c:	f002 0207 	and.w	r2, r2, #7
  403d90:	b132      	cbz	r2, 403da0 <memchr+0x70>
  403d92:	f810 3b01 	ldrb.w	r3, [r0], #1
  403d96:	3a01      	subs	r2, #1
  403d98:	ea83 0301 	eor.w	r3, r3, r1
  403d9c:	b113      	cbz	r3, 403da4 <memchr+0x74>
  403d9e:	d1f8      	bne.n	403d92 <memchr+0x62>
  403da0:	2000      	movs	r0, #0
  403da2:	4770      	bx	lr
  403da4:	3801      	subs	r0, #1
  403da6:	4770      	bx	lr
  403da8:	2d00      	cmp	r5, #0
  403daa:	bf06      	itte	eq
  403dac:	4635      	moveq	r5, r6
  403dae:	3803      	subeq	r0, #3
  403db0:	3807      	subne	r0, #7
  403db2:	f015 0f01 	tst.w	r5, #1
  403db6:	d107      	bne.n	403dc8 <memchr+0x98>
  403db8:	3001      	adds	r0, #1
  403dba:	f415 7f80 	tst.w	r5, #256	; 0x100
  403dbe:	bf02      	ittt	eq
  403dc0:	3001      	addeq	r0, #1
  403dc2:	f415 3fc0 	tsteq.w	r5, #98304	; 0x18000
  403dc6:	3001      	addeq	r0, #1
  403dc8:	bcf0      	pop	{r4, r5, r6, r7}
  403dca:	3801      	subs	r0, #1
  403dcc:	4770      	bx	lr
  403dce:	bf00      	nop

00403dd0 <memmove>:
  403dd0:	4288      	cmp	r0, r1
  403dd2:	b5f0      	push	{r4, r5, r6, r7, lr}
  403dd4:	d90d      	bls.n	403df2 <memmove+0x22>
  403dd6:	188b      	adds	r3, r1, r2
  403dd8:	4298      	cmp	r0, r3
  403dda:	d20a      	bcs.n	403df2 <memmove+0x22>
  403ddc:	1884      	adds	r4, r0, r2
  403dde:	2a00      	cmp	r2, #0
  403de0:	d051      	beq.n	403e86 <memmove+0xb6>
  403de2:	4622      	mov	r2, r4
  403de4:	f813 4d01 	ldrb.w	r4, [r3, #-1]!
  403de8:	f802 4d01 	strb.w	r4, [r2, #-1]!
  403dec:	4299      	cmp	r1, r3
  403dee:	d1f9      	bne.n	403de4 <memmove+0x14>
  403df0:	bdf0      	pop	{r4, r5, r6, r7, pc}
  403df2:	2a0f      	cmp	r2, #15
  403df4:	d948      	bls.n	403e88 <memmove+0xb8>
  403df6:	ea41 0300 	orr.w	r3, r1, r0
  403dfa:	079b      	lsls	r3, r3, #30
  403dfc:	d146      	bne.n	403e8c <memmove+0xbc>
  403dfe:	f100 0410 	add.w	r4, r0, #16
  403e02:	f101 0310 	add.w	r3, r1, #16
  403e06:	4615      	mov	r5, r2
  403e08:	f853 6c10 	ldr.w	r6, [r3, #-16]
  403e0c:	f844 6c10 	str.w	r6, [r4, #-16]
  403e10:	f853 6c0c 	ldr.w	r6, [r3, #-12]
  403e14:	f844 6c0c 	str.w	r6, [r4, #-12]
  403e18:	f853 6c08 	ldr.w	r6, [r3, #-8]
  403e1c:	f844 6c08 	str.w	r6, [r4, #-8]
  403e20:	3d10      	subs	r5, #16
  403e22:	f853 6c04 	ldr.w	r6, [r3, #-4]
  403e26:	f844 6c04 	str.w	r6, [r4, #-4]
  403e2a:	2d0f      	cmp	r5, #15
  403e2c:	f103 0310 	add.w	r3, r3, #16
  403e30:	f104 0410 	add.w	r4, r4, #16
  403e34:	d8e8      	bhi.n	403e08 <memmove+0x38>
  403e36:	f1a2 0310 	sub.w	r3, r2, #16
  403e3a:	f023 030f 	bic.w	r3, r3, #15
  403e3e:	f002 0e0f 	and.w	lr, r2, #15
  403e42:	3310      	adds	r3, #16
  403e44:	f1be 0f03 	cmp.w	lr, #3
  403e48:	4419      	add	r1, r3
  403e4a:	4403      	add	r3, r0
  403e4c:	d921      	bls.n	403e92 <memmove+0xc2>
  403e4e:	1f1e      	subs	r6, r3, #4
  403e50:	460d      	mov	r5, r1
  403e52:	4674      	mov	r4, lr
  403e54:	3c04      	subs	r4, #4
  403e56:	f855 7b04 	ldr.w	r7, [r5], #4
  403e5a:	f846 7f04 	str.w	r7, [r6, #4]!
  403e5e:	2c03      	cmp	r4, #3
  403e60:	d8f8      	bhi.n	403e54 <memmove+0x84>
  403e62:	f1ae 0404 	sub.w	r4, lr, #4
  403e66:	f024 0403 	bic.w	r4, r4, #3
  403e6a:	3404      	adds	r4, #4
  403e6c:	4421      	add	r1, r4
  403e6e:	4423      	add	r3, r4
  403e70:	f002 0203 	and.w	r2, r2, #3
  403e74:	b162      	cbz	r2, 403e90 <memmove+0xc0>
  403e76:	3b01      	subs	r3, #1
  403e78:	440a      	add	r2, r1
  403e7a:	f811 4b01 	ldrb.w	r4, [r1], #1
  403e7e:	f803 4f01 	strb.w	r4, [r3, #1]!
  403e82:	428a      	cmp	r2, r1
  403e84:	d1f9      	bne.n	403e7a <memmove+0xaa>
  403e86:	bdf0      	pop	{r4, r5, r6, r7, pc}
  403e88:	4603      	mov	r3, r0
  403e8a:	e7f3      	b.n	403e74 <memmove+0xa4>
  403e8c:	4603      	mov	r3, r0
  403e8e:	e7f2      	b.n	403e76 <memmove+0xa6>
  403e90:	bdf0      	pop	{r4, r5, r6, r7, pc}
  403e92:	4672      	mov	r2, lr
  403e94:	e7ee      	b.n	403e74 <memmove+0xa4>
  403e96:	bf00      	nop

00403e98 <__malloc_lock>:
  403e98:	4770      	bx	lr
  403e9a:	bf00      	nop

00403e9c <__malloc_unlock>:
  403e9c:	4770      	bx	lr
  403e9e:	bf00      	nop

00403ea0 <_realloc_r>:
  403ea0:	2900      	cmp	r1, #0
  403ea2:	f000 8095 	beq.w	403fd0 <_realloc_r+0x130>
  403ea6:	e92d 4ff0 	stmdb	sp!, {r4, r5, r6, r7, r8, r9, sl, fp, lr}
  403eaa:	460d      	mov	r5, r1
  403eac:	4616      	mov	r6, r2
  403eae:	b083      	sub	sp, #12
  403eb0:	4680      	mov	r8, r0
  403eb2:	f106 070b 	add.w	r7, r6, #11
  403eb6:	f7ff ffef 	bl	403e98 <__malloc_lock>
  403eba:	f855 ec04 	ldr.w	lr, [r5, #-4]
  403ebe:	2f16      	cmp	r7, #22
  403ec0:	f02e 0403 	bic.w	r4, lr, #3
  403ec4:	f1a5 0908 	sub.w	r9, r5, #8
  403ec8:	d83c      	bhi.n	403f44 <_realloc_r+0xa4>
  403eca:	2210      	movs	r2, #16
  403ecc:	4617      	mov	r7, r2
  403ece:	42be      	cmp	r6, r7
  403ed0:	d83d      	bhi.n	403f4e <_realloc_r+0xae>
  403ed2:	4294      	cmp	r4, r2
  403ed4:	da43      	bge.n	403f5e <_realloc_r+0xbe>
  403ed6:	4bc4      	ldr	r3, [pc, #784]	; (4041e8 <_realloc_r+0x348>)
  403ed8:	6899      	ldr	r1, [r3, #8]
  403eda:	eb09 0004 	add.w	r0, r9, r4
  403ede:	4288      	cmp	r0, r1
  403ee0:	f000 80b4 	beq.w	40404c <_realloc_r+0x1ac>
  403ee4:	6843      	ldr	r3, [r0, #4]
  403ee6:	f023 0101 	bic.w	r1, r3, #1
  403eea:	4401      	add	r1, r0
  403eec:	6849      	ldr	r1, [r1, #4]
  403eee:	07c9      	lsls	r1, r1, #31
  403ef0:	d54c      	bpl.n	403f8c <_realloc_r+0xec>
  403ef2:	f01e 0f01 	tst.w	lr, #1
  403ef6:	f000 809b 	beq.w	404030 <_realloc_r+0x190>
  403efa:	4631      	mov	r1, r6
  403efc:	4640      	mov	r0, r8
  403efe:	f7ff fc4b 	bl	403798 <_malloc_r>
  403f02:	4606      	mov	r6, r0
  403f04:	2800      	cmp	r0, #0
  403f06:	d03a      	beq.n	403f7e <_realloc_r+0xde>
  403f08:	f855 3c04 	ldr.w	r3, [r5, #-4]
  403f0c:	f023 0301 	bic.w	r3, r3, #1
  403f10:	444b      	add	r3, r9
  403f12:	f1a0 0208 	sub.w	r2, r0, #8
  403f16:	429a      	cmp	r2, r3
  403f18:	f000 8121 	beq.w	40415e <_realloc_r+0x2be>
  403f1c:	1f22      	subs	r2, r4, #4
  403f1e:	2a24      	cmp	r2, #36	; 0x24
  403f20:	f200 8107 	bhi.w	404132 <_realloc_r+0x292>
  403f24:	2a13      	cmp	r2, #19
  403f26:	f200 80db 	bhi.w	4040e0 <_realloc_r+0x240>
  403f2a:	4603      	mov	r3, r0
  403f2c:	462a      	mov	r2, r5
  403f2e:	6811      	ldr	r1, [r2, #0]
  403f30:	6019      	str	r1, [r3, #0]
  403f32:	6851      	ldr	r1, [r2, #4]
  403f34:	6059      	str	r1, [r3, #4]
  403f36:	6892      	ldr	r2, [r2, #8]
  403f38:	609a      	str	r2, [r3, #8]
  403f3a:	4629      	mov	r1, r5
  403f3c:	4640      	mov	r0, r8
  403f3e:	f7ff f91b 	bl	403178 <_free_r>
  403f42:	e01c      	b.n	403f7e <_realloc_r+0xde>
  403f44:	f027 0707 	bic.w	r7, r7, #7
  403f48:	2f00      	cmp	r7, #0
  403f4a:	463a      	mov	r2, r7
  403f4c:	dabf      	bge.n	403ece <_realloc_r+0x2e>
  403f4e:	2600      	movs	r6, #0
  403f50:	230c      	movs	r3, #12
  403f52:	4630      	mov	r0, r6
  403f54:	f8c8 3000 	str.w	r3, [r8]
  403f58:	b003      	add	sp, #12
  403f5a:	e8bd 8ff0 	ldmia.w	sp!, {r4, r5, r6, r7, r8, r9, sl, fp, pc}
  403f5e:	462e      	mov	r6, r5
  403f60:	1be3      	subs	r3, r4, r7
  403f62:	2b0f      	cmp	r3, #15
  403f64:	d81e      	bhi.n	403fa4 <_realloc_r+0x104>
  403f66:	f8d9 3004 	ldr.w	r3, [r9, #4]
  403f6a:	f003 0301 	and.w	r3, r3, #1
  403f6e:	4323      	orrs	r3, r4
  403f70:	444c      	add	r4, r9
  403f72:	f8c9 3004 	str.w	r3, [r9, #4]
  403f76:	6863      	ldr	r3, [r4, #4]
  403f78:	f043 0301 	orr.w	r3, r3, #1
  403f7c:	6063      	str	r3, [r4, #4]
  403f7e:	4640      	mov	r0, r8
  403f80:	f7ff ff8c 	bl	403e9c <__malloc_unlock>
  403f84:	4630      	mov	r0, r6
  403f86:	b003      	add	sp, #12
  403f88:	e8bd 8ff0 	ldmia.w	sp!, {r4, r5, r6, r7, r8, r9, sl, fp, pc}
  403f8c:	f023 0303 	bic.w	r3, r3, #3
  403f90:	18e1      	adds	r1, r4, r3
  403f92:	4291      	cmp	r1, r2
  403f94:	db1f      	blt.n	403fd6 <_realloc_r+0x136>
  403f96:	68c3      	ldr	r3, [r0, #12]
  403f98:	6882      	ldr	r2, [r0, #8]
  403f9a:	462e      	mov	r6, r5
  403f9c:	60d3      	str	r3, [r2, #12]
  403f9e:	460c      	mov	r4, r1
  403fa0:	609a      	str	r2, [r3, #8]
  403fa2:	e7dd      	b.n	403f60 <_realloc_r+0xc0>
  403fa4:	f8d9 2004 	ldr.w	r2, [r9, #4]
  403fa8:	eb09 0107 	add.w	r1, r9, r7
  403fac:	f002 0201 	and.w	r2, r2, #1
  403fb0:	444c      	add	r4, r9
  403fb2:	f043 0301 	orr.w	r3, r3, #1
  403fb6:	4317      	orrs	r7, r2
  403fb8:	f8c9 7004 	str.w	r7, [r9, #4]
  403fbc:	604b      	str	r3, [r1, #4]
  403fbe:	6863      	ldr	r3, [r4, #4]
  403fc0:	f043 0301 	orr.w	r3, r3, #1
  403fc4:	3108      	adds	r1, #8
  403fc6:	6063      	str	r3, [r4, #4]
  403fc8:	4640      	mov	r0, r8
  403fca:	f7ff f8d5 	bl	403178 <_free_r>
  403fce:	e7d6      	b.n	403f7e <_realloc_r+0xde>
  403fd0:	4611      	mov	r1, r2
  403fd2:	f7ff bbe1 	b.w	403798 <_malloc_r>
  403fd6:	f01e 0f01 	tst.w	lr, #1
  403fda:	d18e      	bne.n	403efa <_realloc_r+0x5a>
  403fdc:	f855 1c08 	ldr.w	r1, [r5, #-8]
  403fe0:	eba9 0a01 	sub.w	sl, r9, r1
  403fe4:	f8da 1004 	ldr.w	r1, [sl, #4]
  403fe8:	f021 0103 	bic.w	r1, r1, #3
  403fec:	440b      	add	r3, r1
  403fee:	4423      	add	r3, r4
  403ff0:	4293      	cmp	r3, r2
  403ff2:	db25      	blt.n	404040 <_realloc_r+0x1a0>
  403ff4:	68c2      	ldr	r2, [r0, #12]
  403ff6:	6881      	ldr	r1, [r0, #8]
  403ff8:	4656      	mov	r6, sl
  403ffa:	60ca      	str	r2, [r1, #12]
  403ffc:	6091      	str	r1, [r2, #8]
  403ffe:	f8da 100c 	ldr.w	r1, [sl, #12]
  404002:	f856 0f08 	ldr.w	r0, [r6, #8]!
  404006:	1f22      	subs	r2, r4, #4
  404008:	2a24      	cmp	r2, #36	; 0x24
  40400a:	60c1      	str	r1, [r0, #12]
  40400c:	6088      	str	r0, [r1, #8]
  40400e:	f200 8094 	bhi.w	40413a <_realloc_r+0x29a>
  404012:	2a13      	cmp	r2, #19
  404014:	d96f      	bls.n	4040f6 <_realloc_r+0x256>
  404016:	6829      	ldr	r1, [r5, #0]
  404018:	f8ca 1008 	str.w	r1, [sl, #8]
  40401c:	6869      	ldr	r1, [r5, #4]
  40401e:	f8ca 100c 	str.w	r1, [sl, #12]
  404022:	2a1b      	cmp	r2, #27
  404024:	f200 80a2 	bhi.w	40416c <_realloc_r+0x2cc>
  404028:	3508      	adds	r5, #8
  40402a:	f10a 0210 	add.w	r2, sl, #16
  40402e:	e063      	b.n	4040f8 <_realloc_r+0x258>
  404030:	f855 3c08 	ldr.w	r3, [r5, #-8]
  404034:	eba9 0a03 	sub.w	sl, r9, r3
  404038:	f8da 1004 	ldr.w	r1, [sl, #4]
  40403c:	f021 0103 	bic.w	r1, r1, #3
  404040:	1863      	adds	r3, r4, r1
  404042:	4293      	cmp	r3, r2
  404044:	f6ff af59 	blt.w	403efa <_realloc_r+0x5a>
  404048:	4656      	mov	r6, sl
  40404a:	e7d8      	b.n	403ffe <_realloc_r+0x15e>
  40404c:	6841      	ldr	r1, [r0, #4]
  40404e:	f021 0b03 	bic.w	fp, r1, #3
  404052:	44a3      	add	fp, r4
  404054:	f107 0010 	add.w	r0, r7, #16
  404058:	4583      	cmp	fp, r0
  40405a:	da56      	bge.n	40410a <_realloc_r+0x26a>
  40405c:	f01e 0f01 	tst.w	lr, #1
  404060:	f47f af4b 	bne.w	403efa <_realloc_r+0x5a>
  404064:	f855 1c08 	ldr.w	r1, [r5, #-8]
  404068:	eba9 0a01 	sub.w	sl, r9, r1
  40406c:	f8da 1004 	ldr.w	r1, [sl, #4]
  404070:	f021 0103 	bic.w	r1, r1, #3
  404074:	448b      	add	fp, r1
  404076:	4558      	cmp	r0, fp
  404078:	dce2      	bgt.n	404040 <_realloc_r+0x1a0>
  40407a:	4656      	mov	r6, sl
  40407c:	f8da 100c 	ldr.w	r1, [sl, #12]
  404080:	f856 0f08 	ldr.w	r0, [r6, #8]!
  404084:	1f22      	subs	r2, r4, #4
  404086:	2a24      	cmp	r2, #36	; 0x24
  404088:	60c1      	str	r1, [r0, #12]
  40408a:	6088      	str	r0, [r1, #8]
  40408c:	f200 808f 	bhi.w	4041ae <_realloc_r+0x30e>
  404090:	2a13      	cmp	r2, #19
  404092:	f240 808a 	bls.w	4041aa <_realloc_r+0x30a>
  404096:	6829      	ldr	r1, [r5, #0]
  404098:	f8ca 1008 	str.w	r1, [sl, #8]
  40409c:	6869      	ldr	r1, [r5, #4]
  40409e:	f8ca 100c 	str.w	r1, [sl, #12]
  4040a2:	2a1b      	cmp	r2, #27
  4040a4:	f200 808a 	bhi.w	4041bc <_realloc_r+0x31c>
  4040a8:	3508      	adds	r5, #8
  4040aa:	f10a 0210 	add.w	r2, sl, #16
  4040ae:	6829      	ldr	r1, [r5, #0]
  4040b0:	6011      	str	r1, [r2, #0]
  4040b2:	6869      	ldr	r1, [r5, #4]
  4040b4:	6051      	str	r1, [r2, #4]
  4040b6:	68a9      	ldr	r1, [r5, #8]
  4040b8:	6091      	str	r1, [r2, #8]
  4040ba:	eb0a 0107 	add.w	r1, sl, r7
  4040be:	ebab 0207 	sub.w	r2, fp, r7
  4040c2:	f042 0201 	orr.w	r2, r2, #1
  4040c6:	6099      	str	r1, [r3, #8]
  4040c8:	604a      	str	r2, [r1, #4]
  4040ca:	f8da 3004 	ldr.w	r3, [sl, #4]
  4040ce:	f003 0301 	and.w	r3, r3, #1
  4040d2:	431f      	orrs	r7, r3
  4040d4:	4640      	mov	r0, r8
  4040d6:	f8ca 7004 	str.w	r7, [sl, #4]
  4040da:	f7ff fedf 	bl	403e9c <__malloc_unlock>
  4040de:	e751      	b.n	403f84 <_realloc_r+0xe4>
  4040e0:	682b      	ldr	r3, [r5, #0]
  4040e2:	6003      	str	r3, [r0, #0]
  4040e4:	686b      	ldr	r3, [r5, #4]
  4040e6:	6043      	str	r3, [r0, #4]
  4040e8:	2a1b      	cmp	r2, #27
  4040ea:	d82d      	bhi.n	404148 <_realloc_r+0x2a8>
  4040ec:	f100 0308 	add.w	r3, r0, #8
  4040f0:	f105 0208 	add.w	r2, r5, #8
  4040f4:	e71b      	b.n	403f2e <_realloc_r+0x8e>
  4040f6:	4632      	mov	r2, r6
  4040f8:	6829      	ldr	r1, [r5, #0]
  4040fa:	6011      	str	r1, [r2, #0]
  4040fc:	6869      	ldr	r1, [r5, #4]
  4040fe:	6051      	str	r1, [r2, #4]
  404100:	68a9      	ldr	r1, [r5, #8]
  404102:	6091      	str	r1, [r2, #8]
  404104:	461c      	mov	r4, r3
  404106:	46d1      	mov	r9, sl
  404108:	e72a      	b.n	403f60 <_realloc_r+0xc0>
  40410a:	eb09 0107 	add.w	r1, r9, r7
  40410e:	ebab 0b07 	sub.w	fp, fp, r7
  404112:	f04b 0201 	orr.w	r2, fp, #1
  404116:	6099      	str	r1, [r3, #8]
  404118:	604a      	str	r2, [r1, #4]
  40411a:	f855 3c04 	ldr.w	r3, [r5, #-4]
  40411e:	f003 0301 	and.w	r3, r3, #1
  404122:	431f      	orrs	r7, r3
  404124:	4640      	mov	r0, r8
  404126:	f845 7c04 	str.w	r7, [r5, #-4]
  40412a:	f7ff feb7 	bl	403e9c <__malloc_unlock>
  40412e:	462e      	mov	r6, r5
  404130:	e728      	b.n	403f84 <_realloc_r+0xe4>
  404132:	4629      	mov	r1, r5
  404134:	f7ff fe4c 	bl	403dd0 <memmove>
  404138:	e6ff      	b.n	403f3a <_realloc_r+0x9a>
  40413a:	4629      	mov	r1, r5
  40413c:	4630      	mov	r0, r6
  40413e:	461c      	mov	r4, r3
  404140:	46d1      	mov	r9, sl
  404142:	f7ff fe45 	bl	403dd0 <memmove>
  404146:	e70b      	b.n	403f60 <_realloc_r+0xc0>
  404148:	68ab      	ldr	r3, [r5, #8]
  40414a:	6083      	str	r3, [r0, #8]
  40414c:	68eb      	ldr	r3, [r5, #12]
  40414e:	60c3      	str	r3, [r0, #12]
  404150:	2a24      	cmp	r2, #36	; 0x24
  404152:	d017      	beq.n	404184 <_realloc_r+0x2e4>
  404154:	f100 0310 	add.w	r3, r0, #16
  404158:	f105 0210 	add.w	r2, r5, #16
  40415c:	e6e7      	b.n	403f2e <_realloc_r+0x8e>
  40415e:	f850 3c04 	ldr.w	r3, [r0, #-4]
  404162:	f023 0303 	bic.w	r3, r3, #3
  404166:	441c      	add	r4, r3
  404168:	462e      	mov	r6, r5
  40416a:	e6f9      	b.n	403f60 <_realloc_r+0xc0>
  40416c:	68a9      	ldr	r1, [r5, #8]
  40416e:	f8ca 1010 	str.w	r1, [sl, #16]
  404172:	68e9      	ldr	r1, [r5, #12]
  404174:	f8ca 1014 	str.w	r1, [sl, #20]
  404178:	2a24      	cmp	r2, #36	; 0x24
  40417a:	d00c      	beq.n	404196 <_realloc_r+0x2f6>
  40417c:	3510      	adds	r5, #16
  40417e:	f10a 0218 	add.w	r2, sl, #24
  404182:	e7b9      	b.n	4040f8 <_realloc_r+0x258>
  404184:	692b      	ldr	r3, [r5, #16]
  404186:	6103      	str	r3, [r0, #16]
  404188:	696b      	ldr	r3, [r5, #20]
  40418a:	6143      	str	r3, [r0, #20]
  40418c:	f105 0218 	add.w	r2, r5, #24
  404190:	f100 0318 	add.w	r3, r0, #24
  404194:	e6cb      	b.n	403f2e <_realloc_r+0x8e>
  404196:	692a      	ldr	r2, [r5, #16]
  404198:	f8ca 2018 	str.w	r2, [sl, #24]
  40419c:	696a      	ldr	r2, [r5, #20]
  40419e:	f8ca 201c 	str.w	r2, [sl, #28]
  4041a2:	3518      	adds	r5, #24
  4041a4:	f10a 0220 	add.w	r2, sl, #32
  4041a8:	e7a6      	b.n	4040f8 <_realloc_r+0x258>
  4041aa:	4632      	mov	r2, r6
  4041ac:	e77f      	b.n	4040ae <_realloc_r+0x20e>
  4041ae:	4629      	mov	r1, r5
  4041b0:	4630      	mov	r0, r6
  4041b2:	9301      	str	r3, [sp, #4]
  4041b4:	f7ff fe0c 	bl	403dd0 <memmove>
  4041b8:	9b01      	ldr	r3, [sp, #4]
  4041ba:	e77e      	b.n	4040ba <_realloc_r+0x21a>
  4041bc:	68a9      	ldr	r1, [r5, #8]
  4041be:	f8ca 1010 	str.w	r1, [sl, #16]
  4041c2:	68e9      	ldr	r1, [r5, #12]
  4041c4:	f8ca 1014 	str.w	r1, [sl, #20]
  4041c8:	2a24      	cmp	r2, #36	; 0x24
  4041ca:	d003      	beq.n	4041d4 <_realloc_r+0x334>
  4041cc:	3510      	adds	r5, #16
  4041ce:	f10a 0218 	add.w	r2, sl, #24
  4041d2:	e76c      	b.n	4040ae <_realloc_r+0x20e>
  4041d4:	692a      	ldr	r2, [r5, #16]
  4041d6:	f8ca 2018 	str.w	r2, [sl, #24]
  4041da:	696a      	ldr	r2, [r5, #20]
  4041dc:	f8ca 201c 	str.w	r2, [sl, #28]
  4041e0:	3518      	adds	r5, #24
  4041e2:	f10a 0220 	add.w	r2, sl, #32
  4041e6:	e762      	b.n	4040ae <_realloc_r+0x20e>
  4041e8:	204005a4 	.word	0x204005a4

004041ec <_sbrk_r>:
  4041ec:	b538      	push	{r3, r4, r5, lr}
  4041ee:	4c07      	ldr	r4, [pc, #28]	; (40420c <_sbrk_r+0x20>)
  4041f0:	2300      	movs	r3, #0
  4041f2:	4605      	mov	r5, r0
  4041f4:	4608      	mov	r0, r1
  4041f6:	6023      	str	r3, [r4, #0]
  4041f8:	f7fd fb2a 	bl	401850 <_sbrk>
  4041fc:	1c43      	adds	r3, r0, #1
  4041fe:	d000      	beq.n	404202 <_sbrk_r+0x16>
  404200:	bd38      	pop	{r3, r4, r5, pc}
  404202:	6823      	ldr	r3, [r4, #0]
  404204:	2b00      	cmp	r3, #0
  404206:	d0fb      	beq.n	404200 <_sbrk_r+0x14>
  404208:	602b      	str	r3, [r5, #0]
  40420a:	bd38      	pop	{r3, r4, r5, pc}
  40420c:	20400ed8 	.word	0x20400ed8

00404210 <__sread>:
  404210:	b510      	push	{r4, lr}
  404212:	460c      	mov	r4, r1
  404214:	f9b1 100e 	ldrsh.w	r1, [r1, #14]
  404218:	f000 fa46 	bl	4046a8 <_read_r>
  40421c:	2800      	cmp	r0, #0
  40421e:	db03      	blt.n	404228 <__sread+0x18>
  404220:	6d23      	ldr	r3, [r4, #80]	; 0x50
  404222:	4403      	add	r3, r0
  404224:	6523      	str	r3, [r4, #80]	; 0x50
  404226:	bd10      	pop	{r4, pc}
  404228:	89a3      	ldrh	r3, [r4, #12]
  40422a:	f423 5380 	bic.w	r3, r3, #4096	; 0x1000
  40422e:	81a3      	strh	r3, [r4, #12]
  404230:	bd10      	pop	{r4, pc}
  404232:	bf00      	nop

00404234 <__swrite>:
  404234:	e92d 41f0 	stmdb	sp!, {r4, r5, r6, r7, r8, lr}
  404238:	4616      	mov	r6, r2
  40423a:	f9b1 200c 	ldrsh.w	r2, [r1, #12]
  40423e:	461f      	mov	r7, r3
  404240:	05d3      	lsls	r3, r2, #23
  404242:	460c      	mov	r4, r1
  404244:	4605      	mov	r5, r0
  404246:	d507      	bpl.n	404258 <__swrite+0x24>
  404248:	2200      	movs	r2, #0
  40424a:	2302      	movs	r3, #2
  40424c:	f9b1 100e 	ldrsh.w	r1, [r1, #14]
  404250:	f000 fa14 	bl	40467c <_lseek_r>
  404254:	f9b4 200c 	ldrsh.w	r2, [r4, #12]
  404258:	f9b4 100e 	ldrsh.w	r1, [r4, #14]
  40425c:	f422 5280 	bic.w	r2, r2, #4096	; 0x1000
  404260:	81a2      	strh	r2, [r4, #12]
  404262:	463b      	mov	r3, r7
  404264:	4632      	mov	r2, r6
  404266:	4628      	mov	r0, r5
  404268:	e8bd 41f0 	ldmia.w	sp!, {r4, r5, r6, r7, r8, lr}
  40426c:	f000 b926 	b.w	4044bc <_write_r>

00404270 <__sseek>:
  404270:	b510      	push	{r4, lr}
  404272:	460c      	mov	r4, r1
  404274:	f9b1 100e 	ldrsh.w	r1, [r1, #14]
  404278:	f000 fa00 	bl	40467c <_lseek_r>
  40427c:	89a3      	ldrh	r3, [r4, #12]
  40427e:	1c42      	adds	r2, r0, #1
  404280:	bf0e      	itee	eq
  404282:	f423 5380 	biceq.w	r3, r3, #4096	; 0x1000
  404286:	f443 5380 	orrne.w	r3, r3, #4096	; 0x1000
  40428a:	6520      	strne	r0, [r4, #80]	; 0x50
  40428c:	81a3      	strh	r3, [r4, #12]
  40428e:	bd10      	pop	{r4, pc}

00404290 <__sclose>:
  404290:	f9b1 100e 	ldrsh.w	r1, [r1, #14]
  404294:	f000 b97a 	b.w	40458c <_close_r>
	...

004042c0 <strlen>:
  4042c0:	f890 f000 	pld	[r0]
  4042c4:	e96d 4502 	strd	r4, r5, [sp, #-8]!
  4042c8:	f020 0107 	bic.w	r1, r0, #7
  4042cc:	f06f 0c00 	mvn.w	ip, #0
  4042d0:	f010 0407 	ands.w	r4, r0, #7
  4042d4:	f891 f020 	pld	[r1, #32]
  4042d8:	f040 8049 	bne.w	40436e <strlen+0xae>
  4042dc:	f04f 0400 	mov.w	r4, #0
  4042e0:	f06f 0007 	mvn.w	r0, #7
  4042e4:	e9d1 2300 	ldrd	r2, r3, [r1]
  4042e8:	f891 f040 	pld	[r1, #64]	; 0x40
  4042ec:	f100 0008 	add.w	r0, r0, #8
  4042f0:	fa82 f24c 	uadd8	r2, r2, ip
  4042f4:	faa4 f28c 	sel	r2, r4, ip
  4042f8:	fa83 f34c 	uadd8	r3, r3, ip
  4042fc:	faa2 f38c 	sel	r3, r2, ip
  404300:	bb4b      	cbnz	r3, 404356 <strlen+0x96>
  404302:	e9d1 2302 	ldrd	r2, r3, [r1, #8]
  404306:	fa82 f24c 	uadd8	r2, r2, ip
  40430a:	f100 0008 	add.w	r0, r0, #8
  40430e:	faa4 f28c 	sel	r2, r4, ip
  404312:	fa83 f34c 	uadd8	r3, r3, ip
  404316:	faa2 f38c 	sel	r3, r2, ip
  40431a:	b9e3      	cbnz	r3, 404356 <strlen+0x96>
  40431c:	e9d1 2304 	ldrd	r2, r3, [r1, #16]
  404320:	fa82 f24c 	uadd8	r2, r2, ip
  404324:	f100 0008 	add.w	r0, r0, #8
  404328:	faa4 f28c 	sel	r2, r4, ip
  40432c:	fa83 f34c 	uadd8	r3, r3, ip
  404330:	faa2 f38c 	sel	r3, r2, ip
  404334:	b97b      	cbnz	r3, 404356 <strlen+0x96>
  404336:	e9d1 2306 	ldrd	r2, r3, [r1, #24]
  40433a:	f101 0120 	add.w	r1, r1, #32
  40433e:	fa82 f24c 	uadd8	r2, r2, ip
  404342:	f100 0008 	add.w	r0, r0, #8
  404346:	faa4 f28c 	sel	r2, r4, ip
  40434a:	fa83 f34c 	uadd8	r3, r3, ip
  40434e:	faa2 f38c 	sel	r3, r2, ip
  404352:	2b00      	cmp	r3, #0
  404354:	d0c6      	beq.n	4042e4 <strlen+0x24>
  404356:	2a00      	cmp	r2, #0
  404358:	bf04      	itt	eq
  40435a:	3004      	addeq	r0, #4
  40435c:	461a      	moveq	r2, r3
  40435e:	ba12      	rev	r2, r2
  404360:	fab2 f282 	clz	r2, r2
  404364:	e8fd 4502 	ldrd	r4, r5, [sp], #8
  404368:	eb00 00d2 	add.w	r0, r0, r2, lsr #3
  40436c:	4770      	bx	lr
  40436e:	e9d1 2300 	ldrd	r2, r3, [r1]
  404372:	f004 0503 	and.w	r5, r4, #3
  404376:	f1c4 0000 	rsb	r0, r4, #0
  40437a:	ea4f 05c5 	mov.w	r5, r5, lsl #3
  40437e:	f014 0f04 	tst.w	r4, #4
  404382:	f891 f040 	pld	[r1, #64]	; 0x40
  404386:	fa0c f505 	lsl.w	r5, ip, r5
  40438a:	ea62 0205 	orn	r2, r2, r5
  40438e:	bf1c      	itt	ne
  404390:	ea63 0305 	ornne	r3, r3, r5
  404394:	4662      	movne	r2, ip
  404396:	f04f 0400 	mov.w	r4, #0
  40439a:	e7a9      	b.n	4042f0 <strlen+0x30>

0040439c <__swbuf_r>:
  40439c:	b5f8      	push	{r3, r4, r5, r6, r7, lr}
  40439e:	460d      	mov	r5, r1
  4043a0:	4614      	mov	r4, r2
  4043a2:	4606      	mov	r6, r0
  4043a4:	b110      	cbz	r0, 4043ac <__swbuf_r+0x10>
  4043a6:	6b83      	ldr	r3, [r0, #56]	; 0x38
  4043a8:	2b00      	cmp	r3, #0
  4043aa:	d04b      	beq.n	404444 <__swbuf_r+0xa8>
  4043ac:	f9b4 200c 	ldrsh.w	r2, [r4, #12]
  4043b0:	69a3      	ldr	r3, [r4, #24]
  4043b2:	60a3      	str	r3, [r4, #8]
  4043b4:	b291      	uxth	r1, r2
  4043b6:	0708      	lsls	r0, r1, #28
  4043b8:	d539      	bpl.n	40442e <__swbuf_r+0x92>
  4043ba:	6923      	ldr	r3, [r4, #16]
  4043bc:	2b00      	cmp	r3, #0
  4043be:	d036      	beq.n	40442e <__swbuf_r+0x92>
  4043c0:	b2ed      	uxtb	r5, r5
  4043c2:	0489      	lsls	r1, r1, #18
  4043c4:	462f      	mov	r7, r5
  4043c6:	d515      	bpl.n	4043f4 <__swbuf_r+0x58>
  4043c8:	6822      	ldr	r2, [r4, #0]
  4043ca:	6961      	ldr	r1, [r4, #20]
  4043cc:	1ad3      	subs	r3, r2, r3
  4043ce:	428b      	cmp	r3, r1
  4043d0:	da1c      	bge.n	40440c <__swbuf_r+0x70>
  4043d2:	3301      	adds	r3, #1
  4043d4:	68a1      	ldr	r1, [r4, #8]
  4043d6:	1c50      	adds	r0, r2, #1
  4043d8:	3901      	subs	r1, #1
  4043da:	60a1      	str	r1, [r4, #8]
  4043dc:	6020      	str	r0, [r4, #0]
  4043de:	7015      	strb	r5, [r2, #0]
  4043e0:	6962      	ldr	r2, [r4, #20]
  4043e2:	429a      	cmp	r2, r3
  4043e4:	d01a      	beq.n	40441c <__swbuf_r+0x80>
  4043e6:	89a3      	ldrh	r3, [r4, #12]
  4043e8:	07db      	lsls	r3, r3, #31
  4043ea:	d501      	bpl.n	4043f0 <__swbuf_r+0x54>
  4043ec:	2d0a      	cmp	r5, #10
  4043ee:	d015      	beq.n	40441c <__swbuf_r+0x80>
  4043f0:	4638      	mov	r0, r7
  4043f2:	bdf8      	pop	{r3, r4, r5, r6, r7, pc}
  4043f4:	6e61      	ldr	r1, [r4, #100]	; 0x64
  4043f6:	f442 5200 	orr.w	r2, r2, #8192	; 0x2000
  4043fa:	f421 5100 	bic.w	r1, r1, #8192	; 0x2000
  4043fe:	81a2      	strh	r2, [r4, #12]
  404400:	6822      	ldr	r2, [r4, #0]
  404402:	6661      	str	r1, [r4, #100]	; 0x64
  404404:	6961      	ldr	r1, [r4, #20]
  404406:	1ad3      	subs	r3, r2, r3
  404408:	428b      	cmp	r3, r1
  40440a:	dbe2      	blt.n	4043d2 <__swbuf_r+0x36>
  40440c:	4621      	mov	r1, r4
  40440e:	4630      	mov	r0, r6
  404410:	f7fe fd48 	bl	402ea4 <_fflush_r>
  404414:	b940      	cbnz	r0, 404428 <__swbuf_r+0x8c>
  404416:	6822      	ldr	r2, [r4, #0]
  404418:	2301      	movs	r3, #1
  40441a:	e7db      	b.n	4043d4 <__swbuf_r+0x38>
  40441c:	4621      	mov	r1, r4
  40441e:	4630      	mov	r0, r6
  404420:	f7fe fd40 	bl	402ea4 <_fflush_r>
  404424:	2800      	cmp	r0, #0
  404426:	d0e3      	beq.n	4043f0 <__swbuf_r+0x54>
  404428:	f04f 37ff 	mov.w	r7, #4294967295
  40442c:	e7e0      	b.n	4043f0 <__swbuf_r+0x54>
  40442e:	4621      	mov	r1, r4
  404430:	4630      	mov	r0, r6
  404432:	f7fe fc23 	bl	402c7c <__swsetup_r>
  404436:	2800      	cmp	r0, #0
  404438:	d1f6      	bne.n	404428 <__swbuf_r+0x8c>
  40443a:	f9b4 200c 	ldrsh.w	r2, [r4, #12]
  40443e:	6923      	ldr	r3, [r4, #16]
  404440:	b291      	uxth	r1, r2
  404442:	e7bd      	b.n	4043c0 <__swbuf_r+0x24>
  404444:	f7fe fdc2 	bl	402fcc <__sinit>
  404448:	e7b0      	b.n	4043ac <__swbuf_r+0x10>
  40444a:	bf00      	nop

0040444c <_wcrtomb_r>:
  40444c:	b5f0      	push	{r4, r5, r6, r7, lr}
  40444e:	4606      	mov	r6, r0
  404450:	b085      	sub	sp, #20
  404452:	461f      	mov	r7, r3
  404454:	b189      	cbz	r1, 40447a <_wcrtomb_r+0x2e>
  404456:	4c10      	ldr	r4, [pc, #64]	; (404498 <_wcrtomb_r+0x4c>)
  404458:	4d10      	ldr	r5, [pc, #64]	; (40449c <_wcrtomb_r+0x50>)
  40445a:	6824      	ldr	r4, [r4, #0]
  40445c:	6b64      	ldr	r4, [r4, #52]	; 0x34
  40445e:	2c00      	cmp	r4, #0
  404460:	bf08      	it	eq
  404462:	462c      	moveq	r4, r5
  404464:	f8d4 40e0 	ldr.w	r4, [r4, #224]	; 0xe0
  404468:	47a0      	blx	r4
  40446a:	1c43      	adds	r3, r0, #1
  40446c:	d103      	bne.n	404476 <_wcrtomb_r+0x2a>
  40446e:	2200      	movs	r2, #0
  404470:	238a      	movs	r3, #138	; 0x8a
  404472:	603a      	str	r2, [r7, #0]
  404474:	6033      	str	r3, [r6, #0]
  404476:	b005      	add	sp, #20
  404478:	bdf0      	pop	{r4, r5, r6, r7, pc}
  40447a:	460c      	mov	r4, r1
  40447c:	4906      	ldr	r1, [pc, #24]	; (404498 <_wcrtomb_r+0x4c>)
  40447e:	4a07      	ldr	r2, [pc, #28]	; (40449c <_wcrtomb_r+0x50>)
  404480:	6809      	ldr	r1, [r1, #0]
  404482:	6b49      	ldr	r1, [r1, #52]	; 0x34
  404484:	2900      	cmp	r1, #0
  404486:	bf08      	it	eq
  404488:	4611      	moveq	r1, r2
  40448a:	4622      	mov	r2, r4
  40448c:	f8d1 40e0 	ldr.w	r4, [r1, #224]	; 0xe0
  404490:	a901      	add	r1, sp, #4
  404492:	47a0      	blx	r4
  404494:	e7e9      	b.n	40446a <_wcrtomb_r+0x1e>
  404496:	bf00      	nop
  404498:	20400008 	.word	0x20400008
  40449c:	20400438 	.word	0x20400438

004044a0 <__ascii_wctomb>:
  4044a0:	b121      	cbz	r1, 4044ac <__ascii_wctomb+0xc>
  4044a2:	2aff      	cmp	r2, #255	; 0xff
  4044a4:	d804      	bhi.n	4044b0 <__ascii_wctomb+0x10>
  4044a6:	700a      	strb	r2, [r1, #0]
  4044a8:	2001      	movs	r0, #1
  4044aa:	4770      	bx	lr
  4044ac:	4608      	mov	r0, r1
  4044ae:	4770      	bx	lr
  4044b0:	238a      	movs	r3, #138	; 0x8a
  4044b2:	6003      	str	r3, [r0, #0]
  4044b4:	f04f 30ff 	mov.w	r0, #4294967295
  4044b8:	4770      	bx	lr
  4044ba:	bf00      	nop

004044bc <_write_r>:
  4044bc:	b570      	push	{r4, r5, r6, lr}
  4044be:	460d      	mov	r5, r1
  4044c0:	4c08      	ldr	r4, [pc, #32]	; (4044e4 <_write_r+0x28>)
  4044c2:	4611      	mov	r1, r2
  4044c4:	4606      	mov	r6, r0
  4044c6:	461a      	mov	r2, r3
  4044c8:	4628      	mov	r0, r5
  4044ca:	2300      	movs	r3, #0
  4044cc:	6023      	str	r3, [r4, #0]
  4044ce:	f7fb ff8b 	bl	4003e8 <_write>
  4044d2:	1c43      	adds	r3, r0, #1
  4044d4:	d000      	beq.n	4044d8 <_write_r+0x1c>
  4044d6:	bd70      	pop	{r4, r5, r6, pc}
  4044d8:	6823      	ldr	r3, [r4, #0]
  4044da:	2b00      	cmp	r3, #0
  4044dc:	d0fb      	beq.n	4044d6 <_write_r+0x1a>
  4044de:	6033      	str	r3, [r6, #0]
  4044e0:	bd70      	pop	{r4, r5, r6, pc}
  4044e2:	bf00      	nop
  4044e4:	20400ed8 	.word	0x20400ed8

004044e8 <__register_exitproc>:
  4044e8:	e92d 47f0 	stmdb	sp!, {r4, r5, r6, r7, r8, r9, sl, lr}
  4044ec:	4c25      	ldr	r4, [pc, #148]	; (404584 <__register_exitproc+0x9c>)
  4044ee:	6825      	ldr	r5, [r4, #0]
  4044f0:	f8d5 4148 	ldr.w	r4, [r5, #328]	; 0x148
  4044f4:	4606      	mov	r6, r0
  4044f6:	4688      	mov	r8, r1
  4044f8:	4692      	mov	sl, r2
  4044fa:	4699      	mov	r9, r3
  4044fc:	b3c4      	cbz	r4, 404570 <__register_exitproc+0x88>
  4044fe:	6860      	ldr	r0, [r4, #4]
  404500:	281f      	cmp	r0, #31
  404502:	dc17      	bgt.n	404534 <__register_exitproc+0x4c>
  404504:	1c43      	adds	r3, r0, #1
  404506:	b176      	cbz	r6, 404526 <__register_exitproc+0x3e>
  404508:	eb04 0580 	add.w	r5, r4, r0, lsl #2
  40450c:	2201      	movs	r2, #1
  40450e:	f8c5 a088 	str.w	sl, [r5, #136]	; 0x88
  404512:	f8d4 1188 	ldr.w	r1, [r4, #392]	; 0x188
  404516:	4082      	lsls	r2, r0
  404518:	4311      	orrs	r1, r2
  40451a:	2e02      	cmp	r6, #2
  40451c:	f8c4 1188 	str.w	r1, [r4, #392]	; 0x188
  404520:	f8c5 9108 	str.w	r9, [r5, #264]	; 0x108
  404524:	d01e      	beq.n	404564 <__register_exitproc+0x7c>
  404526:	3002      	adds	r0, #2
  404528:	6063      	str	r3, [r4, #4]
  40452a:	f844 8020 	str.w	r8, [r4, r0, lsl #2]
  40452e:	2000      	movs	r0, #0
  404530:	e8bd 87f0 	ldmia.w	sp!, {r4, r5, r6, r7, r8, r9, sl, pc}
  404534:	4b14      	ldr	r3, [pc, #80]	; (404588 <__register_exitproc+0xa0>)
  404536:	b303      	cbz	r3, 40457a <__register_exitproc+0x92>
  404538:	f44f 70c8 	mov.w	r0, #400	; 0x190
  40453c:	f7ff f924 	bl	403788 <malloc>
  404540:	4604      	mov	r4, r0
  404542:	b1d0      	cbz	r0, 40457a <__register_exitproc+0x92>
  404544:	f8d5 3148 	ldr.w	r3, [r5, #328]	; 0x148
  404548:	2700      	movs	r7, #0
  40454a:	e880 0088 	stmia.w	r0, {r3, r7}
  40454e:	f8c5 4148 	str.w	r4, [r5, #328]	; 0x148
  404552:	4638      	mov	r0, r7
  404554:	2301      	movs	r3, #1
  404556:	f8c4 7188 	str.w	r7, [r4, #392]	; 0x188
  40455a:	f8c4 718c 	str.w	r7, [r4, #396]	; 0x18c
  40455e:	2e00      	cmp	r6, #0
  404560:	d0e1      	beq.n	404526 <__register_exitproc+0x3e>
  404562:	e7d1      	b.n	404508 <__register_exitproc+0x20>
  404564:	f8d4 118c 	ldr.w	r1, [r4, #396]	; 0x18c
  404568:	430a      	orrs	r2, r1
  40456a:	f8c4 218c 	str.w	r2, [r4, #396]	; 0x18c
  40456e:	e7da      	b.n	404526 <__register_exitproc+0x3e>
  404570:	f505 74a6 	add.w	r4, r5, #332	; 0x14c
  404574:	f8c5 4148 	str.w	r4, [r5, #328]	; 0x148
  404578:	e7c1      	b.n	4044fe <__register_exitproc+0x16>
  40457a:	f04f 30ff 	mov.w	r0, #4294967295
  40457e:	e8bd 87f0 	ldmia.w	sp!, {r4, r5, r6, r7, r8, r9, sl, pc}
  404582:	bf00      	nop
  404584:	00423410 	.word	0x00423410
  404588:	00403789 	.word	0x00403789

0040458c <_close_r>:
  40458c:	b538      	push	{r3, r4, r5, lr}
  40458e:	4c07      	ldr	r4, [pc, #28]	; (4045ac <_close_r+0x20>)
  404590:	2300      	movs	r3, #0
  404592:	4605      	mov	r5, r0
  404594:	4608      	mov	r0, r1
  404596:	6023      	str	r3, [r4, #0]
  404598:	f7fd f976 	bl	401888 <_close>
  40459c:	1c43      	adds	r3, r0, #1
  40459e:	d000      	beq.n	4045a2 <_close_r+0x16>
  4045a0:	bd38      	pop	{r3, r4, r5, pc}
  4045a2:	6823      	ldr	r3, [r4, #0]
  4045a4:	2b00      	cmp	r3, #0
  4045a6:	d0fb      	beq.n	4045a0 <_close_r+0x14>
  4045a8:	602b      	str	r3, [r5, #0]
  4045aa:	bd38      	pop	{r3, r4, r5, pc}
  4045ac:	20400ed8 	.word	0x20400ed8

004045b0 <_fclose_r>:
  4045b0:	b570      	push	{r4, r5, r6, lr}
  4045b2:	b139      	cbz	r1, 4045c4 <_fclose_r+0x14>
  4045b4:	4605      	mov	r5, r0
  4045b6:	460c      	mov	r4, r1
  4045b8:	b108      	cbz	r0, 4045be <_fclose_r+0xe>
  4045ba:	6b83      	ldr	r3, [r0, #56]	; 0x38
  4045bc:	b383      	cbz	r3, 404620 <_fclose_r+0x70>
  4045be:	f9b4 300c 	ldrsh.w	r3, [r4, #12]
  4045c2:	b913      	cbnz	r3, 4045ca <_fclose_r+0x1a>
  4045c4:	2600      	movs	r6, #0
  4045c6:	4630      	mov	r0, r6
  4045c8:	bd70      	pop	{r4, r5, r6, pc}
  4045ca:	4621      	mov	r1, r4
  4045cc:	4628      	mov	r0, r5
  4045ce:	f7fe fbc9 	bl	402d64 <__sflush_r>
  4045d2:	6ae3      	ldr	r3, [r4, #44]	; 0x2c
  4045d4:	4606      	mov	r6, r0
  4045d6:	b133      	cbz	r3, 4045e6 <_fclose_r+0x36>
  4045d8:	69e1      	ldr	r1, [r4, #28]
  4045da:	4628      	mov	r0, r5
  4045dc:	4798      	blx	r3
  4045de:	2800      	cmp	r0, #0
  4045e0:	bfb8      	it	lt
  4045e2:	f04f 36ff 	movlt.w	r6, #4294967295
  4045e6:	89a3      	ldrh	r3, [r4, #12]
  4045e8:	061b      	lsls	r3, r3, #24
  4045ea:	d41c      	bmi.n	404626 <_fclose_r+0x76>
  4045ec:	6b21      	ldr	r1, [r4, #48]	; 0x30
  4045ee:	b141      	cbz	r1, 404602 <_fclose_r+0x52>
  4045f0:	f104 0340 	add.w	r3, r4, #64	; 0x40
  4045f4:	4299      	cmp	r1, r3
  4045f6:	d002      	beq.n	4045fe <_fclose_r+0x4e>
  4045f8:	4628      	mov	r0, r5
  4045fa:	f7fe fdbd 	bl	403178 <_free_r>
  4045fe:	2300      	movs	r3, #0
  404600:	6323      	str	r3, [r4, #48]	; 0x30
  404602:	6c61      	ldr	r1, [r4, #68]	; 0x44
  404604:	b121      	cbz	r1, 404610 <_fclose_r+0x60>
  404606:	4628      	mov	r0, r5
  404608:	f7fe fdb6 	bl	403178 <_free_r>
  40460c:	2300      	movs	r3, #0
  40460e:	6463      	str	r3, [r4, #68]	; 0x44
  404610:	f7fe fce2 	bl	402fd8 <__sfp_lock_acquire>
  404614:	2300      	movs	r3, #0
  404616:	81a3      	strh	r3, [r4, #12]
  404618:	f7fe fce0 	bl	402fdc <__sfp_lock_release>
  40461c:	4630      	mov	r0, r6
  40461e:	bd70      	pop	{r4, r5, r6, pc}
  404620:	f7fe fcd4 	bl	402fcc <__sinit>
  404624:	e7cb      	b.n	4045be <_fclose_r+0xe>
  404626:	6921      	ldr	r1, [r4, #16]
  404628:	4628      	mov	r0, r5
  40462a:	f7fe fda5 	bl	403178 <_free_r>
  40462e:	e7dd      	b.n	4045ec <_fclose_r+0x3c>

00404630 <_fstat_r>:
  404630:	b538      	push	{r3, r4, r5, lr}
  404632:	460b      	mov	r3, r1
  404634:	4c07      	ldr	r4, [pc, #28]	; (404654 <_fstat_r+0x24>)
  404636:	4605      	mov	r5, r0
  404638:	4611      	mov	r1, r2
  40463a:	4618      	mov	r0, r3
  40463c:	2300      	movs	r3, #0
  40463e:	6023      	str	r3, [r4, #0]
  404640:	f7fd f925 	bl	40188e <_fstat>
  404644:	1c43      	adds	r3, r0, #1
  404646:	d000      	beq.n	40464a <_fstat_r+0x1a>
  404648:	bd38      	pop	{r3, r4, r5, pc}
  40464a:	6823      	ldr	r3, [r4, #0]
  40464c:	2b00      	cmp	r3, #0
  40464e:	d0fb      	beq.n	404648 <_fstat_r+0x18>
  404650:	602b      	str	r3, [r5, #0]
  404652:	bd38      	pop	{r3, r4, r5, pc}
  404654:	20400ed8 	.word	0x20400ed8

00404658 <_isatty_r>:
  404658:	b538      	push	{r3, r4, r5, lr}
  40465a:	4c07      	ldr	r4, [pc, #28]	; (404678 <_isatty_r+0x20>)
  40465c:	2300      	movs	r3, #0
  40465e:	4605      	mov	r5, r0
  404660:	4608      	mov	r0, r1
  404662:	6023      	str	r3, [r4, #0]
  404664:	f7fd f918 	bl	401898 <_isatty>
  404668:	1c43      	adds	r3, r0, #1
  40466a:	d000      	beq.n	40466e <_isatty_r+0x16>
  40466c:	bd38      	pop	{r3, r4, r5, pc}
  40466e:	6823      	ldr	r3, [r4, #0]
  404670:	2b00      	cmp	r3, #0
  404672:	d0fb      	beq.n	40466c <_isatty_r+0x14>
  404674:	602b      	str	r3, [r5, #0]
  404676:	bd38      	pop	{r3, r4, r5, pc}
  404678:	20400ed8 	.word	0x20400ed8

0040467c <_lseek_r>:
  40467c:	b570      	push	{r4, r5, r6, lr}
  40467e:	460d      	mov	r5, r1
  404680:	4c08      	ldr	r4, [pc, #32]	; (4046a4 <_lseek_r+0x28>)
  404682:	4611      	mov	r1, r2
  404684:	4606      	mov	r6, r0
  404686:	461a      	mov	r2, r3
  404688:	4628      	mov	r0, r5
  40468a:	2300      	movs	r3, #0
  40468c:	6023      	str	r3, [r4, #0]
  40468e:	f7fd f905 	bl	40189c <_lseek>
  404692:	1c43      	adds	r3, r0, #1
  404694:	d000      	beq.n	404698 <_lseek_r+0x1c>
  404696:	bd70      	pop	{r4, r5, r6, pc}
  404698:	6823      	ldr	r3, [r4, #0]
  40469a:	2b00      	cmp	r3, #0
  40469c:	d0fb      	beq.n	404696 <_lseek_r+0x1a>
  40469e:	6033      	str	r3, [r6, #0]
  4046a0:	bd70      	pop	{r4, r5, r6, pc}
  4046a2:	bf00      	nop
  4046a4:	20400ed8 	.word	0x20400ed8

004046a8 <_read_r>:
  4046a8:	b570      	push	{r4, r5, r6, lr}
  4046aa:	460d      	mov	r5, r1
  4046ac:	4c08      	ldr	r4, [pc, #32]	; (4046d0 <_read_r+0x28>)
  4046ae:	4611      	mov	r1, r2
  4046b0:	4606      	mov	r6, r0
  4046b2:	461a      	mov	r2, r3
  4046b4:	4628      	mov	r0, r5
  4046b6:	2300      	movs	r3, #0
  4046b8:	6023      	str	r3, [r4, #0]
  4046ba:	f7fb fe77 	bl	4003ac <_read>
  4046be:	1c43      	adds	r3, r0, #1
  4046c0:	d000      	beq.n	4046c4 <_read_r+0x1c>
  4046c2:	bd70      	pop	{r4, r5, r6, pc}
  4046c4:	6823      	ldr	r3, [r4, #0]
  4046c6:	2b00      	cmp	r3, #0
  4046c8:	d0fb      	beq.n	4046c2 <_read_r+0x1a>
  4046ca:	6033      	str	r3, [r6, #0]
  4046cc:	bd70      	pop	{r4, r5, r6, pc}
  4046ce:	bf00      	nop
  4046d0:	20400ed8 	.word	0x20400ed8

004046d4 <__aeabi_uldivmod>:
  4046d4:	b953      	cbnz	r3, 4046ec <__aeabi_uldivmod+0x18>
  4046d6:	b94a      	cbnz	r2, 4046ec <__aeabi_uldivmod+0x18>
  4046d8:	2900      	cmp	r1, #0
  4046da:	bf08      	it	eq
  4046dc:	2800      	cmpeq	r0, #0
  4046de:	bf1c      	itt	ne
  4046e0:	f04f 31ff 	movne.w	r1, #4294967295
  4046e4:	f04f 30ff 	movne.w	r0, #4294967295
  4046e8:	f000 b97a 	b.w	4049e0 <__aeabi_idiv0>
  4046ec:	f1ad 0c08 	sub.w	ip, sp, #8
  4046f0:	e96d ce04 	strd	ip, lr, [sp, #-16]!
  4046f4:	f000 f806 	bl	404704 <__udivmoddi4>
  4046f8:	f8dd e004 	ldr.w	lr, [sp, #4]
  4046fc:	e9dd 2302 	ldrd	r2, r3, [sp, #8]
  404700:	b004      	add	sp, #16
  404702:	4770      	bx	lr

00404704 <__udivmoddi4>:
  404704:	e92d 47f0 	stmdb	sp!, {r4, r5, r6, r7, r8, r9, sl, lr}
  404708:	468c      	mov	ip, r1
  40470a:	460d      	mov	r5, r1
  40470c:	4604      	mov	r4, r0
  40470e:	9e08      	ldr	r6, [sp, #32]
  404710:	2b00      	cmp	r3, #0
  404712:	d151      	bne.n	4047b8 <__udivmoddi4+0xb4>
  404714:	428a      	cmp	r2, r1
  404716:	4617      	mov	r7, r2
  404718:	d96d      	bls.n	4047f6 <__udivmoddi4+0xf2>
  40471a:	fab2 fe82 	clz	lr, r2
  40471e:	f1be 0f00 	cmp.w	lr, #0
  404722:	d00b      	beq.n	40473c <__udivmoddi4+0x38>
  404724:	f1ce 0c20 	rsb	ip, lr, #32
  404728:	fa01 f50e 	lsl.w	r5, r1, lr
  40472c:	fa20 fc0c 	lsr.w	ip, r0, ip
  404730:	fa02 f70e 	lsl.w	r7, r2, lr
  404734:	ea4c 0c05 	orr.w	ip, ip, r5
  404738:	fa00 f40e 	lsl.w	r4, r0, lr
  40473c:	ea4f 4a17 	mov.w	sl, r7, lsr #16
  404740:	0c25      	lsrs	r5, r4, #16
  404742:	fbbc f8fa 	udiv	r8, ip, sl
  404746:	fa1f f987 	uxth.w	r9, r7
  40474a:	fb0a cc18 	mls	ip, sl, r8, ip
  40474e:	ea45 450c 	orr.w	r5, r5, ip, lsl #16
  404752:	fb08 f309 	mul.w	r3, r8, r9
  404756:	42ab      	cmp	r3, r5
  404758:	d90a      	bls.n	404770 <__udivmoddi4+0x6c>
  40475a:	19ed      	adds	r5, r5, r7
  40475c:	f108 32ff 	add.w	r2, r8, #4294967295
  404760:	f080 8123 	bcs.w	4049aa <__udivmoddi4+0x2a6>
  404764:	42ab      	cmp	r3, r5
  404766:	f240 8120 	bls.w	4049aa <__udivmoddi4+0x2a6>
  40476a:	f1a8 0802 	sub.w	r8, r8, #2
  40476e:	443d      	add	r5, r7
  404770:	1aed      	subs	r5, r5, r3
  404772:	b2a4      	uxth	r4, r4
  404774:	fbb5 f0fa 	udiv	r0, r5, sl
  404778:	fb0a 5510 	mls	r5, sl, r0, r5
  40477c:	ea44 4405 	orr.w	r4, r4, r5, lsl #16
  404780:	fb00 f909 	mul.w	r9, r0, r9
  404784:	45a1      	cmp	r9, r4
  404786:	d909      	bls.n	40479c <__udivmoddi4+0x98>
  404788:	19e4      	adds	r4, r4, r7
  40478a:	f100 33ff 	add.w	r3, r0, #4294967295
  40478e:	f080 810a 	bcs.w	4049a6 <__udivmoddi4+0x2a2>
  404792:	45a1      	cmp	r9, r4
  404794:	f240 8107 	bls.w	4049a6 <__udivmoddi4+0x2a2>
  404798:	3802      	subs	r0, #2
  40479a:	443c      	add	r4, r7
  40479c:	eba4 0409 	sub.w	r4, r4, r9
  4047a0:	ea40 4008 	orr.w	r0, r0, r8, lsl #16
  4047a4:	2100      	movs	r1, #0
  4047a6:	2e00      	cmp	r6, #0
  4047a8:	d061      	beq.n	40486e <__udivmoddi4+0x16a>
  4047aa:	fa24 f40e 	lsr.w	r4, r4, lr
  4047ae:	2300      	movs	r3, #0
  4047b0:	6034      	str	r4, [r6, #0]
  4047b2:	6073      	str	r3, [r6, #4]
  4047b4:	e8bd 87f0 	ldmia.w	sp!, {r4, r5, r6, r7, r8, r9, sl, pc}
  4047b8:	428b      	cmp	r3, r1
  4047ba:	d907      	bls.n	4047cc <__udivmoddi4+0xc8>
  4047bc:	2e00      	cmp	r6, #0
  4047be:	d054      	beq.n	40486a <__udivmoddi4+0x166>
  4047c0:	2100      	movs	r1, #0
  4047c2:	e886 0021 	stmia.w	r6, {r0, r5}
  4047c6:	4608      	mov	r0, r1
  4047c8:	e8bd 87f0 	ldmia.w	sp!, {r4, r5, r6, r7, r8, r9, sl, pc}
  4047cc:	fab3 f183 	clz	r1, r3
  4047d0:	2900      	cmp	r1, #0
  4047d2:	f040 808e 	bne.w	4048f2 <__udivmoddi4+0x1ee>
  4047d6:	42ab      	cmp	r3, r5
  4047d8:	d302      	bcc.n	4047e0 <__udivmoddi4+0xdc>
  4047da:	4282      	cmp	r2, r0
  4047dc:	f200 80fa 	bhi.w	4049d4 <__udivmoddi4+0x2d0>
  4047e0:	1a84      	subs	r4, r0, r2
  4047e2:	eb65 0503 	sbc.w	r5, r5, r3
  4047e6:	2001      	movs	r0, #1
  4047e8:	46ac      	mov	ip, r5
  4047ea:	2e00      	cmp	r6, #0
  4047ec:	d03f      	beq.n	40486e <__udivmoddi4+0x16a>
  4047ee:	e886 1010 	stmia.w	r6, {r4, ip}
  4047f2:	e8bd 87f0 	ldmia.w	sp!, {r4, r5, r6, r7, r8, r9, sl, pc}
  4047f6:	b912      	cbnz	r2, 4047fe <__udivmoddi4+0xfa>
  4047f8:	2701      	movs	r7, #1
  4047fa:	fbb7 f7f2 	udiv	r7, r7, r2
  4047fe:	fab7 fe87 	clz	lr, r7
  404802:	f1be 0f00 	cmp.w	lr, #0
  404806:	d134      	bne.n	404872 <__udivmoddi4+0x16e>
  404808:	1beb      	subs	r3, r5, r7
  40480a:	0c3a      	lsrs	r2, r7, #16
  40480c:	fa1f fc87 	uxth.w	ip, r7
  404810:	2101      	movs	r1, #1
  404812:	fbb3 f8f2 	udiv	r8, r3, r2
  404816:	0c25      	lsrs	r5, r4, #16
  404818:	fb02 3318 	mls	r3, r2, r8, r3
  40481c:	ea45 4503 	orr.w	r5, r5, r3, lsl #16
  404820:	fb0c f308 	mul.w	r3, ip, r8
  404824:	42ab      	cmp	r3, r5
  404826:	d907      	bls.n	404838 <__udivmoddi4+0x134>
  404828:	19ed      	adds	r5, r5, r7
  40482a:	f108 30ff 	add.w	r0, r8, #4294967295
  40482e:	d202      	bcs.n	404836 <__udivmoddi4+0x132>
  404830:	42ab      	cmp	r3, r5
  404832:	f200 80d1 	bhi.w	4049d8 <__udivmoddi4+0x2d4>
  404836:	4680      	mov	r8, r0
  404838:	1aed      	subs	r5, r5, r3
  40483a:	b2a3      	uxth	r3, r4
  40483c:	fbb5 f0f2 	udiv	r0, r5, r2
  404840:	fb02 5510 	mls	r5, r2, r0, r5
  404844:	ea43 4405 	orr.w	r4, r3, r5, lsl #16
  404848:	fb0c fc00 	mul.w	ip, ip, r0
  40484c:	45a4      	cmp	ip, r4
  40484e:	d907      	bls.n	404860 <__udivmoddi4+0x15c>
  404850:	19e4      	adds	r4, r4, r7
  404852:	f100 33ff 	add.w	r3, r0, #4294967295
  404856:	d202      	bcs.n	40485e <__udivmoddi4+0x15a>
  404858:	45a4      	cmp	ip, r4
  40485a:	f200 80b8 	bhi.w	4049ce <__udivmoddi4+0x2ca>
  40485e:	4618      	mov	r0, r3
  404860:	eba4 040c 	sub.w	r4, r4, ip
  404864:	ea40 4008 	orr.w	r0, r0, r8, lsl #16
  404868:	e79d      	b.n	4047a6 <__udivmoddi4+0xa2>
  40486a:	4631      	mov	r1, r6
  40486c:	4630      	mov	r0, r6
  40486e:	e8bd 87f0 	ldmia.w	sp!, {r4, r5, r6, r7, r8, r9, sl, pc}
  404872:	f1ce 0420 	rsb	r4, lr, #32
  404876:	fa05 f30e 	lsl.w	r3, r5, lr
  40487a:	fa07 f70e 	lsl.w	r7, r7, lr
  40487e:	fa20 f804 	lsr.w	r8, r0, r4
  404882:	0c3a      	lsrs	r2, r7, #16
  404884:	fa25 f404 	lsr.w	r4, r5, r4
  404888:	ea48 0803 	orr.w	r8, r8, r3
  40488c:	fbb4 f1f2 	udiv	r1, r4, r2
  404890:	ea4f 4518 	mov.w	r5, r8, lsr #16
  404894:	fb02 4411 	mls	r4, r2, r1, r4
  404898:	fa1f fc87 	uxth.w	ip, r7
  40489c:	ea45 4504 	orr.w	r5, r5, r4, lsl #16
  4048a0:	fb01 f30c 	mul.w	r3, r1, ip
  4048a4:	42ab      	cmp	r3, r5
  4048a6:	fa00 f40e 	lsl.w	r4, r0, lr
  4048aa:	d909      	bls.n	4048c0 <__udivmoddi4+0x1bc>
  4048ac:	19ed      	adds	r5, r5, r7
  4048ae:	f101 30ff 	add.w	r0, r1, #4294967295
  4048b2:	f080 808a 	bcs.w	4049ca <__udivmoddi4+0x2c6>
  4048b6:	42ab      	cmp	r3, r5
  4048b8:	f240 8087 	bls.w	4049ca <__udivmoddi4+0x2c6>
  4048bc:	3902      	subs	r1, #2
  4048be:	443d      	add	r5, r7
  4048c0:	1aeb      	subs	r3, r5, r3
  4048c2:	fa1f f588 	uxth.w	r5, r8
  4048c6:	fbb3 f0f2 	udiv	r0, r3, r2
  4048ca:	fb02 3310 	mls	r3, r2, r0, r3
  4048ce:	ea45 4503 	orr.w	r5, r5, r3, lsl #16
  4048d2:	fb00 f30c 	mul.w	r3, r0, ip
  4048d6:	42ab      	cmp	r3, r5
  4048d8:	d907      	bls.n	4048ea <__udivmoddi4+0x1e6>
  4048da:	19ed      	adds	r5, r5, r7
  4048dc:	f100 38ff 	add.w	r8, r0, #4294967295
  4048e0:	d26f      	bcs.n	4049c2 <__udivmoddi4+0x2be>
  4048e2:	42ab      	cmp	r3, r5
  4048e4:	d96d      	bls.n	4049c2 <__udivmoddi4+0x2be>
  4048e6:	3802      	subs	r0, #2
  4048e8:	443d      	add	r5, r7
  4048ea:	1aeb      	subs	r3, r5, r3
  4048ec:	ea40 4101 	orr.w	r1, r0, r1, lsl #16
  4048f0:	e78f      	b.n	404812 <__udivmoddi4+0x10e>
  4048f2:	f1c1 0720 	rsb	r7, r1, #32
  4048f6:	fa22 f807 	lsr.w	r8, r2, r7
  4048fa:	408b      	lsls	r3, r1
  4048fc:	fa05 f401 	lsl.w	r4, r5, r1
  404900:	ea48 0303 	orr.w	r3, r8, r3
  404904:	fa20 fe07 	lsr.w	lr, r0, r7
  404908:	ea4f 4c13 	mov.w	ip, r3, lsr #16
  40490c:	40fd      	lsrs	r5, r7
  40490e:	ea4e 0e04 	orr.w	lr, lr, r4
  404912:	fbb5 f9fc 	udiv	r9, r5, ip
  404916:	ea4f 441e 	mov.w	r4, lr, lsr #16
  40491a:	fb0c 5519 	mls	r5, ip, r9, r5
  40491e:	fa1f f883 	uxth.w	r8, r3
  404922:	ea44 4505 	orr.w	r5, r4, r5, lsl #16
  404926:	fb09 f408 	mul.w	r4, r9, r8
  40492a:	42ac      	cmp	r4, r5
  40492c:	fa02 f201 	lsl.w	r2, r2, r1
  404930:	fa00 fa01 	lsl.w	sl, r0, r1
  404934:	d908      	bls.n	404948 <__udivmoddi4+0x244>
  404936:	18ed      	adds	r5, r5, r3
  404938:	f109 30ff 	add.w	r0, r9, #4294967295
  40493c:	d243      	bcs.n	4049c6 <__udivmoddi4+0x2c2>
  40493e:	42ac      	cmp	r4, r5
  404940:	d941      	bls.n	4049c6 <__udivmoddi4+0x2c2>
  404942:	f1a9 0902 	sub.w	r9, r9, #2
  404946:	441d      	add	r5, r3
  404948:	1b2d      	subs	r5, r5, r4
  40494a:	fa1f fe8e 	uxth.w	lr, lr
  40494e:	fbb5 f0fc 	udiv	r0, r5, ip
  404952:	fb0c 5510 	mls	r5, ip, r0, r5
  404956:	ea4e 4405 	orr.w	r4, lr, r5, lsl #16
  40495a:	fb00 f808 	mul.w	r8, r0, r8
  40495e:	45a0      	cmp	r8, r4
  404960:	d907      	bls.n	404972 <__udivmoddi4+0x26e>
  404962:	18e4      	adds	r4, r4, r3
  404964:	f100 35ff 	add.w	r5, r0, #4294967295
  404968:	d229      	bcs.n	4049be <__udivmoddi4+0x2ba>
  40496a:	45a0      	cmp	r8, r4
  40496c:	d927      	bls.n	4049be <__udivmoddi4+0x2ba>
  40496e:	3802      	subs	r0, #2
  404970:	441c      	add	r4, r3
  404972:	ea40 4009 	orr.w	r0, r0, r9, lsl #16
  404976:	eba4 0408 	sub.w	r4, r4, r8
  40497a:	fba0 8902 	umull	r8, r9, r0, r2
  40497e:	454c      	cmp	r4, r9
  404980:	46c6      	mov	lr, r8
  404982:	464d      	mov	r5, r9
  404984:	d315      	bcc.n	4049b2 <__udivmoddi4+0x2ae>
  404986:	d012      	beq.n	4049ae <__udivmoddi4+0x2aa>
  404988:	b156      	cbz	r6, 4049a0 <__udivmoddi4+0x29c>
  40498a:	ebba 030e 	subs.w	r3, sl, lr
  40498e:	eb64 0405 	sbc.w	r4, r4, r5
  404992:	fa04 f707 	lsl.w	r7, r4, r7
  404996:	40cb      	lsrs	r3, r1
  404998:	431f      	orrs	r7, r3
  40499a:	40cc      	lsrs	r4, r1
  40499c:	6037      	str	r7, [r6, #0]
  40499e:	6074      	str	r4, [r6, #4]
  4049a0:	2100      	movs	r1, #0
  4049a2:	e8bd 87f0 	ldmia.w	sp!, {r4, r5, r6, r7, r8, r9, sl, pc}
  4049a6:	4618      	mov	r0, r3
  4049a8:	e6f8      	b.n	40479c <__udivmoddi4+0x98>
  4049aa:	4690      	mov	r8, r2
  4049ac:	e6e0      	b.n	404770 <__udivmoddi4+0x6c>
  4049ae:	45c2      	cmp	sl, r8
  4049b0:	d2ea      	bcs.n	404988 <__udivmoddi4+0x284>
  4049b2:	ebb8 0e02 	subs.w	lr, r8, r2
  4049b6:	eb69 0503 	sbc.w	r5, r9, r3
  4049ba:	3801      	subs	r0, #1
  4049bc:	e7e4      	b.n	404988 <__udivmoddi4+0x284>
  4049be:	4628      	mov	r0, r5
  4049c0:	e7d7      	b.n	404972 <__udivmoddi4+0x26e>
  4049c2:	4640      	mov	r0, r8
  4049c4:	e791      	b.n	4048ea <__udivmoddi4+0x1e6>
  4049c6:	4681      	mov	r9, r0
  4049c8:	e7be      	b.n	404948 <__udivmoddi4+0x244>
  4049ca:	4601      	mov	r1, r0
  4049cc:	e778      	b.n	4048c0 <__udivmoddi4+0x1bc>
  4049ce:	3802      	subs	r0, #2
  4049d0:	443c      	add	r4, r7
  4049d2:	e745      	b.n	404860 <__udivmoddi4+0x15c>
  4049d4:	4608      	mov	r0, r1
  4049d6:	e708      	b.n	4047ea <__udivmoddi4+0xe6>
  4049d8:	f1a8 0802 	sub.w	r8, r8, #2
  4049dc:	443d      	add	r5, r7
  4049de:	e72b      	b.n	404838 <__udivmoddi4+0x134>

004049e0 <__aeabi_idiv0>:
  4049e0:	4770      	bx	lr
  4049e2:	bf00      	nop

004049e4 <p_uc_charset10x14>:
	...
  404a00:	ccff ccff 0000 0000 0000 0000 0000 0000     ................
  404a10:	00f0 00f0 0000 0000 00f0 00f0 0000 0000     ................
  404a20:	c00c c00c fcff fcff c00c c00c fcff fcff     ................
  404a30:	c00c c00c 600c 701e 303f 3033 fcff fcff     .....`.p?030....
  404a40:	3033 f033 e039 c018 0060 0cf0 3cf0 f060     303.9...`....<`.
  404a50:	c003 000f 183c 3cf0 3cc0 1800 f03c f87f     ....<..<.<..<...
  404a60:	1cc3 8cc7 cccf ecdc 7878 3030 fc00 cc00     ........xx00....
  404a70:	0000 0000 0000 0044 00ec 00f8 0070 0000     ......D.....p...
	...
  404a88:	c00f f03f 7878 1860 0cc0 0cc0 0000 0000     ..?.xx`.........
  404a98:	0000 0000 0cc0 0cc0 1860 7878 f03f c00f     ........`.xx?...
  404aa8:	0000 0000 600c e00e c007 8003 f83f f83f     .....`......?.?.
  404ab8:	8003 c007 e00e 600c 0003 0003 0003 0003     .......`........
  404ac8:	f03f f03f 0003 0003 0003 0003 4400 ec00     ?.?..........D..
  404ad8:	f800 7000 0000 0000 0000 0000 0000 0000     ...p............
  404ae8:	0003 0003 0003 0003 0003 0003 0003 0003     ................
  404af8:	0003 0003 1800 3c00 3c00 1800 0000 0000     .......<.<......
	...
  404b10:	0000 0c00 3c00 f000 c003 000f 003c 00f0     .....<......<...
  404b20:	00c0 0000 f03f f87f fce0 ccc1 8cc3 0cc7     ....?...........
  404b30:	0cce 1cfc f87f f03f 0000 0000 0c30 0c70     ......?.....0.p.
  404b40:	fcff fcff 0c00 0c00 0000 0000 0c30 1c70     ............0.p.
  404b50:	3ce0 7cc0 ecc0 ccc1 8cc3 0ce7 0c7e 0c3c     .<.|........~.<.
  404b60:	3030 3870 1ce0 0cc0 0cc0 0cc3 0cc3 1ce3     00p8............
  404b70:	f87f f03c c003 c007 c00e c01c c038 c070     ..<.........8.p.
  404b80:	fcff fcff c000 c000 30fc 38fc 1ccc 0ccc     .........0.8....
  404b90:	0ccc 0ccc 0ccc 1cce f8c7 f0c3 f03f f87f     ............?...
  404ba0:	1ce3 0cc3 0cc3 0cc3 0cc3 9ce3 f871 f030     ............q.0.
  404bb0:	00c0 00c0 00c0 00c0 fcc3 fcc7 00ce 00dc     ................
  404bc0:	00f8 00f0 f03c f87f 9ce7 0cc3 0cc3 0cc3     ....<...........
  404bd0:	0cc3 9ce7 f87f f03c 003c 007e 0ce7 0cc3     ......<.<.~.....
  404be0:	1cc3 38c3 70c3 e0e7 c07f 803f 0000 0000     ...8.p....?.....
  404bf0:	0000 6018 f03c f03c 6018 0000 0000 0000     ...`<.<..`......
  404c00:	0000 0000 0000 4418 ec3c f83c 7018 0000     .......D<.<..p..
  404c10:	0000 0000 0000 0003 8007 c00f e01c 7038     ..............8p
  404c20:	3870 1ce0 0cc0 0000 c00c c00c c00c c00c     p8..............
  404c30:	c00c c00c c00c c00c c00c c00c 0000 0cc0     ................
  404c40:	1ce0 3870 7038 e01c c00f 8007 0003 0000     ..p88p..........
  404c50:	0030 0070 00e0 00c0 ecc1 ecc3 00c3 00e6     0.p.............
  404c60:	007e 003c f030 f871 9ce3 0cc3 fcc3 fcc3     ~.<.0.q.........
  404c70:	0cc0 1ce0 f87f f03f fc3f fc7f c0e0 c0c0     ......?.?.......
  404c80:	c0c0 c0c0 c0c0 c0e0 fc7f fc3f fcff fcff     ..........?.....
  404c90:	0cc3 0cc3 0cc3 0cc3 0cc3 9ce7 f87f f03c     ..............<.
  404ca0:	f03f f87f 1ce0 0cc0 0cc0 0cc0 0cc0 1ce0     ?...............
  404cb0:	3870 3030 fcff fcff 0cc0 0cc0 0cc0 0cc0     p800............
  404cc0:	0cc0 1ce0 f87f f03f fcff fcff 0cc3 0cc3     ......?.........
  404cd0:	0cc3 0cc3 0cc3 0cc3 0cc0 0cc0 fcff fcff     ................
  404ce0:	00c3 00c3 00c3 00c3 00c3 00c3 00c0 00c0     ................
  404cf0:	f03f f87f 1ce0 0cc0 0cc0 0cc3 0cc3 1ce3     ?...............
  404d00:	f873 f033 fcff fcff 0003 0003 0003 0003     s.3.............
  404d10:	0003 0003 fcff fcff 0000 0000 0cc0 0cc0     ................
  404d20:	fcff fcff 0cc0 0cc0 0000 0000 3000 3800     .............0.8
  404d30:	1cc0 0cc0 0cc0 1cc0 f8ff f0ff 00c0 00c0     ................
  404d40:	fcff fcff 8007 8007 c00f e01c 7038 3870     ............8pp8
  404d50:	1ce0 0cc0 fcff fcff 0c00 0c00 0c00 0c00     ................
  404d60:	0c00 0c00 0c00 0c00 fcff fcff 0070 0038     ............p.8.
  404d70:	001f 001f 0038 0070 fcff fcff fcff fcff     ....8.p.........
  404d80:	001c 000e 0007 8003 c001 e000 fcff fcff     ................
  404d90:	f03f f87f 1ce0 0cc0 0cc0 0cc0 0cc0 1ce0     ?...............
  404da0:	f87f f03f fcff fcff 00c3 00c3 00c3 00c3     ..?.............
  404db0:	00c3 00e7 007e 003c f03f f87f 1ce0 0cc0     ....~.<.?.......
  404dc0:	ccc0 ecc0 7cc0 38e0 fc7f ec3f fcff fcff     .....|.8..?.....
  404dd0:	00c3 80c3 80c3 c0c3 c0c3 70e7 3c7e 1c3c     ...........p~<<.
  404de0:	183c 1c7e 0ce7 0cc3 0cc3 0cc3 0cc3 9cc3     <.~.............
  404df0:	f8e1 f060 00c0 00c0 00c0 00c0 fcff fcff     ..`.............
  404e00:	00c0 00c0 00c0 00c0 f0ff f8ff 1c00 0c00     ................
  404e10:	0c00 0c00 0c00 1c00 f8ff f0ff c0ff e0ff     ................
  404e20:	7000 3800 1c00 1c00 3800 7000 e0ff c0ff     .p.8.....8.p....
  404e30:	f0ff f8ff 1c00 3c00 f800 f800 3c00 1c00     .......<.....<..
  404e40:	f8ff f0ff 3cf0 7cf8 e01c c00f 8007 8007     .....<.|........
  404e50:	c00f e01c 7cf8 3cf0 00fc 00fe 0007 8003     .....|.<........
  404e60:	fc01 fc01 8003 0007 00fe 00fc 3cc0 7cc0     .............<.|
  404e70:	ecc0 ccc1 8cc3 0cc7 0cce 0cdc 0cf8 0cf0     ................
  404e80:	0000 0000 fcff fcff 0cc0 0cc0 0cc0 0000     ................
  404e90:	0000 0000 0030 0030 000c 000c 0003 0003     ....0.0.........
  404ea0:	c000 c000 3000 3000 0000 0000 0cc0 0cc0     .....0.0........
  404eb0:	0cc0 fcff fcff 0000 0000 0000 000c 001c     ................
  404ec0:	0038 0070 00e0 00e0 0070 0038 001c 000c     8.p.....p.8.....
  404ed0:	0c00 0c00 0c00 0c00 0c00 0c00 0c00 0c00     ................
  404ee0:	0c00 0c00 0000 0000 00c0 00e0 0070 0038     ............p.8.
  404ef0:	0018 0000 0000 0000 3000 7806 fc0e cc0c     .........0.x....
  404f00:	cc0c cc0c cc0c cc0e fc07 f803 fcff fcff     ................
  404f10:	0c03 0c03 0c03 0c03 0c03 9c03 f801 f000     ................
  404f20:	f003 f807 1c0e 0c0c 0c0c 0c0c 0c0c 1c0e     ................
  404f30:	3807 3003 f000 f801 9c03 0c03 0c03 0c03     .8.0............
  404f40:	0c03 0c03 fcff fcff f003 f807 dc0e cc0c     ................
  404f50:	cc0c cc0c cc0c dc0e d807 9003 0000 0003     ................
  404f60:	fc3f fc7f 00e3 00e3 0070 0030 0000 0000     ?.......p.0.....
  404f70:	1803 9c07 cc0f cc0c cc0c cc0c cc0c dc0c     ................
  404f80:	f80f f007 fcff fcff 0003 0003 0003 0003     ................
  404f90:	8003 fc01 fc00 0000 0000 0000 0000 0000     ................
  404fa0:	fc1b fc1b 0000 0000 0000 0000 0000 3000     ...............0
  404fb0:	3800 1c00 0c00 0c00 1c00 f8cf f0cf 0000     .8..............
  404fc0:	0000 fcff fcff e000 e001 f003 3807 1c0e     .............8..
  404fd0:	0c0c 0000 0000 0000 0cc0 0cc0 fcff fcff     ................
  404fe0:	0c00 0c00 0000 0000 fc0f fc0f 000e 0007     ................
  404ff0:	c003 c003 0007 000e fc0f fc0f fc0f fc0f     ................
  405000:	0003 0007 000e 000c 000c 000e fc07 fc03     ................
  405010:	f003 f807 1c0e 0c0c 0c0c 0c0c 0c0c 1c0e     ................
  405020:	f807 f003 fc0f fc0f c00c c00c c00c c00c     ................
  405030:	c00c c00f 8007 0003 0003 8007 c00f c00c     ................
  405040:	c00c c00c c00c c00c fc0f fc0f fc0f fc0f     ................
  405050:	8003 0007 000e 000c 000c 000e 0007 0003     ................
  405060:	1803 9c07 cc0f cc0c cc0c cc0c cc0c fc0c     ................
  405070:	780e 3006 0000 000c 000c f0ff f8ff 1c0c     .x.0............
  405080:	1c0c 380c 300c 0000 f00f f80f 1c00 0c00     ...8.0..........
  405090:	0c00 0c00 0c00 1c00 f80f f00f c00f e00f     ................
  4050a0:	7000 3800 1c00 1c00 3800 7000 e00f c00f     .p.8.....8.p....
  4050b0:	f00f f80f 1c00 1c00 f800 f800 1c00 1c00     ................
  4050c0:	f80f f00f 0c0c 1c0e 3807 f003 e001 e001     .........8......
  4050d0:	f003 3807 1c0e 0c0c 000c 000e 0c07 9c03     ...8............
  4050e0:	f801 f001 8003 0007 000e 000c 0c0c 1c0c     ................
  4050f0:	3c0c 7c0c ec0c cc0d 8c0f 0c0f 0c0e 0c0c     .<.|............
  405100:	0000 0003 8007 f03f f87c 1ce0 0cc0 0cc0     ......?.|.......
  405110:	0cc0 0000 0c03 0c03 fc3f fc7f 0ce3 0cc3     ........?.......
  405120:	0cc0 0ce0 0c70 0c30 0000 0cc0 0cc0 0cc0     ....p.0.........
  405130:	1ce0 f87c f03f 8007 0003 0000 00c0 00c0     ..|.?...........
  405140:	00c0 00c0 00c0 00c0 00c0 00c0 00c0 00c0     ................
  405150:	fcff fcff fcff fcff fcff fcff fcff fcff     ................
  405160:	fcff fcff                                   ....

00405164 <logoImage>:
  405164:	ffff ffff ffff ffff ffff ffff ffff ffff     ................
  405174:	ffff ffff ffff ffff ffff ffff ffff ffff     ................
  405184:	ffff ffff ffff ffff ffff ffff ffff ffff     ................
  405194:	ffff ffff ffff ffff ffff ffff ffff ffff     ................
  4051a4:	ffff ffff ffff ffff ffff ffff ffff ffff     ................
  4051b4:	ffff ffff ffff ffff ffff ffff ffff ffff     ................
  4051c4:	ffff ffff ffff ffff ffff ffff ffff ffff     ................
  4051d4:	ffff ffff ffff ffff ffff ffff ffff ffff     ................
  4051e4:	ffff ffff ffff ffff ffff ffff ffff ffff     ................
  4051f4:	ffff ffff ffff ffff ffff ffff ffff ffff     ................
  405204:	ffff ffff ffff ffff ffff ffff ffff ffff     ................
  405214:	ffff ffff ffff ffff ffff ffff ffff ffff     ................
  405224:	ffff ffff ffff ffff ffff ffff ffff ffff     ................
  405234:	ffff ffff ffff ffff ffff ffff ffff ffff     ................
  405244:	ffff ffff ffff ffff ffff ffff ffff ffff     ................
  405254:	ffff ffff ffff ffff ffff ffff ffff ffff     ................
  405264:	ffff ffff ffff ffff ffff ffff ffff ffff     ................
  405274:	ffff ffff ffff ffff ffff ffff ffff ffff     ................
  405284:	ffff ffff ffff ffff ffff ffff ffff ffff     ................
  405294:	ffff ffff ffff ffff ffff ffff ffff ffff     ................
  4052a4:	ffff ffff ffff ffff ffff ffff ffff ffff     ................
  4052b4:	ffff ffff ffff ffff ffff ffff ffff ffff     ................
  4052c4:	ffff ffff ffff ffff ffff ffff ffff ffff     ................
  4052d4:	ffff ffff ffff ffff ffff ffff ffff ffff     ................
  4052e4:	ffff ffff ffff ffff ffff ffff ffff ffff     ................
  4052f4:	ffff ffff ffff ffff ffff ffff ffff ffff     ................
  405304:	ffff ffff ffff ffff ffff ffff ffff ffff     ................
  405314:	ffff ffff ffff ffff ffff ffff ffff ffff     ................
  405324:	ffff ffff ffff ffff ffff ffff ffff ffff     ................
  405334:	ffff ffff ffff ffff ffff ffff ffff ffff     ................
  405344:	ffff ffff ffff ffff ffff ffff ffff ffff     ................
  405354:	ffff ffff ffff ffff ffff ffff ffff ffff     ................
  405364:	ffff ffff ffff ffff ffff ffff ffff ffff     ................
  405374:	ffff ffff ffff ffff ffff ffff ffff ffff     ................
  405384:	ffff ffff ffff ffff ffff ffff ffff ffff     ................
  405394:	ffff ffff ffff ffff ffff ffff ffff ffff     ................
  4053a4:	ffff ffff ffff ffff ffff ffff ffff ffff     ................
  4053b4:	ffff ffff ffff ffff ffff ffff ffff ffff     ................
  4053c4:	ffff ffff ffff ffff ffff ffff ffff ffff     ................
  4053d4:	ffff ffff ffff ffff ffff ffff ffff ffff     ................
  4053e4:	ffff ffff ffff ffff ffff ffff ffff ffff     ................
  4053f4:	ffff ffff ffff ffff ffff ffff ffff ffff     ................
  405404:	ffff ffff ffff ffff ffff ffff ffff ffff     ................
  405414:	ffff ffff ffff ffff ffff ffff ffff ffff     ................
  405424:	ffff ffff ffff ffff ffff ffff ffff ffff     ................
  405434:	ffff ffff ffff ffff ffff ffff ffff ffff     ................
  405444:	ffff ffff ffff ffff ffff ffff ffff ffff     ................
  405454:	ffff ffff ffff ffff ffff ffff ffff ffff     ................
  405464:	ffff ffff ffff ffff ffff ffff ffff ffff     ................
  405474:	ffff ffff ffff ffff ffff ffff ffff ffff     ................
  405484:	ffff ffff ffff ffff ffff ffff ffff ffff     ................
  405494:	ffff ffff ffff ffff ffff ffff ffff ffff     ................
  4054a4:	ffff ffff ffff ffff ffff ffff ffff ffff     ................
  4054b4:	ffff ffff ffff ffff ffff ffff ffff ffff     ................
  4054c4:	ffff ffff ffff ffff ffff ffff ffff ffff     ................
  4054d4:	ffff ffff ffff ffff ffff ffff ffff ffff     ................
  4054e4:	ffff ffff ffff ffff ffff ffff ffff ffff     ................
  4054f4:	ffff ffff ffff ffff ffff ffff ffff ffff     ................
  405504:	ffff ffff ffff ffff ffff ffff ffff ffff     ................
  405514:	ffff ffff ffff ffff ffff ffff ffff ffff     ................
  405524:	ffff ffff ffff ffff ffff ffff ffff ffff     ................
  405534:	ffff ffff ffff ffff ffff ffff ffff ffff     ................
  405544:	ffff ffff ffff ffff ffff ffff ffff ffff     ................
  405554:	ffff ffff ffff ffff ffff ffff ffff ffff     ................
  405564:	ffff ffff ffff ffff ffff ffff ffff ffff     ................
  405574:	ffff ffff ffff ffff ffff ffff ffff ffff     ................
  405584:	ffff ffff ffff ffff ffff ffff ffff ffff     ................
  405594:	ffff ffff ffff ffff ffff ffff ffff ffff     ................
  4055a4:	ffff ffff ffff ffff ffff ffff ffff ffff     ................
  4055b4:	ffff ffff ffff ffff ffff ffff ffff ffff     ................
  4055c4:	ffff ffff ffff ffff ffff ffff ffff ffff     ................
  4055d4:	ffff ffff ffff ffff ffff ffff ffff ffff     ................
  4055e4:	ffff ffff ffff ffff ffff ffff ffff ffff     ................
  4055f4:	ffff ffff ffff ffff ffff ffff ffff ffff     ................
  405604:	ffff ffff ffff ffff ffff ffff ffff ffff     ................
  405614:	ffff ffff ffff ffff ffff ffff ffff ffff     ................
  405624:	ffff ffff ffff ffff ffff ffff ffff ffff     ................
  405634:	ffff ffff ffff ffff ffff ffff ffff ffff     ................
  405644:	ffff ffff ffff ffff ffff ffff ffff ffff     ................
  405654:	ffff ffff ffff ffff ffff ffff ffff ffff     ................
  405664:	ffff ffff ffff ffff ffff ffff ffff ffff     ................
  405674:	ffff ffff ffff ffff ffff ffff ffff ffff     ................
  405684:	ffff ffff ffff ffff ffff ffff ffff ffff     ................
  405694:	ffff ffff ffff ffff ffff ffff ffff ffff     ................
  4056a4:	ffff ffff ffff ffff ffff ffff ffff ffff     ................
  4056b4:	ffff ffff ffff ffff ffff ffff ffff ffff     ................
  4056c4:	ffff ffff ffff ffff ffff ffff ffff ffff     ................
  4056d4:	ffff ffff ffff ffff ffff ffff ffff ffff     ................
  4056e4:	ffff ffff ffff ffff ffff ffff ffff ffff     ................
  4056f4:	ffff ffff ffff ffff ffff ffff ffff ffff     ................
  405704:	ffff ffff ffff ffff ffff ffff ffff ffff     ................
  405714:	ffff ffff ffff ffff ffff ffff ffff ffff     ................
  405724:	ffff ffff ffff ffff ffff ffff ffff ffff     ................
  405734:	ffff ffff ffff ffff ffff ffff ffff ffff     ................
  405744:	ffff ffff ffff ffff ffff ffff ffff ffff     ................
  405754:	ffff ffff ffff ffff ffff ffff ffff ffff     ................
  405764:	ffff ffff ffff ffff ffff ffff ffff ffff     ................
  405774:	ffff ffff ffff ffff ffff ffff ffff ffff     ................
  405784:	ffff ffff ffff ffff ffff ffff ffff ffff     ................
  405794:	ffff ffff ffff ffff ffff ffff ffff ffff     ................
  4057a4:	ffff ffff ffff ffff ffff ffff ffff ffff     ................
  4057b4:	ffff ffff ffff ffff ffff ffff ffff ffff     ................
  4057c4:	ffff ffff ffff ffff ffff ffff ffff ffff     ................
  4057d4:	ffff ffff ffff ffff ffff ffff ffff ffff     ................
  4057e4:	ffff ffff ffff ffff ffff ffff ffff ffff     ................
  4057f4:	ffff ffff ffff ffff ffff ffff ffff ffff     ................
  405804:	ffff ffff ffff ffff ffff ffff ffff ffff     ................
  405814:	ffff ffff ffff ffff ffff ffff ffff ffff     ................
  405824:	ffff ffff ffff ffff ffff ffff ffff ffff     ................
  405834:	ffff ffff ffff ffff ffff ffff ffff ffff     ................
  405844:	ffff ffff ffff ffff ffff ffff ffff ffff     ................
  405854:	ffff ffff ffff ffff ffff ffff ffff ffff     ................
  405864:	ffff ffff ffff ffff ffff ffff ffff ffff     ................
  405874:	ffff ffff ffff ffff ffff ffff ffff ffff     ................
  405884:	ffff ffff ffff ffff ffff ffff ffff ffff     ................
  405894:	ffff ffff ffff ffff ffff ffff ffff ffff     ................
  4058a4:	ffff ffff ffff ffff ffff ffff ffff ffff     ................
  4058b4:	ffff ffff ffff ffff ffff ffff ffff ffff     ................
  4058c4:	ffff ffff ffff ffff ffff ffff ffff ffff     ................
  4058d4:	ffff ffff ffff ffff ffff ffff ffff ffff     ................
  4058e4:	ffff ffff ffff ffff ffff ffff ffff ffff     ................
  4058f4:	ffff ffff ffff ffff ffff ffff ffff ffff     ................
  405904:	ffff ffff ffff ffff ffff ffff ffff ffff     ................
  405914:	ffff ffff ffff ffff ffff ffff ffff ffff     ................
  405924:	ffff ffff ffff ffff ffff ffff ffff ffff     ................
  405934:	ffff ffff ffff ffff ffff ffff ffff ffff     ................
  405944:	ffff ffff ffff ffff ffff ffff ffff ffff     ................
  405954:	ffff ffff ffff ffff ffff ffff ffff ffff     ................
  405964:	ffff ffff ffff ffff ffff ffff ffff ffff     ................
  405974:	ffff ffff ffff ffff ffff ffff ffff ffff     ................
  405984:	ffff ffff ffff ffff ffff ffff ffff ffff     ................
  405994:	ffff ffff ffff ffff ffff ffff ffff ffff     ................
  4059a4:	ffff ffff ffff ffff ffff ffff ffff ffff     ................
  4059b4:	ffff ffff ffff ffff ffff ffff ffff ffff     ................
  4059c4:	ffff ffff ffff ffff ffff ffff ffff ffff     ................
  4059d4:	ffff ffff ffff ffff ffff ffff ffff ffff     ................
  4059e4:	ffff ffff ffff ffff ffff ffff ffff ffff     ................
  4059f4:	ffff ffff ffff ffff ffff ffff ffff ffff     ................
  405a04:	ffff ffff ffff ffff ffff ffff ffff ffff     ................
  405a14:	ffff ffff ffff ffff ffff ffff ffff ffff     ................
  405a24:	ffff ffff ffff ffff ffff ffff ffff ffff     ................
  405a34:	ffff ffff ffff ffff ffff ffff ffff ffff     ................
  405a44:	ffff ffff ffff ffff ffff ffff ffff ffff     ................
  405a54:	ffff ffff ffff ffff ffff ffff ffff ffff     ................
  405a64:	ffff ffff ffff ffff ffff ffff ffff ffff     ................
  405a74:	ffff ffff ffff ffff ffff ffff ffff ffff     ................
  405a84:	ffff ffff ffff ffff ffff ffff ffff ffff     ................
  405a94:	ffff ffff ffff ffff ffff ffff ffff ffff     ................
  405aa4:	ffff ffff ffff ffff ffff ffff ffff ffff     ................
  405ab4:	ffff ffff ffff ffff ffff ffff ffff ffff     ................
  405ac4:	ffff ffff ffff ffff ffff ffff ffff ffff     ................
  405ad4:	ffff ffff ffff ffff ffff ffff ffff ffff     ................
  405ae4:	ffff ffff ffff ffff ffff ffff ffff ffff     ................
  405af4:	ffff ffff ffff ffff ffff ffff ffff ffff     ................
  405b04:	ffff ffff ffff ffff ffff ffff ffff ffff     ................
  405b14:	ffff ffff ffff ffff ffff ffff ffff ffff     ................
  405b24:	ffff ffff ffff ffff ffff ffff ffff ffff     ................
  405b34:	ffff ffff ffff ffff ffff ffff ffff ffff     ................
  405b44:	ffff ffff ffff ffff ffff ffff ffff ffff     ................
  405b54:	ffff ffff ffff ffff ffff ffff ffff ffff     ................
  405b64:	ffff ffff ffff ffff ffff ffff ffff ffff     ................
  405b74:	ffff ffff ffff ffff ffff ffff ffff ffff     ................
  405b84:	ffff ffff ffff ffff ffff ffff ffff ffff     ................
  405b94:	ffff ffff ffff ffff ffff ffff ffff ffff     ................
  405ba4:	ffff ffff ffff ffff ffff ffff ffff ffff     ................
  405bb4:	ffff ffff ffff ffff ffff ffff ffff ffff     ................
  405bc4:	ffff ffff ffff ffff ffff ffff ffff ffff     ................
  405bd4:	ffff ffff ffff ffff ffff ffff ffff ffff     ................
  405be4:	ffff ffff ffff ffff ffff ffff ffff ffff     ................
  405bf4:	ffff ffff ffff ffff ffff ffff ffff ffff     ................
  405c04:	ffff ffff ffff ffff ffff ffff ffff ffff     ................
  405c14:	ffff ffff ffff ffff ffff ffff ffff ffff     ................
  405c24:	ffff ffff ffff ffff ffff ffff ffff ffff     ................
  405c34:	ffff ffff ffff ffff ffff ffff ffff ffff     ................
  405c44:	ffff ffff ffff ffff ffff ffff ffff ffff     ................
  405c54:	ffff ffff ffff ffff ffff ffff ffff ffff     ................
  405c64:	ffff ffff ffff ffff ffff ffff ffff ffff     ................
  405c74:	ffff ffff ffff ffff ffff ffff ffff ffff     ................
  405c84:	ffff ffff ffff ffff ffff ffff ffff ffff     ................
  405c94:	ffff ffff ffff ffff ffff ffff ffff ffff     ................
  405ca4:	ffff ffff ffff ffff ffff ffff ffff ffff     ................
  405cb4:	ffff ffff ffff ffff ffff ffff ffff ffff     ................
  405cc4:	ffff ffff ffff ffff ffff ffff ffff ffff     ................
  405cd4:	ffff ffff ffff ffff ffff ffff ffff ffff     ................
  405ce4:	ffff ffff ffff ffff ffff ffff ffff ffff     ................
  405cf4:	ffff ffff ffff ffff ffff ffff ffff ffff     ................
  405d04:	ffff ffff ffff ffff ffff ffff ffff ffff     ................
  405d14:	ffff ffff ffff ffff ffff ffff ffff ffff     ................
  405d24:	ffff ffff ffff ffff ffff ffff ffff ffff     ................
  405d34:	ffff ffff ffff ffff ffff ffff ffff ffff     ................
  405d44:	ffff ffff ffff ffff ffff ffff ffff ffff     ................
  405d54:	ffff ffff ffff ffff ffff ffff ffff ffff     ................
  405d64:	ffff ffff ffff ffff ffff ffff ffff ffff     ................
  405d74:	ffff ffff ffff ffff ffff ffff ffff ffff     ................
  405d84:	ffff ffff ffff ffff ffff ffff ffff ffff     ................
  405d94:	ffff ffff ffff ffff ffff ffff ffff ffff     ................
  405da4:	ffff ffff ffff ffff ffff ffff ffff ffff     ................
  405db4:	ffff ffff ffff ffff ffff ffff ffff ffff     ................
  405dc4:	ffff ffff ffff ffff ffff ffff ffff ffff     ................
  405dd4:	ffff ffff ffff ffff ffff ffff ffff ffff     ................
  405de4:	ffff ffff ffff ffff ffff ffff ffff ffff     ................
  405df4:	ffff ffff ffff ffff ffff ffff ffff ffff     ................
  405e04:	ffff ffff ffff ffff ffff ffff ffff ffff     ................
  405e14:	ffff ffff ffff ffff ffff ffff ffff ffff     ................
  405e24:	ffff ffff ffff ffff ffff ffff ffff ffff     ................
  405e34:	ffff ffff ffff ffff ffff ffff ffff ffff     ................
  405e44:	ffff ffff ffff ffff ffff ffff ffff ffff     ................
  405e54:	ffff ffff ffff ffff ffff ffff ffff ffff     ................
  405e64:	ffff ffff ffff ffff ffff ffff ffff ffff     ................
  405e74:	ffff ffff ffff ffff ffff ffff ffff ffff     ................
  405e84:	ffff ffff ffff ffff ffff ffff ffff ffff     ................
  405e94:	ffff ffff ffff ffff ffff ffff ffff ffff     ................
  405ea4:	ffff ffff ffff ffff ffff ffff ffff ffff     ................
  405eb4:	ffff ffff ffff ffff ffff ffff ffff ffff     ................
  405ec4:	ffff ffff ffff ffff ffff ffff ffff ffff     ................
  405ed4:	ffff ffff ffff ffff ffff ffff ffff ffff     ................
  405ee4:	ffff ffff ffff ffff ffff ffff ffff ffff     ................
  405ef4:	ffff ffff ffff ffff ffff ffff ffff ffff     ................
  405f04:	ffff ffff ffff ffff ffff ffff ffff ffff     ................
  405f14:	ffff ffff ffff ffff ffff ffff ffff ffff     ................
  405f24:	ffff ffff ffff ffff ffff ffff ffff ffff     ................
  405f34:	ffff ffff ffff ffff ffff ffff ffff ffff     ................
  405f44:	ffff ffff ffff ffff ffff ffff ffff ffff     ................
  405f54:	ffff ffff ffff ffff ffff ffff ffff ffff     ................
  405f64:	ffff ffff ffff ffff ffff ffff ffff ffff     ................
  405f74:	ffff ffff ffff ffff ffff ffff ffff ffff     ................
  405f84:	ffff ffff ffff ffff ffff ffff ffff ffff     ................
  405f94:	ffff ffff ffff ffff ffff ffff ffff ffff     ................
  405fa4:	ffff ffff ffff ffff ffff ffff ffff ffff     ................
  405fb4:	ffff ffff ffff ffff ffff ffff ffff ffff     ................
  405fc4:	ffff ffff ffff ffff ffff ffff ffff ffff     ................
  405fd4:	ffff ffff ffff ffff ffff ffff ffff ffff     ................
  405fe4:	ffff ffff ffff ffff ffff ffff ffff ffff     ................
  405ff4:	ffff ffff ffff ffff ffff ffff ffff ffff     ................
  406004:	ffff ffff ffff ffff ffff ffff ffff ffff     ................
  406014:	ffff ffff ffff ffff ffff ffff ffff ffff     ................
  406024:	ffff ffff ffff ffff ffff ffff ffff ffff     ................
  406034:	ffff ffff ffff ffff ffff ffff ffff ffff     ................
  406044:	ffff ffff ffff ffff ffff ffff ffff ffff     ................
  406054:	ffff ffff ffff ffff ffff ffff ffff ffff     ................
  406064:	ffff ffff ffff ffff ffff ffff ffff ffff     ................
  406074:	ffff ffff ffff ffff ffff ffff ffff ffff     ................
  406084:	ffff ffff ffff ffff ffff ffff ffff ffff     ................
  406094:	ffff ffff ffff ffff ffff ffff ffff ffff     ................
  4060a4:	ffff ffff ffff ffff ffff ffff ffff ffff     ................
  4060b4:	ffff ffff ffff ffff ffff ffff ffff ffff     ................
  4060c4:	ffff ffff ffff ffff ffff ffff ffff ffff     ................
  4060d4:	ffff ffff ffff ffff ffff ffff ffff ffff     ................
  4060e4:	ffff ffff ffff ffff ffff ffff ffff ffff     ................
  4060f4:	ffff ffff ffff ffff ffff ffff ffff ffff     ................
  406104:	ffff ffff ffff ffff ffff ffff ffff ffff     ................
  406114:	ffff ffff ffff ffff ffff ffff ffff ffff     ................
  406124:	ffff ffff ffff ffff ffff ffff ffff ffff     ................
  406134:	ffff ffff ffff ffff ffff ffff ffff ffff     ................
  406144:	ffff ffff ffff ffff ffff ffff ffff ffff     ................
  406154:	ffff ffff ffff ffff ffff ffff ffff ffff     ................
  406164:	ffff ffff ffff ffff ffff ffff ffff ffff     ................
  406174:	ffff ffff ffff ffff ffff ffff ffff ffff     ................
  406184:	ffff ffff ffff ffff ffff ffff ffff ffff     ................
  406194:	ffff ffff ffff ffff ffff ffff ffff ffff     ................
  4061a4:	ffff ffff ffff ffff ffff ffff ffff ffff     ................
  4061b4:	ffff ffff ffff ffff ffff ffff ffff ffff     ................
  4061c4:	ffff ffff ffff ffff ffff ffff ffff ffff     ................
  4061d4:	ffff ffff ffff ffff ffff ffff ffff ffff     ................
  4061e4:	ffff ffff ffff ffff ffff ffff ffff ffff     ................
  4061f4:	ffff ffff ffff ffff ffff ffff ffff ffff     ................
  406204:	ffff ffff ffff ffff ffff ffff ffff ffff     ................
  406214:	ffff ffff ffff ffff ffff ffff ffff ffff     ................
  406224:	ffff ffff ffff ffff ffff ffff ffff ffff     ................
  406234:	ffff ffff ffff ffff ffff ffff ffff ffff     ................
  406244:	ffff ffff ffff ffff ffff ffff ffff ffff     ................
  406254:	ffff ffff ffff ffff ffff ffff ffff ffff     ................
  406264:	ffff ffff ffff ffff ffff ffff ffff ffff     ................
  406274:	ffff ffff ffff ffff ffff ffff ffff ffff     ................
  406284:	ffff ffff ffff ffff ffff ffff ffff ffff     ................
  406294:	ffff ffff ffff ffff ffff ffff ffff ffff     ................
  4062a4:	ffff ffff ffff ffff ffff ffff ffff ffff     ................
  4062b4:	ffff ffff ffff ffff ffff ffff ffff ffff     ................
  4062c4:	ffff ffff ffff ffff ffff ffff ffff ffff     ................
  4062d4:	ffff ffff ffff ffff ffff ffff ffff ffff     ................
  4062e4:	ffff ffff ffff ffff ffff ffff ffff ffff     ................
  4062f4:	ffff ffff ffff ffff ffff ffff ffff ffff     ................
  406304:	ffff ffff ffff ffff ffff ffff ffff ffff     ................
  406314:	ffff ffff ffff ffff ffff ffff ffff ffff     ................
  406324:	ffff ffff ffff ffff ffff ffff ffff ffff     ................
  406334:	ffff ffff ffff ffff ffff ffff ffff ffff     ................
  406344:	ffff ffff ffff ffff ffff ffff ffff ffff     ................
  406354:	ffff ffff ffff ffff ffff ffff ffff ffff     ................
  406364:	ffff ffff ffff ffff ffff ffff ffff ffff     ................
  406374:	ffff ffff ffff ffff ffff ffff ffff ffff     ................
  406384:	ffff ffff ffff ffff ffff ffff ffff ffff     ................
  406394:	ffff ffff ffff ffff ffff ffff ffff ffff     ................
  4063a4:	ffff ffff ffff ffff ffff ffff ffff ffff     ................
  4063b4:	ffff ffff ffff ffff ffff ffff ffff ffff     ................
  4063c4:	ffff ffff ffff ffff ffff ffff ffff ffff     ................
  4063d4:	ffff ffff ffff ffff ffff ffff ffff ffff     ................
  4063e4:	ffff ffff ffff ffff ffff ffff ffff ffff     ................
  4063f4:	ffff ffff ffff ffff ffff ffff ffff ffff     ................
  406404:	ffff ffff ffff ffff ffff ffff ffff ffff     ................
  406414:	ffff ffff ffff ffff ffff ffff ffff ffff     ................
  406424:	ffff ffff ffff ffff ffff ffff ffff ffff     ................
  406434:	ffff ffff ffff ffff ffff ffff ffff ffff     ................
  406444:	ffff ffff ffff ffff ffff ffff ffff ffff     ................
  406454:	ffff ffff ffff ffff ffff ffff ffff ffff     ................
  406464:	ffff ffff ffff ffff ffff ffff ffff ffff     ................
  406474:	ffff ffff ffff ffff ffff ffff ffff ffff     ................
  406484:	ffff ffff ffff ffff ffff ffff ffff ffff     ................
  406494:	ffff ffff ffff ffff ffff ffff ffff ffff     ................
  4064a4:	ffff ffff ffff ffff ffff ffff ffff ffff     ................
  4064b4:	ffff ffff ffff ffff ffff ffff ffff ffff     ................
  4064c4:	ffff ffff ffff ffff ffff ffff ffff ffff     ................
  4064d4:	ffff ffff ffff ffff ffff ffff ffff ffff     ................
  4064e4:	ffff ffff ffff ffff ffff ffff ffff ffff     ................
  4064f4:	ffff ffff ffff ffff ffff ffff ffff ffff     ................
  406504:	ffff ffff ffff ffff ffff ffff ffff ffff     ................
  406514:	ffff ffff ffff ffff ffff ffff ffff ffff     ................
  406524:	ffff ffff ffff ffff ffff ffff ffff ffff     ................
  406534:	ffff ffff ffff ffff ffff ffff ffff ffff     ................
  406544:	ffff ffff ffff ffff ffff ffff ffff ffff     ................
  406554:	ffff ffff ffff ffff ffff ffff ffff ffff     ................
  406564:	ffff ffff ffff ffff ffff ffff ffff ffff     ................
  406574:	ffff ffff ffff ffff ffff ffff ffff ffff     ................
  406584:	ffff ffff ffff ffff ffff ffff ffff ffff     ................
  406594:	ffff ffff ffff ffff ffff ffff ffff ffff     ................
  4065a4:	ffff ffff ffff ffff ffff ffff ffff ffff     ................
  4065b4:	ffff ffff ffff ffff ffff ffff ffff ffff     ................
  4065c4:	ffff ffff ffff ffff ffff ffff ffff ffff     ................
  4065d4:	ffff ffff ffff ffff ffff ffff ffff ffff     ................
  4065e4:	ffff ffff ffff ffff ffff ffff ffff ffff     ................
  4065f4:	ffff ffff ffff ffff ffff ffff ffff ffff     ................
  406604:	ffff ffff ffff ffff ffff ffff ffff ffff     ................
  406614:	ffff ffff ffff ffff ffff ffff ffff ffff     ................
  406624:	ffff ffff ffff ffff ffff ffff ffff ffff     ................
  406634:	ffff ffff ffff ffff ffff ffff ffff ffff     ................
  406644:	ffff ffff ffff ffff ffff ffff ffff ffff     ................
  406654:	ffff ffff ffff ffff ffff ffff ffff ffff     ................
  406664:	ffff ffff ffff ffff ffff ffff ffff ffff     ................
  406674:	ffff ffff ffff ffff ffff ffff ffff ffff     ................
  406684:	ffff ffff ffff ffff ffff ffff ffff ffff     ................
  406694:	ffff ffff ffff ffff ffff ffff ffff ffff     ................
  4066a4:	ffff ffff ffff ffff ffff ffff ffff ffff     ................
  4066b4:	ffff ffff ffff ffff ffff ffff ffff ffff     ................
  4066c4:	ffff ffff ffff ffff ffff ffff ffff ffff     ................
  4066d4:	ffff ffff ffff ffff ffff ffff ffff ffff     ................
  4066e4:	ffff ffff ffff ffff ffff ffff ffff ffff     ................
  4066f4:	ffff ffff ffff ffff ffff ffff ffff ffff     ................
  406704:	ffff ffff ffff ffff ffff ffff ffff ffff     ................
  406714:	ffff ffff ffff ffff ffff ffff ffff ffff     ................
  406724:	ffff ffff ffff ffff ffff ffff ffff ffff     ................
  406734:	ffff ffff ffff ffff ffff ffff ffff ffff     ................
  406744:	ffff ffff ffff ffff ffff ffff ffff ffff     ................
  406754:	ffff ffff ffff ffff ffff ffff ffff ffff     ................
  406764:	ffff ffff ffff ffff ffff ffff ffff ffff     ................
  406774:	ffff ffff ffff ffff ffff ffff ffff ffff     ................
  406784:	ffff ffff ffff ffff ffff ffff ffff ffff     ................
  406794:	ffff ffff ffff ffff ffff ffff ffff ffff     ................
  4067a4:	ffff ffff ffff ffff ffff ffff ffff ffff     ................
  4067b4:	ffff ffff ffff ffff ffff ffff ffff ffff     ................
  4067c4:	ffff ffff ffff ffff ffff ffff ffff ffff     ................
  4067d4:	ffff ffff ffff ffff ffff ffff ffff ffff     ................
  4067e4:	ffff ffff ffff ffff ffff ffff ffff ffff     ................
  4067f4:	ffff ffff ffff ffff ffff ffff ffff ffff     ................
  406804:	ffff ffff ffff ffff ffff ffff ffff ffff     ................
  406814:	ffff ffff ffff ffff ffff ffff ffff ffff     ................
  406824:	ffff ffff ffff ffff ffff ffff ffff ffff     ................
  406834:	ffff ffff ffff ffff ffff ffff ffff ffff     ................
  406844:	ffff ffff ffff ffff ffff ffff ffff ffff     ................
  406854:	ffff ffff ffff ffff ffff ffff ffff ffff     ................
  406864:	ffff ffff ffff ffff ffff ffff ffff ffff     ................
  406874:	ffff ffff ffff ffff ffff ffff ffff ffff     ................
  406884:	ffff ffff ffff ffff ffff ffff ffff ffff     ................
  406894:	ffff ffff ffff ffff ffff ffff ffff ffff     ................
  4068a4:	ffff ffff ffff ffff ffff ffff ffff ffff     ................
  4068b4:	ffff ffff ffff ffff ffff ffff ffff ffff     ................
  4068c4:	ffff ffff ffff ffff ffff ffff ffff ffff     ................
  4068d4:	ffff ffff ffff ffff ffff ffff ffff ffff     ................
  4068e4:	ffff ffff ffff ffff ffff ffff ffff ffff     ................
  4068f4:	ffff ffff ffff ffff ffff ffff ffff ffff     ................
  406904:	ffff ffff ffff ffff ffff ffff ffff ffff     ................
  406914:	ffff ffff ffff ffff ffff ffff ffff ffff     ................
  406924:	ffff ffff ffff ffff ffff ffff ffff ffff     ................
  406934:	ffff ffff ffff ffff ffff ffff ffff ffff     ................
  406944:	ffff ffff ffff ffff ffff ffff ffff ffff     ................
  406954:	ffff ffff ffff ffff ffff ffff ffff ffff     ................
  406964:	ffff ffff ffff ffff ffff ffff ffff ffff     ................
  406974:	ffff ffff ffff ffff ffff ffff ffff ffff     ................
  406984:	ffff ffff ffff ffff ffff ffff ffff ffff     ................
  406994:	ffff ffff ffff ffff ffff ffff ffff ffff     ................
  4069a4:	ffff ffff ffff ffff ffff ffff ffff ffff     ................
  4069b4:	ffff ffff ffff ffff ffff ffff ffff ffff     ................
  4069c4:	ffff ffff ffff ffff ffff ffff ffff ffff     ................
  4069d4:	ffff ffff ffff ffff ffff ffff ffff ffff     ................
  4069e4:	ffff ffff ffff ffff ffff ffff ffff ffff     ................
  4069f4:	ffff ffff ffff ffff ffff ffff ffff ffff     ................
  406a04:	ffff ffff ffff ffff ffff ffff ffff ffff     ................
  406a14:	ffff ffff ffff ffff ffff ffff ffff ffff     ................
  406a24:	ffff ffff ffff ffff ffff ffff ffff ffff     ................
  406a34:	ffff ffff ffff ffff ffff ffff ffff ffff     ................
  406a44:	ffff ffff ffff ffff ffff ffff ffff ffff     ................
  406a54:	ffff ffff ffff ffff ffff ffff ffff ffff     ................
  406a64:	ffff ffff ffff ffff ffff ffff ffff ffff     ................
  406a74:	ffff ffff ffff ffff ffff ffff ffff ffff     ................
  406a84:	ffff ffff ffff ffff ffff ffff ffff ffff     ................
  406a94:	ffff ffff ffff ffff ffff ffff ffff ffff     ................
  406aa4:	ffff ffff ffff ffff ffff ffff ffff ffff     ................
  406ab4:	ffff ffff ffff ffff ffff ffff ffff ffff     ................
  406ac4:	ffff ffff ffff ffff ffff ffff ffff ffff     ................
  406ad4:	ffff ffff ffff ffff ffff ffff ffff ffff     ................
  406ae4:	ffff ffff ffff ffff ffff ffff ffff ffff     ................
  406af4:	ffff ffff ffff ffff ffff ffff ffff ffff     ................
  406b04:	ffff ffff ffff ffff ffff ffff ffff ffff     ................
  406b14:	ffff ffff ffff ffff ffff ffff ffff ffff     ................
  406b24:	ffff ffff ffff ffff ffff ffff ffff ffff     ................
  406b34:	ffff ffff ffff ffff ffff ffff ffff ffff     ................
  406b44:	ffff ffff ffff ffff ffff ffff ffff ffff     ................
  406b54:	ffff ffff ffff ffff ffff ffff ffff ffff     ................
  406b64:	ffff ffff ffff ffff ffff ffff ffff ffff     ................
  406b74:	ffff ffff ffff ffff ffff ffff ffff ffff     ................
  406b84:	ffff ffff ffff ffff ffff ffff ffff ffff     ................
  406b94:	ffff ffff ffff ffff ffff ffff ffff ffff     ................
  406ba4:	ffff ffff ffff ffff ffff ffff ffff ffff     ................
  406bb4:	ffff ffff ffff ffff ffff ffff ffff ffff     ................
  406bc4:	ffff ffff ffff ffff ffff ffff ffff ffff     ................
  406bd4:	ffff ffff ffff ffff ffff ffff ffff ffff     ................
  406be4:	ffff ffff ffff ffff ffff ffff ffff ffff     ................
  406bf4:	ffff ffff ffff ffff ffff ffff ffff ffff     ................
  406c04:	ffff ffff ffff ffff ffff ffff ffff ffff     ................
  406c14:	ffff ffff ffff ffff ffff ffff ffff ffff     ................
  406c24:	ffff ffff ffff ffff ffff ffff ffff ffff     ................
  406c34:	ffff ffff ffff ffff ffff ffff ffff ffff     ................
  406c44:	ffff ffff ffff ffff ffff ffff ffff ffff     ................
  406c54:	ffff ffff ffff ffff ffff ffff ffff ffff     ................
  406c64:	ffff ffff ffff ffff ffff ffff ffff ffff     ................
  406c74:	ffff ffff ffff ffff ffff ffff ffff ffff     ................
  406c84:	ffff ffff ffff ffff ffff ffff ffff ffff     ................
  406c94:	ffff ffff ffff ffff ffff ffff ffff ffff     ................
  406ca4:	ffff ffff ffff ffff ffff ffff ffff ffff     ................
  406cb4:	ffff ffff ffff ffff ffff ffff ffff ffff     ................
  406cc4:	ffff ffff ffff ffff ffff ffff ffff ffff     ................
  406cd4:	ffff ffff ffff ffff ffff ffff ffff ffff     ................
  406ce4:	ffff ffff ffff ffff ffff ffff ffff ffff     ................
  406cf4:	ffff ffff ffff ffff ffff ffff ffff ffff     ................
  406d04:	ffff ffff ffff ffff ffff ffff ffff ffff     ................
  406d14:	ffff ffff ffff ffff ffff ffff ffff ffff     ................
  406d24:	ffff ffff ffff ffff ffff ffff ffff ffff     ................
  406d34:	ffff ffff ffff ffff ffff ffff ffff ffff     ................
  406d44:	ffff ffff ffff ffff ffff ffff ffff ffff     ................
  406d54:	ffff ffff ffff ffff ffff ffff ffff ffff     ................
  406d64:	ffff ffff ffff ffff ffff ffff ffff ffff     ................
  406d74:	ffff ffff ffff ffff ffff ffff ffff ffff     ................
  406d84:	ffff ffff ffff ffff ffff ffff ffff ffff     ................
  406d94:	ffff ffff ffff ffff ffff ffff ffff ffff     ................
  406da4:	ffff ffff ffff ffff ffff ffff ffff ffff     ................
  406db4:	ffff ffff ffff ffff ffff ffff ffff ffff     ................
  406dc4:	ffff ffff ffff ffff ffff ffff ffff ffff     ................
  406dd4:	ffff ffff ffff ffff ffff ffff ffff ffff     ................
  406de4:	ffff ffff ffff ffff ffff ffff ffff ffff     ................
  406df4:	ffff ffff ffff ffff ffff ffff ffff ffff     ................
  406e04:	ffff ffff ffff ffff ffff ffff ffff ffff     ................
  406e14:	ffff ffff ffff ffff ffff ffff ffff ffff     ................
  406e24:	ffff ffff ffff ffff ffff ffff ffff ffff     ................
  406e34:	ffff ffff ffff ffff ffff ffff ffff ffff     ................
  406e44:	ffff ffff ffff ffff ffff ffff ffff ffff     ................
  406e54:	ffff ffff ffff ffff ffff ffff ffff ffff     ................
  406e64:	ffff ffff ffff ffff ffff ffff ffff ffff     ................
  406e74:	ffff ffff ffff ffff ffff ffff ffff ffff     ................
  406e84:	ffff ffff ffff ffff ffff ffff ffff ffff     ................
  406e94:	ffff ffff ffff ffff ffff ffff ffff ffff     ................
  406ea4:	ffff ffff ffff ffff ffff ffff ffff ffff     ................
  406eb4:	ffff ffff ffff ffff ffff ffff ffff ffff     ................
  406ec4:	ffff ffff ffff ffff ffff ffff ffff ffff     ................
  406ed4:	ffff ffff ffff ffff ffff ffff ffff ffff     ................
  406ee4:	ffff ffff ffff ffff ffff ffff ffff ffff     ................
  406ef4:	ffff ffff ffff ffff ffff ffff ffff ffff     ................
  406f04:	ffff ffff ffff ffff ffff ffff ffff ffff     ................
  406f14:	ffff ffff ffff ffff ffff ffff ffff ffff     ................
  406f24:	ffff ffff ffff ffff ffff ffff ffff ffff     ................
  406f34:	ffff ffff ffff ffff ffff ffff ffff ffff     ................
  406f44:	ffff ffff ffff ffff ffff ffff ffff ffff     ................
  406f54:	ffff ffff ffff ffff ffff ffff ffff ffff     ................
  406f64:	ffff ffff ffff ffff ffff ffff ffff ffff     ................
  406f74:	ffff ffff ffff ffff ffff ffff ffff ffff     ................
  406f84:	ffff ffff ffff ffff ffff ffff ffff ffff     ................
  406f94:	ffff ffff ffff ffff ffff ffff ffff ffff     ................
  406fa4:	ffff ffff ffff ffff ffff ffff ffff ffff     ................
  406fb4:	ffff ffff ffff ffff ffff ffff ffff ffff     ................
  406fc4:	ffff ffff ffff ffff ffff ffff ffff ffff     ................
  406fd4:	ffff ffff ffff ffff ffff ffff ffff ffff     ................
  406fe4:	ffff ffff ffff ffff ffff ffff ffff ffff     ................
  406ff4:	ffff ffff ffff ffff ffff ffff ffff ffff     ................
  407004:	ffff ffff ffff ffff ffff ffff ffff ffff     ................
  407014:	ffff ffff ffff ffff ffff ffff ffff ffff     ................
  407024:	ffff ffff ffff ffff ffff ffff ffff ffff     ................
  407034:	ffff ffff ffff ffff ffff ffff ffff ffff     ................
  407044:	ffff ffff ffff ffff ffff ffff ffff ffff     ................
  407054:	ffff ffff ffff ffff ffff ffff ffff ffff     ................
  407064:	ffff ffff ffff ffff ffff ffff ffff ffff     ................
  407074:	ffff ffff ffff ffff ffff ffff ffff ffff     ................
  407084:	ffff ffff ffff ffff ffff ffff ffff ffff     ................
  407094:	ffff ffff ffff ffff ffff ffff ffff ffff     ................
  4070a4:	ffff ffff ffff ffff ffff ffff ffff ffff     ................
  4070b4:	ffff ffff ffff ffff ffff ffff ffff ffff     ................
  4070c4:	ffff ffff ffff ffff ffff ffff ffff ffff     ................
  4070d4:	ffff ffff ffff ffff ffff ffff ffff ffff     ................
  4070e4:	ffff ffff ffff ffff ffff ffff ffff ffff     ................
  4070f4:	ffff ffff ffff ffff ffff ffff ffff ffff     ................
  407104:	ffff ffff ffff ffff ffff ffff ffff ffff     ................
  407114:	ffff ffff ffff ffff ffff ffff ffff ffff     ................
  407124:	ffff ffff ffff ffff ffff ffff ffff ffff     ................
  407134:	ffff ffff ffff ffff ffff ffff ffff ffff     ................
  407144:	ffff ffff ffff ffff ffff ffff ffff ffff     ................
  407154:	ffff ffff ffff ffff ffff ffff ffff ffff     ................
  407164:	ffff ffff ffff ffff ffff ffff ffff ffff     ................
  407174:	ffff ffff ffff ffff ffff ffff ffff ffff     ................
  407184:	ffff ffff ffff ffff ffff ffff ffff ffff     ................
  407194:	ffff ffff ffff ffff ffff ffff ffff ffff     ................
  4071a4:	ffff ffff ffff ffff ffff ffff ffff ffff     ................
  4071b4:	ffff ffff ffff ffff ffff ffff ffff ffff     ................
  4071c4:	ffff ffff ffff ffff ffff ffff ffff ffff     ................
  4071d4:	ffff ffff ffff ffff ffff ffff ffff ffff     ................
  4071e4:	ffff ffff ffff ffff ffff ffff ffff ffff     ................
  4071f4:	ffff ffff ffff ffff ffff ffff ffff ffff     ................
  407204:	ffff ffff ffff ffff ffff ffff ffff ffff     ................
  407214:	ffff ffff ffff ffff ffff ffff ffff ffff     ................
  407224:	ffff ffff ffff ffff ffff ffff ffff ffff     ................
  407234:	ffff ffff ffff ffff ffff ffff ffff ffff     ................
  407244:	ffff ffff ffff ffff ffff ffff ffff ffff     ................
  407254:	ffff ffff ffff ffff ffff ffff ffff ffff     ................
  407264:	ffff ffff ffff ffff ffff ffff ffff ffff     ................
  407274:	ffff ffff ffff ffff ffff ffff ffff ffff     ................
  407284:	ffff ffff ffff ffff ffff ffff ffff ffff     ................
  407294:	ffff ffff ffff ffff ffff ffff ffff ffff     ................
  4072a4:	ffff ffff ffff ffff ffff ffff ffff ffff     ................
  4072b4:	ffff ffff ffff ffff ffff ffff ffff ffff     ................
  4072c4:	ffff ffff ffff ffff ffff ffff ffff ffff     ................
  4072d4:	ffff ffff ffff ffff ffff ffff ffff ffff     ................
  4072e4:	ffff ffff ffff ffff ffff ffff ffff ffff     ................
  4072f4:	ffff ffff ffff ffff ffff ffff ffff ffff     ................
  407304:	ffff ffff ffff ffff ffff ffff ffff ffff     ................
  407314:	ffff ffff ffff ffff ffff ffff ffff ffff     ................
  407324:	ffff ffff ffff ffff ffff ffff ffff ffff     ................
  407334:	ffff ffff ffff ffff ffff ffff ffff ffff     ................
  407344:	ffff ffff ffff ffff ffff ffff ffff ffff     ................
  407354:	ffff ffff ffff ffff ffff ffff ffff ffff     ................
  407364:	ffff ffff ffff ffff ffff ffff ffff ffff     ................
  407374:	ffff ffff ffff ffff ffff ffff ffff ffff     ................
  407384:	ffff ffff ffff ffff ffff ffff ffff ffff     ................
  407394:	ffff ffff ffff ffff ffff ffff ffff ffff     ................
  4073a4:	ffff ffff ffff ffff ffff ffff ffff ffff     ................
  4073b4:	ffff ffff ffff ffff ffff ffff ffff ffff     ................
  4073c4:	ffff ffff ffff ffff ffff ffff ffff ffff     ................
  4073d4:	ffff ffff ffff ffff ffff ffff ffff ffff     ................
  4073e4:	ffff ffff ffff ffff ffff ffff ffff ffff     ................
  4073f4:	ffff ffff ffff ffff ffff ffff ffff ffff     ................
  407404:	ffff ffff ffff ffff ffff ffff ffff ffff     ................
  407414:	ffff ffff ffff ffff ffff ffff ffff ffff     ................
  407424:	ffff ffff ffff ffff ffff ffff ffff ffff     ................
  407434:	ffff ffff ffff ffff ffff ffff ffff ffff     ................
  407444:	ffff ffff ffff ffff ffff ffff ffff ffff     ................
  407454:	ffff ffff ffff ffff ffff ffff ffff ffff     ................
  407464:	ffff ffff ffff ffff ffff ffff ffff ffff     ................
  407474:	ffff ffff ffff ffff ffff ffff ffff ffff     ................
  407484:	ffff ffff ffff ffff ffff ffff ffff ffff     ................
  407494:	ffff ffff ffff ffff ffff ffff ffff ffff     ................
  4074a4:	ffff ffff ffff ffff ffff ffff ffff ffff     ................
  4074b4:	ffff ffff ffff ffff ffff ffff ffff ffff     ................
  4074c4:	ffff ffff ffff ffff ffff ffff ffff ffff     ................
  4074d4:	ffff ffff ffff ffff ffff ffff ffff ffff     ................
  4074e4:	ffff ffff ffff ffff ffff ffff ffff ffff     ................
  4074f4:	ffff ffff ffff ffff ffff ffff ffff ffff     ................
  407504:	ffff ffff ffff ffff ffff ffff ffff ffff     ................
  407514:	ffff ffff ffff ffff ffff ffff ffff ffff     ................
  407524:	ffff ffff ffff ffff ffff ffff ffff ffff     ................
  407534:	ffff ffff ffff ffff ffff ffff ffff ffff     ................
  407544:	ffff ffff ffff ffff ffff ffff ffff ffff     ................
  407554:	ffff ffff ffff ffff ffff ffff ffff ffff     ................
  407564:	ffff ffff ffff ffff ffff ffff ffff ffff     ................
  407574:	ffff ffff ffff ffff ffff ffff ffff ffff     ................
  407584:	ffff ffff ffff ffff ffff ffff ffff ffff     ................
  407594:	ffff ffff ffff ffff ffff ffff ffff ffff     ................
  4075a4:	ffff ffff ffff ffff ffff ffff ffff ffff     ................
  4075b4:	ffff ffff ffff ffff ffff ffff ffff ffff     ................
  4075c4:	ffff ffff ffff ffff ffff ffff ffff ffff     ................
  4075d4:	ffff ffff ffff ffff ffff ffff ffff ffff     ................
  4075e4:	ffff ffff ffff ffff ffff ffff ffff ffff     ................
  4075f4:	ffff ffff ffff ffff ffff ffff ffff ffff     ................
  407604:	ffff ffff ffff ffff ffff ffff ffff ffff     ................
  407614:	ffff ffff ffff ffff ffff ffff ffff ffff     ................
  407624:	ffff ffff ffff ffff ffff ffff ffff ffff     ................
  407634:	ffff ffff ffff ffff ffff ffff ffff ffff     ................
  407644:	ffff ffff ffff ffff ffff ffff ffff ffff     ................
  407654:	ffff ffff ffff ffff ffff ffff ffff ffff     ................
  407664:	ffff ffff ffff ffff ffff ffff ffff ffff     ................
  407674:	ffff ffff ffff ffff ffff ffff ffff ffff     ................
  407684:	ffff ffff ffff ffff ffff ffff ffff ffff     ................
  407694:	ffff ffff ffff ffff ffff ffff ffff ffff     ................
  4076a4:	ffff ffff ffff ffff ffff ffff ffff ffff     ................
  4076b4:	ffff ffff ffff ffff ffff ffff ffff ffff     ................
  4076c4:	ffff ffff ffff ffff ffff ffff ffff ffff     ................
  4076d4:	ffff ffff ffff ffff ffff ffff ffff ffff     ................
  4076e4:	ffff ffff ffff ffff ffff ffff ffff ffff     ................
  4076f4:	ffff ffff ffff ffff ffff ffff ffff ffff     ................
  407704:	ffff ffff ffff ffff ffff ffff ffff ffff     ................
  407714:	ffff ffff ffff ffff ffff ffff ffff ffff     ................
  407724:	ffff ffff ffff ffff ffff ffff ffff ffff     ................
  407734:	ffff ffff ffff ffff ffff ffff ffff ffff     ................
  407744:	ffff ffff ffff ffff ffff ffff ffff ffff     ................
  407754:	ffff ffff ffff ffff ffff ffff ffff ffff     ................
  407764:	ffff ffff ffff ffff ffff ffff ffff ffff     ................
  407774:	ffff ffff ffff ffff ffff ffff ffff ffff     ................
  407784:	ffff ffff ffff ffff ffff ffff ffff ffff     ................
  407794:	ffff ffff ffff ffff ffff ffff ffff ffff     ................
  4077a4:	ffff ffff ffff ffff ffff ffff ffff ffff     ................
  4077b4:	ffff ffff ffff ffff ffff ffff ffff ffff     ................
  4077c4:	ffff ffff ffff ffff ffff ffff ffff ffff     ................
  4077d4:	ffff ffff ffff ffff ffff ffff ffff ffff     ................
  4077e4:	ffff ffff ffff ffff ffff ffff ffff ffff     ................
  4077f4:	ffff ffff ffff ffff ffff ffff ffff ffff     ................
  407804:	ffff ffff ffff ffff ffff ffff ffff ffff     ................
  407814:	ffff ffff ffff ffff ffff ffff ffff ffff     ................
  407824:	ffff ffff ffff ffff ffff ffff ffff ffff     ................
  407834:	ffff ffff ffff ffff ffff ffff ffff ffff     ................
  407844:	ffff ffff ffff ffff ffff ffff ffff ffff     ................
  407854:	ffff ffff ffff ffff ffff ffff ffff ffff     ................
  407864:	ffff ffff ffff ffff ffff ffff ffff ffff     ................
  407874:	ffff ffff ffff ffff ffff ffff ffff ffff     ................
  407884:	ffff ffff ffff ffff ffff ffff ffff ffff     ................
  407894:	ffff ffff ffff ffff ffff ffff ffff ffff     ................
  4078a4:	ffff ffff ffff ffff ffff ffff ffff ffff     ................
  4078b4:	ffff ffff ffff ffff ffff ffff ffff ffff     ................
  4078c4:	ffff ffff ffff ffff ffff ffff ffff ffff     ................
  4078d4:	ffff ffff ffff ffff ffff ffff ffff ffff     ................
  4078e4:	ffff ffff ffff ffff ffff ffff ffff ffff     ................
  4078f4:	ffff ffff ffff ffff ffff ffff ffff ffff     ................
  407904:	ffff ffff ffff ffff ffff ffff ffff ffff     ................
  407914:	ffff ffff ffff ffff ffff ffff ffff ffff     ................
  407924:	ffff ffff ffff ffff ffff ffff ffff ffff     ................
  407934:	ffff ffff ffff ffff ffff ffff ffff ffff     ................
  407944:	ffff ffff ffff ffff ffff ffff ffff ffff     ................
  407954:	ffff ffff ffff ffff ffff ffff ffff ffff     ................
  407964:	ffff ffff ffff ffff ffff ffff ffff ffff     ................
  407974:	ffff ffff ffff ffff ffff ffff ffff ffff     ................
  407984:	ffff ffff ffff ffff ffff ffff ffff ffff     ................
  407994:	ffff ffff ffff ffff ffff ffff ffff ffff     ................
  4079a4:	ffff ffff ffff ffff ffff ffff ffff ffff     ................
  4079b4:	ffff ffff ffff ffff ffff ffff ffff ffff     ................
  4079c4:	ffff ffff ffff ffff ffff ffff ffff ffff     ................
  4079d4:	ffff ffff ffff ffff ffff ffff ffff ffff     ................
  4079e4:	ffff ffff ffff ffff ffff ffff ffff ffff     ................
  4079f4:	ffff ffff ffff ffff ffff ffff ffff ffff     ................
  407a04:	ffff ffff ffff ffff ffff ffff ffff ffff     ................
  407a14:	ffff ffff ffff ffff ffff ffff ffff ffff     ................
  407a24:	ffff ffff ffff ffff ffff ffff ffff ffff     ................
  407a34:	ffff ffff ffff ffff ffff ffff ffff ffff     ................
  407a44:	ffff ffff ffff ffff ffff ffff ffff ffff     ................
  407a54:	ffff ffff ffff ffff ffff ffff ffff ffff     ................
  407a64:	ffff ffff ffff ffff ffff ffff ffff ffff     ................
  407a74:	ffff ffff ffff ffff ffff ffff ffff ffff     ................
  407a84:	ffff ffff ffff ffff ffff ffff ffff ffff     ................
  407a94:	ffff ffff ffff ffff ffff ffff ffff ffff     ................
  407aa4:	ffff ffff ffff ffff ffff ffff ffff ffff     ................
  407ab4:	ffff ffff ffff ffff ffff ffff ffff ffff     ................
  407ac4:	ffff ffff ffff ffff ffff ffff ffff ffff     ................
  407ad4:	ffff ffff ffff ffff ffff ffff ffff ffff     ................
  407ae4:	ffff ffff ffff ffff ffff ffff ffff ffff     ................
  407af4:	ffff ffff ffff ffff ffff ffff ffff ffff     ................
  407b04:	ffff ffff ffff ffff ffff ffff ffff ffff     ................
  407b14:	ffff ffff ffff ffff ffff ffff ffff ffff     ................
  407b24:	ffff ffff ffff ffff ffff ffff ffff ffff     ................
  407b34:	ffff ffff ffff ffff ffff ffff ffff ffff     ................
  407b44:	ffff ffff ffff ffff ffff ffff ffff ffff     ................
  407b54:	ffff ffff ffff ffff ffff ffff ffff ffff     ................
  407b64:	ffff ffff ffff ffff ffff ffff ffff ffff     ................
  407b74:	ffff ffff ffff ffff ffff ffff ffff ffff     ................
  407b84:	ffff ffff ffff ffff ffff ffff ffff ffff     ................
  407b94:	ffff ffff ffff ffff ffff ffff ffff ffff     ................
  407ba4:	ffff ffff ffff ffff ffff ffff ffff ffff     ................
  407bb4:	ffff ffff ffff ffff ffff ffff ffff ffff     ................
  407bc4:	ffff ffff ffff ffff ffff ffff ffff ffff     ................
  407bd4:	ffff ffff ffff ffff ffff ffff ffff ffff     ................
  407be4:	ffff ffff ffff ffff ffff ffff ffff ffff     ................
  407bf4:	ffff ffff ffff ffff ffff ffff ffff ffff     ................
  407c04:	ffff ffff ffff ffff ffff ffff ffff ffff     ................
  407c14:	ffff ffff ffff ffff ffff ffff ffff ffff     ................
  407c24:	ffff ffff ffff ffff ffff ffff ffff ffff     ................
  407c34:	ffff ffff ffff ffff ffff ffff ffff ffff     ................
  407c44:	ffff ffff ffff ffff ffff ffff ffff ffff     ................
  407c54:	ffff ffff ffff ffff ffff ffff ffff ffff     ................
  407c64:	ffff ffff ffff ffff ffff ffff ffff ffff     ................
  407c74:	ffff ffff ffff ffff ffff ffff ffff ffff     ................
  407c84:	ffff ffff ffff ffff ffff ffff ffff ffff     ................
  407c94:	ffff ffff ffff ffff ffff ffff ffff ffff     ................
  407ca4:	ffff ffff ffff ffff ffff ffff ffff ffff     ................
  407cb4:	ffff ffff ffff ffff ffff ffff ffff ffff     ................
  407cc4:	ffff ffff ffff ffff ffff ffff ffff ffff     ................
  407cd4:	ffff ffff ffff ffff ffff ffff ffff ffff     ................
  407ce4:	ffff ffff ffff ffff ffff ffff ffff ffff     ................
  407cf4:	ffff ffff ffff ffff ffff ffff ffff ffff     ................
  407d04:	ffff ffff ffff ffff ffff ffff ffff ffff     ................
  407d14:	ffff ffff ffff ffff ffff ffff ffff ffff     ................
  407d24:	ffff ffff ffff ffff ffff ffff ffff ffff     ................
  407d34:	ffff ffff ffff ffff ffff ffff ffff ffff     ................
  407d44:	ffff ffff ffff ffff ffff ffff ffff ffff     ................
  407d54:	ffff ffff ffff ffff ffff ffff ffff ffff     ................
  407d64:	ffff ffff ffff ffff ffff ffff ffff ffff     ................
  407d74:	ffff ffff ffff ffff ffff ffff ffff ffff     ................
  407d84:	ffff ffff ffff ffff ffff ffff ffff ffff     ................
  407d94:	ffff ffff ffff ffff ffff ffff ffff ffff     ................
  407da4:	ffff ffff ffff ffff ffff ffff ffff ffff     ................
  407db4:	ffff ffff ffff ffff ffff ffff ffff ffff     ................
  407dc4:	ffff ffff ffff ffff ffff ffff ffff ffff     ................
  407dd4:	ffff ffff ffff ffff ffff ffff ffff ffff     ................
  407de4:	ffff ffff ffff ffff ffff ffff ffff ffff     ................
  407df4:	ffff ffff ffff ffff ffff ffff ffff ffff     ................
  407e04:	ffff ffff ffff ffff ffff ffff ffff ffff     ................
  407e14:	ffff ffff ffff ffff ffff ffff ffff ffff     ................
  407e24:	ffff ffff ffff ffff ffff ffff ffff ffff     ................
  407e34:	ffff ffff ffff ffff ffff ffff ffff ffff     ................
  407e44:	ffff ffff ffff ffff ffff ffff ffff ffff     ................
  407e54:	ffff ffff ffff ffff ffff ffff ffff ffff     ................
  407e64:	ffff ffff ffff ffff ffff ffff ffff ffff     ................
  407e74:	ffff ffff ffff ffff ffff ffff ffff ffff     ................
  407e84:	ffff ffff ffff ffff ffff ffff ffff ffff     ................
  407e94:	ffff ffff ffff ffff ffff ffff ffff ffff     ................
  407ea4:	ffff ffff ffff ffff ffff ffff ffff ffff     ................
  407eb4:	ffff ffff ffff ffff ffff ffff ffff ffff     ................
  407ec4:	ffff ffff ffff ffff ffff ffff ffff ffff     ................
  407ed4:	ffff ffff ffff ffff ffff ffff ffff ffff     ................
  407ee4:	ffff ffff ffff ffff ffff ffff ffff ffff     ................
  407ef4:	ffff ffff ffff ffff ffff ffff ffff ffff     ................
  407f04:	ffff ffff ffff ffff ffff ffff ffff ffff     ................
  407f14:	ffff ffff ffff ffff ffff ffff ffff ffff     ................
  407f24:	ffff ffff ffff ffff ffff ffff ffff ffff     ................
  407f34:	ffff ffff ffff ffff ffff ffff ffff ffff     ................
  407f44:	ffff ffff ffff ffff ffff ffff ffff ffff     ................
  407f54:	ffff ffff ffff ffff ffff ffff ffff ffff     ................
  407f64:	ffff ffff ffff ffff ffff ffff ffff ffff     ................
  407f74:	ffff ffff ffff ffff ffff ffff ffff ffff     ................
  407f84:	ffff ffff ffff ffff ffff ffff ffff ffff     ................
  407f94:	ffff ffff ffff ffff ffff ffff ffff ffff     ................
  407fa4:	ffff ffff ffff ffff ffff ffff ffff ffff     ................
  407fb4:	ffff ffff ffff ffff ffff ffff ffff ffff     ................
  407fc4:	ffff ffff ffff ffff ffff ffff ffff ffff     ................
  407fd4:	ffff ffff ffff ffff ffff ffff ffff ffff     ................
  407fe4:	ffff ffff ffff ffff ffff ffff ffff ffff     ................
  407ff4:	ffff ffff ffff ffff ffff ffff ffff ffff     ................
  408004:	ffff ffff ffff ffff ffff ffff ffff ffff     ................
  408014:	ffff ffff ffff ffff ffff ffff ffff ffff     ................
  408024:	ffff ffff ffff ffff ffff ffff ffff ffff     ................
  408034:	ffff ffff ffff ffff ffff ffff ffff ffff     ................
  408044:	ffff ffff ffff ffff ffff ffff ffff ffff     ................
  408054:	ffff ffff ffff ffff ffff ffff ffff ffff     ................
  408064:	ffff ffff ffff ffff ffff ffff ffff ffff     ................
  408074:	ffff ffff ffff ffff ffff ffff ffff ffff     ................
  408084:	ffff ffff ffff ffff ffff ffff ffff ffff     ................
  408094:	ffff ffff ffff ffff ffff ffff ffff ffff     ................
  4080a4:	ffff ffff ffff ffff ffff ffff ffff ffff     ................
  4080b4:	ffff ffff ffff ffff ffff ffff ffff ffff     ................
  4080c4:	ffff ffff ffff ffff ffff ffff ffff ffff     ................
  4080d4:	ffff ffff ffff ffff ffff ffff ffff ffff     ................
  4080e4:	ffff ffff ffff ffff ffff ffff ffff ffff     ................
  4080f4:	ffff ffff ffff ffff ffff ffff ffff ffff     ................
  408104:	ffff ffff ffff ffff ffff ffff ffff ffff     ................
  408114:	ffff ffff ffff ffff ffff ffff ffff ffff     ................
  408124:	ffff ffff ffff ffff ffff ffff ffff ffff     ................
  408134:	ffff ffff ffff ffff ffff ffff ffff ffff     ................
  408144:	ffff ffff ffff ffff ffff ffff ffff ffff     ................
  408154:	ffff ffff ffff ffff ffff ffff ffff ffff     ................
  408164:	ffff ffff ffff ffff ffff ffff ffff ffff     ................
  408174:	ffff ffff ffff ffff ffff ffff ffff ffff     ................
  408184:	ffff ffff ffff ffff ffff ffff ffff ffff     ................
  408194:	ffff ffff ffff ffff ffff ffff ffff ffff     ................
  4081a4:	ffff ffff ffff ffff ffff ffff ffff ffff     ................
  4081b4:	ffff ffff ffff ffff ffff ffff ffff ffff     ................
  4081c4:	ffff ffff ffff ffff ffff ffff ffff ffff     ................
  4081d4:	ffff ffff ffff ffff ffff ffff ffff ffff     ................
  4081e4:	ffff ffff ffff ffff ffff ffff ffff ffff     ................
  4081f4:	ffff ffff ffff ffff ffff ffff ffff ffff     ................
  408204:	ffff ffff ffff ffff ffff ffff ffff ffff     ................
  408214:	ffff ffff ffff ffff ffff ffff ffff ffff     ................
  408224:	ffff ffff ffff ffff ffff ffff ffff ffff     ................
  408234:	ffff ffff ffff ffff ffff ffff ffff ffff     ................
  408244:	ffff ffff ffff ffff ffff ffff ffff ffff     ................
  408254:	ffff ffff ffff ffff ffff ffff ffff ffff     ................
  408264:	ffff ffff ffff ffff ffff ffff ffff ffff     ................
  408274:	ffff ffff ffff ffff ffff ffff ffff ffff     ................
  408284:	ffff ffff ffff ffff ffff ffff ffff ffff     ................
  408294:	ffff ffff ffff ffff ffff ffff ffff ffff     ................
  4082a4:	ffff ffff ffff ffff ffff ffff ffff ffff     ................
  4082b4:	ffff ffff ffff ffff ffff ffff ffff ffff     ................
  4082c4:	ffff ffff ffff ffff ffff ffff ffff ffff     ................
  4082d4:	ffff ffff ffff ffff ffff ffff ffff ffff     ................
  4082e4:	ffff ffff ffff ffff ffff ffff ffff ffff     ................
  4082f4:	ffff ffff ffff ffff ffff ffff ffff ffff     ................
  408304:	ffff ffff ffff ffff ffff ffff ffff ffff     ................
  408314:	ffff ffff ffff ffff ffff ffff ffff ffff     ................
  408324:	ffff ffff ffff ffff ffff ffff ffff ffff     ................
  408334:	ffff ffff ffff ffff ffff ffff ffff ffff     ................
  408344:	ffff ffff ffff ffff ffff ffff ffff ffff     ................
  408354:	ffff ffff ffff ffff ffff ffff ffff ffff     ................
  408364:	ffff ffff ffff ffff ffff ffff ffff ffff     ................
  408374:	ffff ffff ffff ffff ffff ffff ffff ffff     ................
  408384:	ffff ffff ffff ffff ffff ffff ffff ffff     ................
  408394:	ffff ffff ffff ffff ffff ffff ffff ffff     ................
  4083a4:	ffff ffff ffff ffff ffff ffff ffff ffff     ................
  4083b4:	ffff ffff ffff ffff ffff ffff ffff ffff     ................
  4083c4:	ffff ffff ffff ffff ffff ffff ffff ffff     ................
  4083d4:	ffff ffff ffff ffff ffff ffff ffff ffff     ................
  4083e4:	ffff ffff ffff ffff ffff ffff ffff ffff     ................
  4083f4:	ffff ffff ffff ffff ffff ffff ffff ffff     ................
  408404:	ffff ffff ffff ffff ffff ffff ffff ffff     ................
  408414:	ffff ffff ffff ffff ffff ffff ffff ffff     ................
  408424:	ffff ffff ffff ffff ffff ffff ffff ffff     ................
  408434:	ffff ffff ffff ffff ffff ffff ffff ffff     ................
  408444:	ffff ffff ffff ffff ffff ffff ffff ffff     ................
  408454:	ffff ffff ffff ffff ffff ffff ffff ffff     ................
  408464:	ffff ffff ffff ffff ffff ffff ffff ffff     ................
  408474:	ffff ffff ffff ffff ffff ffff ffff ffff     ................
  408484:	ffff ffff ffff ffff ffff ffff ffff ffff     ................
  408494:	ffff ffff ffff ffff ffff ffff ffff ffff     ................
  4084a4:	ffff ffff ffff ffff ffff ffff ffff ffff     ................
  4084b4:	ffff ffff ffff ffff ffff ffff ffff ffff     ................
  4084c4:	ffff ffff ffff ffff ffff ffff ffff ffff     ................
  4084d4:	ffff ffff ffff ffff ffff ffff ffff ffff     ................
  4084e4:	ffff ffff ffff ffff ffff ffff ffff ffff     ................
  4084f4:	ffff ffff ffff ffff ffff ffff ffff ffff     ................
  408504:	ffff ffff ffff ffff ffff ffff ffff ffff     ................
  408514:	ffff ffff ffff ffff ffff ffff ffff ffff     ................
  408524:	ffff ffff ffff ffff ffff ffff ffff ffff     ................
  408534:	ffff ffff ffff ffff ffff ffff ffff ffff     ................
  408544:	ffff ffff ffff ffff ffff ffff ffff ffff     ................
  408554:	ffff ffff ffff ffff ffff ffff ffff ffff     ................
  408564:	ffff ffff ffff ffff ffff ffff ffff ffff     ................
  408574:	ffff ffff ffff ffff ffff ffff ffff ffff     ................
  408584:	ffff ffff ffff ffff ffff ffff ffff ffff     ................
  408594:	ffff ffff ffff ffff ffff ffff ffff ffff     ................
  4085a4:	ffff ffff ffff ffff ffff ffff ffff ffff     ................
  4085b4:	ffff ffff ffff ffff ffff ffff ffff ffff     ................
  4085c4:	ffff ffff ffff ffff ffff ffff ffff ffff     ................
  4085d4:	ffff ffff ffff ffff ffff ffff ffff ffff     ................
  4085e4:	ffff ffff ffff ffff ffff ffff ffff ffff     ................
  4085f4:	ffff ffff ffff ffff ffff ffff ffff ffff     ................
  408604:	ffff ffff ffff ffff ffff ffff ffff ffff     ................
  408614:	ffff ffff ffff ffff ffff ffff ffff ffff     ................
  408624:	ffff ffff ffff ffff ffff ffff ffff ffff     ................
  408634:	ffff ffff ffff ffff ffff ffff ffff ffff     ................
  408644:	ffff ffff ffff ffff ffff ffff ffff ffff     ................
  408654:	ffff ffff ffff ffff ffff ffff ffff ffff     ................
  408664:	ffff ffff ffff ffff ffff ffff ffff ffff     ................
  408674:	ffff ffff ffff ffff ffff ffff ffff ffff     ................
  408684:	ffff ffff ffff ffff ffff ffff ffff ffff     ................
  408694:	ffff ffff ffff ffff ffff ffff ffff ffff     ................
  4086a4:	ffff ffff ffff ffff ffff ffff ffff ffff     ................
  4086b4:	ffff ffff ffff ffff ffff ffff ffff ffff     ................
  4086c4:	ffff ffff ffff ffff ffff ffff ffff ffff     ................
  4086d4:	ffff ffff ffff ffff ffff ffff ffff ffff     ................
  4086e4:	ffff ffff ffff ffff ffff ffff ffff ffff     ................
  4086f4:	ffff ffff ffff ffff ffff ffff ffff ffff     ................
  408704:	ffff ffff ffff ffff ffff ffff ffff ffff     ................
  408714:	ffff ffff ffff ffff ffff ffff ffff ffff     ................
  408724:	ffff ffff ffff ffff ffff ffff ffff ffff     ................
  408734:	ffff ffff ffff ffff ffff ffff ffff ffff     ................
  408744:	ffff ffff ffff ffff ffff ffff ffff ffff     ................
  408754:	ffff ffff ffff ffff ffff ffff ffff ffff     ................
  408764:	ffff ffff ffff ffff ffff ffff ffff ffff     ................
  408774:	ffff ffff ffff ffff ffff ffff ffff ffff     ................
  408784:	ffff ffff ffff ffff ffff ffff ffff ffff     ................
  408794:	ffff ffff ffff ffff ffff ffff ffff ffff     ................
  4087a4:	ffff ffff ffff ffff ffff ffff ffff ffff     ................
  4087b4:	ffff ffff ffff ffff ffff ffff ffff ffff     ................
  4087c4:	ffff ffff ffff ffff ffff ffff ffff ffff     ................
  4087d4:	ffff ffff ffff ffff ffff ffff ffff ffff     ................
  4087e4:	ffff ffff ffff ffff ffff ffff ffff ffff     ................
  4087f4:	ffff ffff ffff ffff ffff ffff ffff ffff     ................
  408804:	ffff ffff ffff ffff ffff ffff ffff ffff     ................
  408814:	ffff ffff ffff ffff ffff ffff ffff ffff     ................
  408824:	ffff ffff ffff ffff ffff ffff ffff ffff     ................
  408834:	ffff ffff ffff ffff ffff ffff ffff ffff     ................
  408844:	ffff ffff ffff ffff ffff ffff ffff ffff     ................
  408854:	ffff ffff ffff ffff ffff ffff ffff ffff     ................
  408864:	ffff ffff ffff ffff ffff ffff ffff ffff     ................
  408874:	ffff ffff ffff ffff ffff ffff ffff ffff     ................
  408884:	ffff ffff ffff ffff ffff ffff ffff ffff     ................
  408894:	ffff ffff ffff ffff ffff ffff ffff ffff     ................
  4088a4:	ffff ffff ffff ffff ffff ffff ffff ffff     ................
  4088b4:	ffff ffff ffff ffff ffff ffff ffff ffff     ................
  4088c4:	ffff ffff ffff ffff ffff ffff ffff ffff     ................
  4088d4:	ffff ffff ffff ffff ffff ffff ffff ffff     ................
  4088e4:	ffff ffff ffff ffff ffff ffff ffff ffff     ................
  4088f4:	ffff ffff ffff ffff ffff ffff ffff ffff     ................
  408904:	ffff ffff ffff ffff ffff ffff ffff ffff     ................
  408914:	ffff ffff ffff ffff ffff ffff ffff ffff     ................
  408924:	ffff ffff ffff ffff ffff ffff ffff ffff     ................
  408934:	ffff ffff ffff ffff ffff ffff ffff ffff     ................
  408944:	ffff ffff ffff ffff ffff ffff ffff ffff     ................
  408954:	ffff ffff ffff ffff ffff ffff ffff ffff     ................
  408964:	ffff ffff ffff ffff ffff ffff ffff ffff     ................
  408974:	ffff ffff ffff ffff ffff ffff ffff ffff     ................
  408984:	ffff ffff ffff ffff ffff ffff ffff ffff     ................
  408994:	ffff ffff ffff ffff ffff ffff ffff ffff     ................
  4089a4:	ffff ffff ffff ffff ffff ffff ffff ffff     ................
  4089b4:	ffff ffff ffff ffff ffff ffff ffff ffff     ................
  4089c4:	ffff ffff ffff ffff ffff ffff ffff ffff     ................
  4089d4:	ffff ffff ffff ffff ffff ffff ffff ffff     ................
  4089e4:	ffff ffff ffff ffff ffff ffff ffff ffff     ................
  4089f4:	ffff ffff ffff ffff ffff ffff ffff ffff     ................
  408a04:	ffff ffff ffff ffff ffff ffff ffff ffff     ................
  408a14:	ffff ffff ffff ffff ffff ffff ffff ffff     ................
  408a24:	ffff ffff ffff ffff ffff ffff ffff ffff     ................
  408a34:	ffff ffff ffff ffff ffff ffff ffff ffff     ................
  408a44:	ffff ffff ffff ffff ffff ffff ffff ffff     ................
  408a54:	ffff ffff ffff ffff ffff ffff ffff ffff     ................
  408a64:	ffff ffff ffff ffff ffff ffff ffff ffff     ................
  408a74:	ffff ffff ffff ffff ffff ffff ffff ffff     ................
  408a84:	ffff ffff ffff ffff ffff ffff ffff ffff     ................
  408a94:	ffff ffff ffff ffff ffff ffff ffff ffff     ................
  408aa4:	ffff ffff ffff ffff ffff ffff ffff ffff     ................
  408ab4:	ffff ffff ffff ffff ffff ffff ffff ffff     ................
  408ac4:	ffff ffff ffff ffff ffff ffff ffff ffff     ................
  408ad4:	ffff ffff ffff ffff ffff ffff ffff ffff     ................
  408ae4:	ffff ffff ffff ffff ffff ffff ffff ffff     ................
  408af4:	ffff ffff ffff ffff ffff ffff ffff ffff     ................
  408b04:	ffff ffff ffff ffff ffff ffff ffff ffff     ................
  408b14:	ffff ffff ffff ffff ffff ffff ffff ffff     ................
  408b24:	ffff ffff ffff ffff ffff ffff ffff ffff     ................
  408b34:	ffff ffff ffff ffff ffff ffff ffff ffff     ................
  408b44:	ffff ffff ffff ffff ffff ffff ffff ffff     ................
  408b54:	ffff ffff ffff ffff ffff ffff ffff ffff     ................
  408b64:	ffff ffff ffff ffff ffff ffff ffff ffff     ................
  408b74:	ffff ffff ffff ffff ffff ffff ffff ffff     ................
  408b84:	ffff ffff ffff ffff ffff ffff ffff ffff     ................
  408b94:	ffff ffff ffff ffff ffff ffff ffff ffff     ................
  408ba4:	ffff ffff ffff ffff ffff ffff ffff ffff     ................
  408bb4:	ffff ffff ffff ffff ffff ffff ffff ffff     ................
  408bc4:	ffff ffff ffff ffff ffff ffff ffff ffff     ................
  408bd4:	ffff ffff ffff ffff ffff ffff ffff ffff     ................
  408be4:	ffff ffff ffff ffff ffff ffff ffff ffff     ................
  408bf4:	ffff ffff ffff ffff ffff ffff ffff ffff     ................
  408c04:	ffff ffff ffff ffff ffff ffff ffff ffff     ................
  408c14:	ffff ffff ffff ffff ffff ffff ffff ffff     ................
  408c24:	ffff ffff ffff ffff ffff ffff ffff ffff     ................
  408c34:	ffff ffff ffff ffff ffff ffff ffff ffff     ................
  408c44:	ffff ffff ffff ffff ffff ffff ffff ffff     ................
  408c54:	ffff ffff ffff ffff ffff ffff ffff ffff     ................
  408c64:	ffff ffff ffff ffff ffff ffff ffff ffff     ................
  408c74:	ffff ffff ffff ffff ffff ffff ffff ffff     ................
  408c84:	ffff ffff ffff ffff ffff ffff ffff ffff     ................
  408c94:	ffff ffff ffff ffff ffff ffff ffff ffff     ................
  408ca4:	ffff ffff ffff ffff ffff ffff ffff ffff     ................
  408cb4:	ffff ffff ffff ffff ffff ffff ffff ffff     ................
  408cc4:	ffff ffff ffff ffff ffff ffff ffff ffff     ................
  408cd4:	ffff ffff ffff ffff ffff ffff ffff ffff     ................
  408ce4:	ffff ffff ffff ffff ffff ffff ffff ffff     ................
  408cf4:	ffff ffff ffff ffff ffff ffff ffff ffff     ................
  408d04:	ffff ffff ffff ffff ffff ffff ffff ffff     ................
  408d14:	ffff ffff ffff ffff ffff ffff ffff ffff     ................
  408d24:	ffff ffff ffff ffff ffff ffff ffff ffff     ................
  408d34:	ffff ffff ffff ffff ffff ffff ffff ffff     ................
  408d44:	ffff ffff ffff ffff ffff ffff ffff ffff     ................
  408d54:	ffff ffff ffff ffff ffff ffff ffff ffff     ................
  408d64:	ffff ffff ffff ffff ffff ffff ffff ffff     ................
  408d74:	ffff ffff ffff ffff ffff ffff ffff ffff     ................
  408d84:	ffff ffff ffff ffff ffff ffff ffff ffff     ................
  408d94:	ffff ffff ffff ffff ffff ffff ffff ffff     ................
  408da4:	ffff ffff ffff ffff ffff ffff ffff ffff     ................
  408db4:	ffff ffff ffff ffff ffff ffff ffff ffff     ................
  408dc4:	ffff ffff ffff ffff ffff ffff ffff ffff     ................
  408dd4:	ffff ffff ffff ffff ffff ffff ffff ffff     ................
  408de4:	ffff ffff ffff ffff ffff ffff ffff ffff     ................
  408df4:	ffff ffff ffff ffff ffff ffff ffff ffff     ................
  408e04:	ffff ffff ffff ffff ffff ffff ffff ffff     ................
  408e14:	ffff ffff ffff ffff ffff ffff ffff ffff     ................
  408e24:	ffff ffff ffff ffff ffff ffff ffff ffff     ................
  408e34:	ffff ffff ffff ffff ffff ffff ffff ffff     ................
  408e44:	ffff ffff ffff ffff ffff ffff ffff ffff     ................
  408e54:	ffff ffff ffff ffff ffff ffff ffff ffff     ................
  408e64:	ffff ffff ffff ffff ffff ffff ffff ffff     ................
  408e74:	ffff ffff ffff ffff ffff ffff ffff ffff     ................
  408e84:	ffff ffff ffff ffff ffff ffff ffff ffff     ................
  408e94:	ffff ffff ffff ffff ffff ffff ffff ffff     ................
  408ea4:	ffff ffff ffff ffff ffff ffff ffff ffff     ................
  408eb4:	ffff ffff ffff ffff ffff ffff ffff ffff     ................
  408ec4:	ffff ffff ffff ffff ffff ffff ffff ffff     ................
  408ed4:	ffff ffff ffff ffff ffff ffff ffff ffff     ................
  408ee4:	ffff ffff ffff ffff ffff ffff ffff ffff     ................
  408ef4:	ffff ffff ffff ffff ffff ffff ffff ffff     ................
  408f04:	ffff ffff ffff ffff ffff ffff ffff ffff     ................
  408f14:	ffff ffff ffff ffff ffff ffff ffff ffff     ................
  408f24:	ffff ffff ffff ffff ffff ffff ffff ffff     ................
  408f34:	ffff ffff ffff ffff ffff ffff ffff ffff     ................
  408f44:	ffff ffff ffff ffff ffff ffff ffff ffff     ................
  408f54:	ffff ffff ffff ffff ffff ffff ffff ffff     ................
  408f64:	ffff ffff ffff ffff ffff ffff ffff ffff     ................
  408f74:	ffff ffff ffff ffff ffff ffff ffff ffff     ................
  408f84:	ffff ffff ffff ffff ffff ffff ffff ffff     ................
  408f94:	ffff ffff ffff ffff ffff ffff ffff ffff     ................
  408fa4:	ffff ffff ffff ffff ffff ffff ffff ffff     ................
  408fb4:	ffff ffff ffff ffff ffff ffff ffff ffff     ................
  408fc4:	ffff ffff ffff ffff ffff ffff ffff ffff     ................
  408fd4:	ffff ffff ffff ffff ffff ffff ffff ffff     ................
  408fe4:	ffff ffff ffff ffff ffff ffff ffff ffff     ................
  408ff4:	ffff ffff ffff ffff ffff ffff ffff ffff     ................
  409004:	ffff ffff ffff ffff ffff ffff ffff ffff     ................
  409014:	ffff ffff ffff ffff ffff ffff ffff ffff     ................
  409024:	ffff ffff ffff ffff ffff ffff ffff ffff     ................
  409034:	ffff ffff ffff ffff ffff ffff ffff ffff     ................
  409044:	ffff ffff ffff ffff ffff ffff ffff ffff     ................
  409054:	ffff ffff ffff ffff ffff ffff ffff ffff     ................
  409064:	ffff ffff ffff ffff ffff ffff ffff ffff     ................
  409074:	ffff ffff ffff ffff ffff ffff ffff ffff     ................
  409084:	ffff ffff ffff ffff ffff ffff ffff ffff     ................
  409094:	ffff ffff ffff ffff ffff ffff ffff ffff     ................
  4090a4:	ffff ffff ffff ffff ffff ffff ffff ffff     ................
  4090b4:	ffff ffff ffff ffff ffff ffff ffff ffff     ................
  4090c4:	ffff ffff ffff ffff ffff ffff ffff ffff     ................
  4090d4:	ffff ffff ffff ffff ffff ffff ffff ffff     ................
  4090e4:	ffff ffff ffff ffff ffff ffff ffff ffff     ................
  4090f4:	ffff ffff ffff ffff ffff ffff ffff ffff     ................
  409104:	ffff ffff ffff ffff ffff ffff ffff ffff     ................
  409114:	ffff ffff ffff ffff ffff ffff ffff ffff     ................
  409124:	ffff ffff ffff ffff ffff ffff ffff ffff     ................
  409134:	ffff ffff ffff ffff ffff ffff ffff ffff     ................
  409144:	ffff ffff ffff ffff ffff ffff ffff ffff     ................
  409154:	ffff ffff ffff ffff ffff ffff ffff ffff     ................
  409164:	ffff ffff ffff ffff ffff ffff ffff ffff     ................
  409174:	ffff ffff ffff ffff ffff ffff ffff ffff     ................
  409184:	ffff ffff ffff ffff ffff ffff ffff ffff     ................
  409194:	ffff ffff ffff ffff ffff ffff ffff ffff     ................
  4091a4:	ffff ffff ffff ffff ffff ffff ffff ffff     ................
  4091b4:	ffff ffff ffff ffff ffff ffff ffff ffff     ................
  4091c4:	ffff ffff ffff ffff ffff ffff ffff ffff     ................
  4091d4:	ffff ffff ffff ffff ffff ffff ffff ffff     ................
  4091e4:	ffff ffff ffff ffff ffff ffff ffff ffff     ................
  4091f4:	ffff ffff ffff ffff ffff ffff ffff ffff     ................
  409204:	ffff ffff ffff ffff ffff ffff ffff ffff     ................
  409214:	ffff ffff ffff ffff ffff ffff ffff ffff     ................
  409224:	ffff ffff ffff ffff ffff ffff ffff ffff     ................
  409234:	ffff ffff ffff ffff ffff ffff ffff ffff     ................
  409244:	ffff ffff ffff ffff ffff ffff ffff ffff     ................
  409254:	ffff ffff ffff ffff ffff ffff ffff ffff     ................
  409264:	ffff ffff ffff ffff ffff ffff ffff ffff     ................
  409274:	ffff ffff ffff ffff ffff ffff ffff ffff     ................
  409284:	ffff ffff ffff ffff ffff ffff ffff ffff     ................
  409294:	ffff ffff ffff ffff ffff ffff ffff ffff     ................
  4092a4:	ffff ffff ffff ffff ffff ffff ffff ffff     ................
  4092b4:	ffff ffff ffff ffff ffff ffff ffff ffff     ................
  4092c4:	ffff ffff ffff ffff ffff ffff ffff ffff     ................
  4092d4:	ffff ffff ffff ffff ffff ffff ffff ffff     ................
  4092e4:	ffff ffff ffff ffff ffff ffff ffff ffff     ................
  4092f4:	ffff ffff ffff ffff ffff ffff ffff ffff     ................
  409304:	ffff ffff ffff ffff ffff ffff ffff ffff     ................
  409314:	ffff ffff ffff ffff ffff ffff ffff ffff     ................
  409324:	ffff ffff ffff ffff ffff ffff ffff ffff     ................
  409334:	ffff ffff ffff ffff ffff ffff ffff ffff     ................
  409344:	ffff ffff ffff ffff ffff ffff ffff ffff     ................
  409354:	ffff ffff ffff ffff ffff ffff ffff ffff     ................
  409364:	ffff ffff ffff ffff ffff ffff ffff ffff     ................
  409374:	ffff ffff ffff ffff ffff ffff ffff ffff     ................
  409384:	ffff ffff ffff ffff ffff ffff ffff ffff     ................
  409394:	ffff ffff ffff ffff ffff ffff ffff ffff     ................
  4093a4:	ffff ffff ffff ffff ffff ffff ffff ffff     ................
  4093b4:	ffff ffff ffff ffff ffff ffff ffff ffff     ................
  4093c4:	ffff ffff ffff ffff ffff ffff ffff ffff     ................
  4093d4:	ffff ffff ffff ffff ffff ffff ffff ffff     ................
  4093e4:	ffff ffff ffff ffff ffff ffff ffff ffff     ................
  4093f4:	ffff ffff ffff ffff ffff ffff ffff ffff     ................
  409404:	ffff ffff ffff ffff ffff ffff ffff ffff     ................
  409414:	ffff ffff ffff ffff ffff ffff ffff ffff     ................
  409424:	ffff ffff ffff ffff ffff ffff ffff ffff     ................
  409434:	ffff ffff ffff ffff ffff ffff ffff ffff     ................
  409444:	ffff ffff ffff ffff ffff ffff ffff ffff     ................
  409454:	ffff ffff ffff ffff ffff ffff ffff ffff     ................
  409464:	ffff ffff ffff ffff ffff ffff ffff ffff     ................
  409474:	ffff ffff ffff ffff ffff ffff ffff ffff     ................
  409484:	ffff ffff ffff ffff ffff ffff ffff ffff     ................
  409494:	ffff ffff ffff ffff ffff ffff ffff ffff     ................
  4094a4:	ffff ffff ffff ffff ffff ffff ffff ffff     ................
  4094b4:	ffff ffff ffff ffff ffff ffff ffff ffff     ................
  4094c4:	ffff ffff ffff ffff ffff ffff ffff ffff     ................
  4094d4:	ffff ffff ffff ffff ffff ffff ffff ffff     ................
  4094e4:	ffff ffff ffff ffff ffff ffff ffff ffff     ................
  4094f4:	ffff ffff ffff ffff ffff ffff ffff ffff     ................
  409504:	ffff ffff ffff ffff ffff ffff ffff ffff     ................
  409514:	ffff ffff ffff ffff ffff ffff ffff ffff     ................
  409524:	ffff ffff ffff ffff ffff ffff ffff ffff     ................
  409534:	ffff ffff ffff ffff ffff ffff ffff ffff     ................
  409544:	ffff ffff ffff ffff ffff ffff ffff ffff     ................
  409554:	ffff ffff ffff ffff ffff ffff ffff ffff     ................
  409564:	ffff ffff ffff ffff ffff ffff ffff ffff     ................
  409574:	ffff ffff ffff ffff ffff ffff ffff ffff     ................
  409584:	ffff ffff ffff ffff ffff ffff ffff ffff     ................
  409594:	ffff ffff ffff ffff ffff ffff ffff ffff     ................
  4095a4:	ffff ffff ffff ffff ffff ffff ffff ffff     ................
  4095b4:	ffff ffff ffff ffff ffff ffff ffff ffff     ................
  4095c4:	ffff ffff ffff ffff ffff ffff ffff ffff     ................
  4095d4:	ffff ffff ffff ffff ffff ffff ffff ffff     ................
  4095e4:	ffff ffff ffff ffff ffff ffff ffff ffff     ................
  4095f4:	ffff ffff ffff ffff ffff ffff ffff ffff     ................
  409604:	ffff ffff ffff ffff ffff ffff ffff ffff     ................
  409614:	ffff ffff ffff ffff ffff ffff ffff ffff     ................
  409624:	ffff ffff ffff ffff ffff ffff ffff ffff     ................
  409634:	ffff ffff ffff ffff ffff ffff ffff ffff     ................
  409644:	ffff ffff ffff ffff ffff ffff ffff ffff     ................
  409654:	ffff ffff ffff ffff ffff ffff ffff ffff     ................
  409664:	ffff ffff ffff ffff ffff ffff ffff ffff     ................
  409674:	ffff ffff ffff ffff ffff ffff ffff ffff     ................
  409684:	ffff ffff ffff ffff ffff ffff ffff ffff     ................
  409694:	ffff ffff ffff ffff ffff ffff ffff ffff     ................
  4096a4:	ffff ffff ffff ffff ffff ffff ffff ffff     ................
  4096b4:	ffff ffff ffff ffff ffff ffff ffff ffff     ................
  4096c4:	ffff ffff ffff ffff ffff ffff ffff ffff     ................
  4096d4:	ffff ffff ffff ffff ffff ffff ffff ffff     ................
  4096e4:	ffff ffff ffff ffff ffff ffff ffff ffff     ................
  4096f4:	ffff ffff ffff ffff ffff ffff ffff ffff     ................
  409704:	ffff ffff ffff ffff ffff ffff ffff ffff     ................
  409714:	ffff ffff ffff ffff ffff ffff ffff ffff     ................
  409724:	ffff ffff ffff ffff ffff ffff ffff ffff     ................
  409734:	ffff ffff ffff ffff ffff ffff ffff ffff     ................
  409744:	ffff ffff ffff ffff ffff ffff ffff ffff     ................
  409754:	ffff ffff ffff ffff ffff ffff ffff ffff     ................
  409764:	ffff ffff ffff ffff ffff ffff ffff ffff     ................
  409774:	ffff ffff ffff ffff ffff ffff ffff ffff     ................
  409784:	ffff ffff ffff ffff ffff ffff ffff ffff     ................
  409794:	ffff ffff ffff ffff ffff ffff ffff ffff     ................
  4097a4:	ffff ffff ffff ffff ffff ffff ffff ffff     ................
  4097b4:	ffff ffff ffff ffff ffff ffff ffff ffff     ................
  4097c4:	ffff ffff ffff ffff ffff ffff ffff ffff     ................
  4097d4:	ffff ffff ffff ffff ffff ffff ffff ffff     ................
  4097e4:	ffff ffff ffff ffff ffff ffff ffff ffff     ................
  4097f4:	ffff ffff ffff ffff ffff ffff ffff ffff     ................
  409804:	ffff ffff ffff ffff ffff ffff ffff ffff     ................
  409814:	ffff ffff ffff ffff ffff ffff ffff ffff     ................
  409824:	ffff ffff ffff ffff ffff ffff ffff ffff     ................
  409834:	ffff ffff ffff ffff ffff ffff ffff ffff     ................
  409844:	ffff ffff ffff ffff ffff ffff ffff ffff     ................
  409854:	ffff ffff ffff ffff ffff ffff ffff ffff     ................
  409864:	ffff ffff ffff ffff ffff ffff ffff ffff     ................
  409874:	ffff ffff ffff ffff ffff ffff ffff ffff     ................
  409884:	ffff ffff ffff ffff ffff ffff ffff ffff     ................
  409894:	ffff ffff ffff ffff ffff ffff ffff ffff     ................
  4098a4:	ffff ffff ffff ffff ffff ffff ffff ffff     ................
  4098b4:	ffff ffff ffff ffff ffff ffff ffff ffff     ................
  4098c4:	ffff ffff ffff ffff ffff ffff ffff ffff     ................
  4098d4:	ffff ffff ffff ffff ffff ffff ffff ffff     ................
  4098e4:	ffff ffff ffff ffff ffff ffff ffff ffff     ................
  4098f4:	ffff ffff ffff ffff ffff ffff ffff ffff     ................
  409904:	ffff ffff ffff ffff ffff ffff ffff ffff     ................
  409914:	ffff ffff ffff ffff ffff ffff ffff ffff     ................
  409924:	ffff ffff ffff ffff ffff ffff ffff ffff     ................
  409934:	ffff ffff ffff ffff ffff ffff ffff ffff     ................
  409944:	ffff ffff ffff ffff ffff ffff ffff ffff     ................
  409954:	ffff ffff ffff ffff ffff ffff ffff ffff     ................
  409964:	ffff ffff ffff ffff ffff ffff ffff ffff     ................
  409974:	ffff ffff ffff ffff ffff ffff ffff ffff     ................
  409984:	ffff ffff ffff ffff ffff ffff ffff ffff     ................
  409994:	ffff ffff ffff ffff ffff ffff ffff ffff     ................
  4099a4:	ffff ffff ffff ffff ffff ffff ffff ffff     ................
  4099b4:	ffff ffff ffff ffff ffff ffff ffff ffff     ................
  4099c4:	ffff ffff ffff ffff ffff ffff ffff ffff     ................
  4099d4:	ffff ffff ffff ffff ffff ffff ffff ffff     ................
  4099e4:	ffff ffff ffff ffff ffff ffff ffff ffff     ................
  4099f4:	ffff ffff ffff ffff ffff ffff ffff ffff     ................
  409a04:	ffff ffff ffff ffff ffff ffff ffff ffff     ................
  409a14:	ffff ffff ffff ffff ffff ffff ffff ffff     ................
  409a24:	ffff ffff ffff ffff ffff ffff ffff ffff     ................
  409a34:	ffff ffff ffff ffff ffff ffff ffff ffff     ................
  409a44:	ffff ffff ffff ffff ffff ffff ffff ffff     ................
  409a54:	ffff ffff ffff ffff ffff ffff ffff ffff     ................
  409a64:	ffff ffff ffff ffff ffff ffff ffff ffff     ................
  409a74:	ffff ffff ffff ffff ffff ffff ffff ffff     ................
  409a84:	ffff ffff ffff ffff ffff ffff ffff ffff     ................
  409a94:	ffff ffff ffff ffff ffff ffff ffff ffff     ................
  409aa4:	ffff ffff ffff ffff ffff ffff ffff ffff     ................
  409ab4:	ffff ffff ffff ffff ffff ffff ffff ffff     ................
  409ac4:	ffff ffff ffff ffff ffff ffff ffff ffff     ................
  409ad4:	ffff ffff ffff ffff ffff ffff ffff ffff     ................
  409ae4:	ffff ffff ffff ffff ffff ffff ffff ffff     ................
  409af4:	ffff ffff ffff ffff ffff ffff ffff ffff     ................
  409b04:	ffff ffff ffff ffff ffff ffff ffff ffff     ................
  409b14:	ffff ffff ffff ffff ffff ffff ffff ffff     ................
  409b24:	ffff ffff ffff ffff ffff ffff ffff ffff     ................
  409b34:	ffff ffff ffff ffff ffff ffff ffff ffff     ................
  409b44:	ffff ffff ffff ffff ffff ffff ffff ffff     ................
  409b54:	ffff ffff ffff ffff ffff ffff ffff ffff     ................
  409b64:	ffff ffff ffff ffff ffff ffff ffff ffff     ................
  409b74:	ffff ffff ffff ffff ffff ffff ffff ffff     ................
  409b84:	ffff ffff ffff ffff ffff ffff ffff ffff     ................
  409b94:	ffff ffff ffff ffff ffff ffff ffff ffff     ................
  409ba4:	ffff ffff ffff ffff ffff ffff ffff ffff     ................
  409bb4:	ffff ffff ffff ffff ffff ffff ffff ffff     ................
  409bc4:	ffff ffff ffff ffff ffff ffff ffff ffff     ................
  409bd4:	ffff ffff ffff ffff ffff ffff ffff ffff     ................
  409be4:	ffff ffff ffff ffff ffff ffff ffff ffff     ................
  409bf4:	ffff ffff ffff ffff ffff ffff ffff ffff     ................
  409c04:	ffff ffff ffff ffff ffff ffff ffff ffff     ................
  409c14:	ffff ffff ffff ffff ffff ffff ffff ffff     ................
  409c24:	ffff ffff ffff ffff ffff ffff ffff ffff     ................
  409c34:	ffff ffff ffff ffff ffff ffff ffff ffff     ................
  409c44:	ffff ffff ffff ffff ffff ffff ffff ffff     ................
  409c54:	ffff ffff ffff ffff ffff ffff ffff ffff     ................
  409c64:	ffff ffff ffff ffff ffff ffff ffff ffff     ................
  409c74:	ffff ffff ffff ffff ffff ffff ffff ffff     ................
  409c84:	ffff ffff ffff ffff ffff ffff ffff ffff     ................
  409c94:	ffff ffff ffff ffff ffff ffff ffff ffff     ................
  409ca4:	ffff ffff ffff ffff ffff ffff ffff ffff     ................
  409cb4:	ffff ffff ffff ffff ffff ffff ffff ffff     ................
  409cc4:	ffff ffff ffff ffff ffff ffff ffff ffff     ................
  409cd4:	ffff ffff ffff ffff ffff ffff ffff ffff     ................
  409ce4:	ffff ffff ffff ffff ffff ffff ffff ffff     ................
  409cf4:	ffff ffff ffff ffff ffff ffff ffff ffff     ................
  409d04:	ffff ffff ffff ffff ffff ffff ffff ffff     ................
  409d14:	ffff ffff ffff ffff ffff ffff ffff ffff     ................
  409d24:	ffff ffff ffff ffff ffff ffff ffff ffff     ................
  409d34:	ffff ffff ffff ffff ffff ffff ffff ffff     ................
  409d44:	ffff ffff ffff ffff ffff ffff ffff ffff     ................
  409d54:	ffff ffff ffff ffff ffff ffff ffff ffff     ................
  409d64:	ffff ffff ffff ffff ffff ffff ffff ffff     ................
  409d74:	ffff ffff ffff ffff ffff ffff ffff ffff     ................
  409d84:	ffff ffff ffff ffff ffff ffff ffff ffff     ................
  409d94:	ffff ffff ffff ffff ffff ffff ffff ffff     ................
  409da4:	ffff ffff ffff ffff ffff ffff ffff ffff     ................
  409db4:	ffff ffff ffff ffff ffff ffff ffff ffff     ................
  409dc4:	ffff ffff ffff ffff ffff ffff ffff ffff     ................
  409dd4:	ffff ffff ffff ffff ffff ffff ffff ffff     ................
  409de4:	ffff ffff ffff ffff ffff ffff ffff ffff     ................
  409df4:	ffff ffff ffff ffff ffff ffff ffff ffff     ................
  409e04:	ffff ffff ffff ffff ffff ffff ffff ffff     ................
  409e14:	ffff ffff ffff ffff ffff ffff ffff ffff     ................
  409e24:	ffff ffff ffff ffff ffff ffff ffff ffff     ................
  409e34:	ffff ffff ffff ffff ffff ffff ffff ffff     ................
  409e44:	ffff ffff ffff ffff ffff ffff ffff ffff     ................
  409e54:	ffff ffff ffff ffff ffff ffff ffff ffff     ................
  409e64:	ffff ffff ffff ffff ffff ffff ffff ffff     ................
  409e74:	ffff ffff ffff ffff ffff ffff ffff ffff     ................
  409e84:	ffff ffff ffff ffff ffff ffff ffff ffff     ................
  409e94:	ffff ffff ffff ffff ffff ffff ffff ffff     ................
  409ea4:	ffff ffff ffff ffff ffff ffff ffff ffff     ................
  409eb4:	ffff ffff ffff ffff ffff ffff ffff ffff     ................
  409ec4:	ffff ffff ffff ffff ffff ffff ffff ffff     ................
  409ed4:	ffff ffff ffff ffff ffff ffff ffff ffff     ................
  409ee4:	ffff ffff ffff ffff ffff ffff ffff ffff     ................
  409ef4:	ffff ffff ffff ffff ffff ffff ffff ffff     ................
  409f04:	ffff ffff ffff ffff ffff ffff ffff ffff     ................
  409f14:	ffff ffff ffff ffff ffff ffff ffff ffff     ................
  409f24:	ffff ffff ffff ffff ffff ffff ffff ffff     ................
  409f34:	ffff ffff ffff ffff ffff ffff ffff ffff     ................
  409f44:	ffff ffff ffff ffff ffff ffff ffff ffff     ................
  409f54:	ffff ffff ffff ffff ffff ffff ffff ffff     ................
  409f64:	ffff ffff ffff ffff ffff ffff ffff ffff     ................
  409f74:	ffff ffff ffff ffff ffff ffff ffff ffff     ................
  409f84:	ffff ffff ffff ffff ffff ffff ffff ffff     ................
  409f94:	ffff ffff ffff ffff ffff ffff ffff ffff     ................
  409fa4:	ffff ffff ffff ffff ffff ffff ffff ffff     ................
  409fb4:	ffff ffff ffff ffff ffff ffff ffff ffff     ................
  409fc4:	ffff ffff ffff ffff ffff ffff ffff ffff     ................
  409fd4:	ffff ffff ffff ffff ffff ffff ffff ffff     ................
  409fe4:	ffff ffff ffff ffff ffff ffff ffff ffff     ................
  409ff4:	ffff ffff ffff ffff ffff ffff ffff ffff     ................
  40a004:	ffff ffff ffff ffff ffff ffff ffff ffff     ................
  40a014:	ffff ffff ffff ffff ffff ffff ffff ffff     ................
  40a024:	ffff ffff ffff ffff ffff ffff ffff ffff     ................
  40a034:	ffff ffff ffff ffff ffff ffff ffff ffff     ................
  40a044:	ffff ffff ffff ffff ffff ffff ffff ffff     ................
  40a054:	ffff ffff ffff ffff ffff ffff ffff ffff     ................
  40a064:	ffff ffff ffff ffff ffff ffff ffff ffff     ................
  40a074:	ffff ffff ffff ffff ffff ffff ffff ffff     ................
  40a084:	ffff ffff ffff ffff ffff ffff ffff ffff     ................
  40a094:	ffff ffff ffff ffff ffff ffff ffff ffff     ................
  40a0a4:	ffff ffff ffff ffff ffff ffff ffff ffff     ................
  40a0b4:	ffff ffff ffff ffff ffff ffff ffff ffff     ................
  40a0c4:	ffff ffff ffff ffff ffff ffff ffff ffff     ................
  40a0d4:	ffff ffff ffff ffff ffff ffff ffff ffff     ................
  40a0e4:	ffff ffff ffff ffff ffff ffff ffff ffff     ................
  40a0f4:	ffff ffff ffff ffff ffff ffff ffff ffff     ................
  40a104:	ffff ffff ffff ffff ffff ffff ffff ffff     ................
  40a114:	ffff ffff ffff ffff ffff ffff ffff ffff     ................
  40a124:	ffff ffff ffff ffff ffff ffff ffff ffff     ................
  40a134:	ffff ffff ffff ffff ffff ffff ffff ffff     ................
  40a144:	ffff ffff ffff ffff ffff ffff ffff ffff     ................
  40a154:	ffff ffff ffff ffff ffff ffff ffff ffff     ................
  40a164:	ffff ffff ffff ffff ffff ffff ffff ffff     ................
  40a174:	ffff ffff ffff ffff ffff ffff ffff ffff     ................
  40a184:	ffff ffff ffff ffff ffff ffff ffff ffff     ................
  40a194:	ffff ffff ffff ffff ffff ffff ffff ffff     ................
  40a1a4:	ffff ffff ffff ffff ffff ffff ffff ffff     ................
  40a1b4:	ffff ffff ffff ffff ffff ffff ffff ffff     ................
  40a1c4:	ffff ffff ffff ffff ffff ffff ffff ffff     ................
  40a1d4:	ffff ffff ffff ffff ffff ffff ffff ffff     ................
  40a1e4:	ffff ffff ffff ffff ffff ffff ffff ffff     ................
  40a1f4:	ffff ffff ffff ffff ffff ffff ffff ffff     ................
  40a204:	ffff ffff ffff ffff ffff ffff ffff ffff     ................
  40a214:	ffff ffff ffff ffff ffff ffff ffff ffff     ................
  40a224:	ffff ffff ffff ffff ffff ffff ffff ffff     ................
  40a234:	ffff ffff ffff ffff ffff ffff ffff ffff     ................
  40a244:	ffff ffff ffff ffff ffff ffff ffff ffff     ................
  40a254:	ffff ffff ffff ffff ffff ffff ffff ffff     ................
  40a264:	ffff ffff ffff ffff ffff ffff ffff ffff     ................
  40a274:	ffff ffff ffff ffff ffff ffff ffff ffff     ................
  40a284:	ffff ffff ffff ffff ffff ffff ffff ffff     ................
  40a294:	ffff ffff ffff ffff ffff ffff ffff ffff     ................
  40a2a4:	ffff ffff ffff ffff ffff ffff ffff ffff     ................
  40a2b4:	ffff ffff ffff ffff ffff ffff ffff ffff     ................
  40a2c4:	ffff ffff ffff ffff ffff ffff ffff ffff     ................
  40a2d4:	ffff ffff ffff ffff ffff ffff ffff ffff     ................
  40a2e4:	ffff ffff ffff ffff ffff ffff ffff ffff     ................
  40a2f4:	ffff ffff ffff ffff ffff ffff ffff ffff     ................
  40a304:	ffff ffff ffff ffff ffff ffff ffff ffff     ................
  40a314:	ffff ffff ffff ffff ffff ffff ffff ffff     ................
  40a324:	ffff ffff ffff ffff ffff ffff ffff ffff     ................
  40a334:	ffff ffff ffff ffff ffff ffff ffff ffff     ................
  40a344:	ffff ffff ffff ffff ffff ffff ffff ffff     ................
  40a354:	ffff ffff ffff ffff ffff ffff ffff ffff     ................
  40a364:	ffff ffff ffff ffff ffff ffff ffff ffff     ................
  40a374:	ffff ffff ffff ffff ffff ffff ffff ffff     ................
  40a384:	ffff ffff ffff ffff ffff ffff ffff ffff     ................
  40a394:	ffff ffff ffff ffff ffff ffff ffff ffff     ................
  40a3a4:	ffff ffff ffff ffff ffff ffff ffff ffff     ................
  40a3b4:	ffff ffff ffff ffff ffff ffff ffff ffff     ................
  40a3c4:	ffff ffff ffff ffff ffff ffff ffff ffff     ................
  40a3d4:	ffff ffff ffff ffff ffff ffff ffff ffff     ................
  40a3e4:	ffff ffff ffff ffff ffff ffff ffff ffff     ................
  40a3f4:	ffff ffff ffff ffff ffff ffff ffff ffff     ................
  40a404:	ffff ffff ffff ffff ffff ffff ffff ffff     ................
  40a414:	ffff ffff ffff ffff ffff ffff ffff ffff     ................
  40a424:	ffff ffff ffff ffff ffff ffff ffff ffff     ................
  40a434:	ffff ffff ffff ffff ffff ffff ffff ffff     ................
  40a444:	ffff ffff ffff ffff ffff ffff ffff ffff     ................
  40a454:	ffff ffff ffff ffff ffff ffff ffff ffff     ................
  40a464:	ffff ffff ffff ffff ffff ffff ffff ffff     ................
  40a474:	ffff ffff ffff ffff ffff ffff ffff ffff     ................
  40a484:	ffff ffff ffff ffff ffff ffff ffff ffff     ................
  40a494:	ffff ffff ffff ffff ffff ffff ffff ffff     ................
  40a4a4:	ffff ffff ffff ffff ffff ffff ffff ffff     ................
  40a4b4:	ffff ffff ffff ffff ffff ffff ffff ffff     ................
  40a4c4:	ffff ffff ffff ffff ffff ffff ffff ffff     ................
  40a4d4:	ffff ffff ffff ffff ffff ffff ffff ffff     ................
  40a4e4:	ffff ffff ffff ffff ffff ffff ffff ffff     ................
  40a4f4:	ffff ffff ffff ffff ffff ffff ffff ffff     ................
  40a504:	ffff ffff ffff ffff ffff ffff ffff ffff     ................
  40a514:	ffff ffff ffff ffff ffff ffff ffff ffff     ................
  40a524:	ffff ffff ffff ffff ffff ffff ffff ffff     ................
  40a534:	ffff ffff ffff ffff ffff ffff ffff ffff     ................
  40a544:	ffff ffff ffff ffff ffff ffff ffff ffff     ................
  40a554:	ffff ffff ffff ffff ffff ffff ffff ffff     ................
  40a564:	ffff ffff ffff ffff ffff ffff ffff ffff     ................
  40a574:	ffff ffff ffff ffff ffff ffff ffff ffff     ................
  40a584:	ffff ffff ffff ffff ffff ffff ffff ffff     ................
  40a594:	ffff ffff ffff ffff ffff ffff ffff ffff     ................
  40a5a4:	ffff ffff ffff ffff ffff ffff ffff ffff     ................
  40a5b4:	ffff ffff ffff ffff ffff ffff ffff ffff     ................
  40a5c4:	ffff ffff ffff ffff ffff ffff ffff ffff     ................
  40a5d4:	ffff ffff ffff ffff ffff ffff ffff ffff     ................
  40a5e4:	ffff ffff ffff ffff ffff ffff ffff ffff     ................
  40a5f4:	ffff ffff ffff ffff ffff ffff ffff ffff     ................
  40a604:	ffff ffff ffff ffff ffff ffff ffff ffff     ................
  40a614:	ffff ffff ffff ffff ffff ffff ffff ffff     ................
  40a624:	ffff ffff ffff ffff ffff ffff ffff ffff     ................
  40a634:	ffff ffff ffff ffff ffff ffff ffff ffff     ................
  40a644:	ffff ffff ffff ffff ffff ffff ffff ffff     ................
  40a654:	ffff ffff ffff ffff ffff ffff ffff ffff     ................
  40a664:	ffff ffff ffff ffff ffff ffff ffff ffff     ................
  40a674:	ffff ffff ffff ffff ffff ffff ffff ffff     ................
  40a684:	ffff ffff ffff ffff ffff ffff ffff ffff     ................
  40a694:	ffff ffff ffff ffff ffff ffff ffff ffff     ................
  40a6a4:	ffff ffff ffff ffff ffff ffff ffff ffff     ................
  40a6b4:	ffff ffff ffff ffff ffff ffff ffff ffff     ................
  40a6c4:	ffff ffff ffff ffff ffff ffff ffff ffff     ................
  40a6d4:	ffff ffff ffff ffff ffff ffff ffff ffff     ................
  40a6e4:	ffff ffff ffff ffff ffff ffff ffff ffff     ................
  40a6f4:	ffff ffff ffff ffff ffff ffff ffff ffff     ................
  40a704:	ffff ffff ffff ffff ffff ffff ffff ffff     ................
  40a714:	ffff ffff ffff ffff ffff ffff ffff ffff     ................
  40a724:	ffff ffff ffff ffff ffff ffff ffff ffff     ................
  40a734:	ffff ffff ffff ffff ffff ffff ffff ffff     ................
  40a744:	ffff ffff ffff ffff ffff ffff ffff ffff     ................
  40a754:	ffff ffff ffff ffff ffff ffff ffff ffff     ................
  40a764:	ffff ffff ffff ffff ffff ffff ffff ffff     ................
  40a774:	ffff ffff ffff ffff ffff ffff ffff ffff     ................
  40a784:	ffff ffff ffff ffff ffff ffff ffff ffff     ................
  40a794:	ffff ffff ffff ffff ffff ffff ffff ffff     ................
  40a7a4:	ffff ffff ffff ffff ffff ffff ffff ffff     ................
  40a7b4:	ffff ffff ffff ffff ffff ffff ffff ffff     ................
  40a7c4:	ffff ffff ffff ffff ffff ffff ffff ffff     ................
  40a7d4:	ffff ffff ffff ffff ffff ffff ffff ffff     ................
  40a7e4:	ffff ffff ffff ffff ffff ffff ffff ffff     ................
  40a7f4:	ffff ffff ffff ffff ffff ffff ffff ffff     ................
  40a804:	ffff ffff ffff ffff ffff ffff ffff ffff     ................
  40a814:	ffff ffff ffff ffff ffff ffff ffff ffff     ................
  40a824:	ffff ffff ffff ffff ffff ffff ffff ffff     ................
  40a834:	ffff ffff ffff ffff ffff ffff ffff ffff     ................
  40a844:	ffff ffff ffff ffff ffff ffff ffff ffff     ................
  40a854:	ffff ffff ffff ffff ffff ffff ffff ffff     ................
  40a864:	ffff ffff ffff ffff ffff ffff ffff ffff     ................
  40a874:	ffff ffff ffff ffff ffff ffff ffff ffff     ................
  40a884:	ffff ffff ffff ffff ffff ffff ffff ffff     ................
  40a894:	ffff ffff ffff ffff ffff ffff ffff ffff     ................
  40a8a4:	ffff ffff ffff ffff ffff ffff ffff ffff     ................
  40a8b4:	ffff ffff ffff ffff ffff ffff ffff ffff     ................
  40a8c4:	ffff ffff ffff ffff ffff ffff ffff ffff     ................
  40a8d4:	ffff ffff ffff ffff ffff ffff ffff ffff     ................
  40a8e4:	ffff ffff ffff ffff ffff ffff ffff ffff     ................
  40a8f4:	ffff ffff ffff ffff ffff ffff ffff ffff     ................
  40a904:	ffff ffff ffff ffff ffff ffff ffff ffff     ................
  40a914:	ffff ffff ffff ffff ffff ffff ffff ffff     ................
  40a924:	ffff ffff ffff ffff ffff ffff ffff ffff     ................
  40a934:	ffff ffff ffff ffff ffff ffff ffff ffff     ................
  40a944:	ffff ffff ffff ffff ffff ffff ffff ffff     ................
  40a954:	ffff ffff ffff ffff ffff ffff ffff ffff     ................
  40a964:	ffff ffff ffff ffff ffff ffff ffff ffff     ................
  40a974:	ffff ffff ffff ffff ffff ffff ffff ffff     ................
  40a984:	ffff ffff ffff ffff ffff ffff ffff ffff     ................
  40a994:	ffff ffff ffff ffff ffff ffff ffff ffff     ................
  40a9a4:	ffff ffff ffff ffff ffff ffff ffff ffff     ................
  40a9b4:	ffff ffff ffff ffff ffff ffff ffff ffff     ................
  40a9c4:	ffff ffff ffff ffff ffff ffff ffff ffff     ................
  40a9d4:	ffff ffff ffff ffff ffff ffff ffff ffff     ................
  40a9e4:	ffff ffff ffff ffff ffff ffff ffff ffff     ................
  40a9f4:	ffff ffff ffff ffff ffff ffff ffff ffff     ................
  40aa04:	ffff ffff ffff ffff ffff ffff ffff ffff     ................
  40aa14:	ffff ffff ffff ffff ffff ffff ffff ffff     ................
  40aa24:	ffff ffff ffff ffff ffff ffff ffff ffff     ................
  40aa34:	ffff ffff ffff ffff ffff ffff ffff ffff     ................
  40aa44:	ffff ffff ffff ffff ffff ffff ffff ffff     ................
  40aa54:	ffff ffff ffff ffff ffff ffff ffff ffff     ................
  40aa64:	ffff ffff ffff ffff ffff ffff ffff ffff     ................
  40aa74:	ffff ffff ffff ffff ffff ffff ffff ffff     ................
  40aa84:	ffff ffff ffff ffff ffff ffff ffff ffff     ................
  40aa94:	ffff ffff ffff ffff ffff ffff ffff ffff     ................
  40aaa4:	ffff ffff ffff ffff ffff ffff ffff ffff     ................
  40aab4:	ffff ffff ffff ffff ffff ffff ffff ffff     ................
  40aac4:	ffff ffff ffff ffff ffff ffff ffff ffff     ................
  40aad4:	ffff ffff ffff ffff ffff ffff ffff ffff     ................
  40aae4:	ffff ffff ffff ffff ffff ffff ffff ffff     ................
  40aaf4:	ffff ffff ffff ffff ffff ffff ffff ffff     ................
  40ab04:	ffff ffff ffff ffff ffff ffff ffff ffff     ................
  40ab14:	ffff ffff ffff ffff ffff ffff ffff ffff     ................
  40ab24:	ffff ffff ffff ffff ffff ffff ffff ffff     ................
  40ab34:	ffff ffff ffff ffff ffff ffff ffff ffff     ................
  40ab44:	ffff ffff ffff ffff ffff ffff ffff ffff     ................
  40ab54:	ffff ffff ffff ffff ffff ffff ffff ffff     ................
  40ab64:	ffff ffff ffff ffff ffff ffff ffff ffff     ................
  40ab74:	ffff ffff ffff ffff ffff ffff ffff ffff     ................
  40ab84:	ffff ffff ffff ffff ffff ffff ffff ffff     ................
  40ab94:	ffff ffff ffff ffff ffff ffff ffff ffff     ................
  40aba4:	ffff ffff ffff ffff ffff ffff ffff ffff     ................
  40abb4:	ffff ffff ffff ffff ffff ffff ffff ffff     ................
  40abc4:	ffff ffff ffff ffff ffff ffff ffff ffff     ................
  40abd4:	ffff ffff ffff ffff ffff ffff ffff ffff     ................
  40abe4:	ffff ffff ffff ffff ffff ffff ffff ffff     ................
  40abf4:	ffff ffff ffff ffff ffff ffff ffff ffff     ................
  40ac04:	ffff ffff ffff ffff ffff ffff ffff ffff     ................
  40ac14:	ffff ffff ffff ffff ffff ffff ffff ffff     ................
  40ac24:	ffff ffff ffff ffff ffff ffff ffff ffff     ................
  40ac34:	ffff ffff ffff ffff ffff ffff ffff ffff     ................
  40ac44:	ffff ffff ffff ffff ffff ffff ffff ffff     ................
  40ac54:	ffff ffff ffff ffff ffff ffff ffff ffff     ................
  40ac64:	ffff ffff ffff ffff ffff ffff ffff ffff     ................
  40ac74:	ffff ffff ffff ffff ffff ffff ffff ffff     ................
  40ac84:	ffff ffff ffff ffff ffff ffff ffff ffff     ................
  40ac94:	ffff ffff ffff ffff ffff ffff ffff ffff     ................
  40aca4:	ffff ffff ffff ffff ffff ffff ffff ffff     ................
  40acb4:	ffff ffff ffff ffff ffff ffff ffff ffff     ................
  40acc4:	ffff ffff ffff ffff ffff ffff ffff ffff     ................
  40acd4:	ffff ffff ffff ffff ffff ffff ffff ffff     ................
  40ace4:	ffff ffff ffff ffff ffff ffff ffff ffff     ................
  40acf4:	ffff ffff ffff ffff ffff ffff ffff ffff     ................
  40ad04:	ffff ffff ffff ffff ffff ffff ffff ffff     ................
  40ad14:	ffff ffff ffff ffff ffff ffff ffff ffff     ................
  40ad24:	ffff ffff ffff ffff ffff ffff ffff ffff     ................
  40ad34:	ffff ffff ffff ffff ffff ffff ffff ffff     ................
  40ad44:	ffff ffff ffff ffff ffff ffff ffff ffff     ................
  40ad54:	ffff ffff ffff ffff ffff ffff ffff ffff     ................
  40ad64:	ffff ffff ffff ffff ffff ffff ffff ffff     ................
  40ad74:	ffff ffff ffff ffff ffff ffff ffff ffff     ................
  40ad84:	ffff ffff ffff ffff ffff ffff ffff ffff     ................
  40ad94:	ffff ffff ffff ffff ffff ffff ffff ffff     ................
  40ada4:	ffff ffff ffff ffff ffff ffff ffff ffff     ................
  40adb4:	ffff ffff ffff ffff ffff ffff ffff ffff     ................
  40adc4:	ffff ffff ffff ffff ffff ffff ffff ffff     ................
  40add4:	ffff ffff ffff ffff ffff ffff ffff ffff     ................
  40ade4:	ffff ffff ffff ffff ffff ffff ffff ffff     ................
  40adf4:	ffff ffff ffff ffff ffff ffff ffff ffff     ................
  40ae04:	ffff ffff ffff ffff ffff ffff ffff ffff     ................
  40ae14:	ffff ffff ffff ffff ffff ffff ffff ffff     ................
  40ae24:	ffff ffff ffff ffff ffff ffff ffff ffff     ................
  40ae34:	ffff ffff ffff ffff ffff ffff ffff ffff     ................
  40ae44:	ffff ffff ffff ffff ffff ffff ffff ffff     ................
  40ae54:	ffff ffff ffff ffff ffff ffff ffff ffff     ................
  40ae64:	ffff ffff ffff ffff ffff ffff ffff ffff     ................
  40ae74:	ffff ffff ffff ffff ffff ffff ffff ffff     ................
  40ae84:	ffff ffff ffff ffff ffff ffff ffff ffff     ................
  40ae94:	ffff ffff ffff ffff ffff ffff ffff ffff     ................
  40aea4:	ffff ffff ffff ffff ffff ffff ffff ffff     ................
  40aeb4:	ffff ffff ffff ffff ffff ffff ffff ffff     ................
  40aec4:	ffff ffff ffff ffff ffff ffff ffff ffff     ................
  40aed4:	ffff ffff ffff ffff ffff ffff ffff ffff     ................
  40aee4:	ffff ffff ffff ffff ffff ffff ffff ffff     ................
  40aef4:	ffff ffff ffff ffff ffff ffff ffff ffff     ................
  40af04:	ffff ffff ffff ffff ffff ffff ffff ffff     ................
  40af14:	ffff ffff ffff ffff ffff ffff ffff ffff     ................
  40af24:	ffff ffff ffff ffff ffff ffff ffff ffff     ................
  40af34:	ffff ffff ffff ffff ffff ffff ffff ffff     ................
  40af44:	ffff ffff ffff ffff ffff ffff ffff ffff     ................
  40af54:	ffff ffff ffff ffff ffff ffff ffff ffff     ................
  40af64:	ffff ffff ffff ffff ffff ffff ffff ffff     ................
  40af74:	ffff ffff ffff ffff ffff ffff ffff ffff     ................
  40af84:	ffff ffff ffff ffff ffff ffff ffff ffff     ................
  40af94:	ffff ffff ffff ffff ffff ffff ffff ffff     ................
  40afa4:	ffff ffff ffff ffff ffff ffff ffff ffff     ................
  40afb4:	ffff ffff ffff ffff ffff ffff ffff ffff     ................
  40afc4:	ffff ffff ffff ffff ffff ffff ffff ffff     ................
  40afd4:	ffff ffff ffff ffff ffff ffff ffff ffff     ................
  40afe4:	ffff ffff ffff ffff ffff ffff ffff ffff     ................
  40aff4:	ffff ffff ffff ffff ffff ffff ffff ffff     ................
  40b004:	ffff ffff ffff ffff ffff ffff ffff ffff     ................
  40b014:	ffff ffff ffff ffff ffff ffff ffff ffff     ................
  40b024:	ffff ffff ffff ffff ffff ffff ffff ffff     ................
  40b034:	ffff ffff ffff ffff ffff ffff ffff ffff     ................
  40b044:	ffff ffff ffff ffff ffff ffff ffff ffff     ................
  40b054:	ffff ffff ffff ffff ffff ffff ffff ffff     ................
  40b064:	ffff ffff ffff ffff ffff ffff ffff ffff     ................
  40b074:	ffff ffff ffff ffff ffff ffff ffff ffff     ................
  40b084:	ffff ffff ffff ffff ffff ffff ffff ffff     ................
  40b094:	ffff ffff ffff ffff ffff ffff ffff ffff     ................
  40b0a4:	ffff ffff ffff ffff ffff ffff ffff ffff     ................
  40b0b4:	ffff ffff ffff ffff ffff ffff ffff ffff     ................
  40b0c4:	ffff ffff ffff ffff ffff ffff ffff ffff     ................
  40b0d4:	ffff ffff ffff ffff ffff ffff ffff ffff     ................
  40b0e4:	ffff ffff ffff ffff ffff ffff ffff ffff     ................
  40b0f4:	ffff ffff ffff ffff ffff ffff ffff ffff     ................
  40b104:	ffff ffff ffff ffff ffff ffff ffff ffff     ................
  40b114:	ffff ffff ffff ffff ffff ffff ffff ffff     ................
  40b124:	ffff ffff ffff ffff ffff ffff ffff ffff     ................
  40b134:	ffff ffff ffff ffff ffff ffff ffff ffff     ................
  40b144:	ffff ffff ffff ffff ffff ffff ffff feff     ................
  40b154:	ffff fffd feff fffe fefe fffe fcfe feff     ................
  40b164:	fffc fdfe feff fffd fffe fefe feff fefe     ................
  40b174:	feff fffd fefe feff ffff ffff ffff ffff     ................
  40b184:	ffff ffff ffff ffff ffff ffff ffff ffff     ................
  40b194:	ffff ffff ffff ffff ffff ffff ffff ffff     ................
  40b1a4:	ffff ffff ffff ffff ffff ffff ffff ffff     ................
  40b1b4:	ffff ffff ffff ffff ffff ffff ffff ffff     ................
  40b1c4:	ffff ffff ffff ffff ffff ffff ffff ffff     ................
  40b1d4:	ffff ffff ffff ffff ffff ffff ffff ffff     ................
  40b1e4:	ffff ffff ffff ffff ffff ffff ffff ffff     ................
  40b1f4:	ffff ffff ffff ffff ffff ffff ffff ffff     ................
  40b204:	ffff ffff ffff ffff ffff ffff ffff ffff     ................
  40b214:	ffff ffff ffff ffff ffff ffff ffff ffff     ................
  40b224:	ffff ffff ffff ffff ffff ffff ffff ffff     ................
  40b234:	ffff ffff ffff ffff ffff ffff ffff ffff     ................
  40b244:	ffff ffff ffff ffff ffff ffff ffff ffff     ................
  40b254:	ffff ffff ffff ffff ffff ffff ffff ffff     ................
  40b264:	ffff ffff ffff ffff ffff ffff ffff ffff     ................
  40b274:	ffff ffff ffff ffff ffff ffff ffff ffff     ................
  40b284:	ffff ffff ffff ffff ffff ffff ffff ffff     ................
  40b294:	ffff ffff ffff ffff ffff ffff ffff ffff     ................
  40b2a4:	ffff ffff ffff ffff ffff ffff ffff ffff     ................
  40b2b4:	ffff ffff ffff ffff ffff ffff ffff ffff     ................
  40b2c4:	ffff ffff ffff ffff ffff ffff ffff ffff     ................
  40b2d4:	ffff ffff ffff ffff ffff ffff ffff ffff     ................
  40b2e4:	ffff ffff ffff ffff ffff ffff ffff ffff     ................
  40b2f4:	ffff ffff ffff ffff ffff ffff ffff ffff     ................
  40b304:	ffff ffff ffff ffff ffff ffff ffff ffff     ................
  40b314:	ffff ffff ffff ffff ffff ffff ffff ffff     ................
  40b324:	ffff ffff ffff ffff ffff ffff ffff ffff     ................
  40b334:	ffff ffff ffff ffff ffff ffff ffff ffff     ................
  40b344:	ffff ffff ffff ffff ffff ffff ffff ffff     ................
  40b354:	ffff ffff ffff ffff ffff ffff ffff ffff     ................
  40b364:	ffff ffff ffff ffff ffff ffff ffff ffff     ................
  40b374:	ffff ffff ffff ffff ffff ffff ffff ffff     ................
  40b384:	ffff ffff ffff ffff ffff ffff ffff ffff     ................
  40b394:	ffff ffff ffff ffff ffff ffff ffff ffff     ................
  40b3a4:	ffff ffff ffff ffff ffff ffff ffff ffff     ................
  40b3b4:	ffff ffff ffff ffff ffff ffff ffff ffff     ................
  40b3c4:	ffff ffff ffff ffff ffff ffff ffff ffff     ................
  40b3d4:	ffff ffff ffff ffff ffff ffff ffff ffff     ................
  40b3e4:	ffff ffff ffff ffff ffff ffff ffff ffff     ................
  40b3f4:	ffff ffff ffff ffff ffff ffff ffff ffff     ................
  40b404:	ffff ffff ffff ffff ffff ffff ffff ffff     ................
  40b414:	ffff ffff ffff ffff ffff ffff ffff ffff     ................
  40b424:	ffff ffff ffff ffff ffff ffff ffff ffff     ................
  40b434:	ffff ffff ffff ffff ffff ffff ffff ffff     ................
  40b444:	ffff ffff ffff ffff ffff ffff ffff ffff     ................
  40b454:	ffff ffff ffff ffff ffff ffff ffff ffff     ................
  40b464:	ffff ffff ffff ffff ffff ffff ffff ffff     ................
  40b474:	ffff ffff ffff ffff ffff ffff ffff ffff     ................
  40b484:	ffff ffff ffff ffff ffff ffff ffff ffff     ................
  40b494:	ffff ffff ffff ffff ffff ffff ffff ffff     ................
  40b4a4:	ffff ffff ffff ffff ffff ffff ffff ffff     ................
  40b4b4:	ffff ffff ffff ffff ffff ffff ffff ffff     ................
  40b4c4:	ffff ffff ffff ffff ffff ffff ffff ffff     ................
  40b4d4:	ffff ffff ffff ffff ffff ffff ffff ffff     ................
  40b4e4:	ffff ffff ffff ffff ffff ffff ffff ffff     ................
  40b4f4:	ffff ffff ffff ffff ffff ffff ffff ffff     ................
  40b504:	ffff ffff ffff ffff ffff ffff fffe fdfc     ................
  40b514:	fcfe fefe fdfe fefd fefe fcfb fbfd fefd     ................
  40b524:	fcfd fcfe fefe fdfe fefe fdfe fdfd fdfd     ................
  40b534:	fdfd fefe fffe ffff ffff ffff ffff ffff     ................
  40b544:	ffff ffff ffff ffff ffff ffff ffff ffff     ................
  40b554:	ffff ffff ffff ffff ffff ffff ffff ffff     ................
  40b564:	ffff ffff ffff ffff ffff ffff ffff ffff     ................
  40b574:	ffff ffff ffff ffff ffff ffff ffff ffff     ................
  40b584:	ffff ffff ffff ffff ffff ffff ffff ffff     ................
  40b594:	ffff ffff ffff ffff ffff ffff ffff ffff     ................
  40b5a4:	ffff ffff ffff ffff ffff ffff ffff ffff     ................
  40b5b4:	ffff ffff ffff ffff ffff ffff ffff ffff     ................
  40b5c4:	ffff ffff ffff ffff ffff ffff ffff ffff     ................
  40b5d4:	ffff ffff ffff ffff ffff ffff ffff ffff     ................
  40b5e4:	ffff ffff ffff ffff ffff ffff ffff ffff     ................
  40b5f4:	ffff ffff ffff ffff ffff ffff ffff ffff     ................
  40b604:	ffff ffff ffff ffff ffff ffff ffff ffff     ................
  40b614:	ffff ffff ffff ffff ffff ffff ffff ffff     ................
  40b624:	ffff ffff ffff ffff ffff ffff ffff ffff     ................
  40b634:	ffff ffff ffff ffff ffff ffff ffff ffff     ................
  40b644:	ffff ffff ffff ffff ffff ffff ffff ffff     ................
  40b654:	ffff ffff ffff ffff ffff ffff ffff ffff     ................
  40b664:	ffff ffff ffff ffff ffff ffff ffff ffff     ................
  40b674:	ffff ffff ffff ffff ffff ffff ffff ffff     ................
  40b684:	ffff ffff ffff ffff ffff ffff ffff ffff     ................
  40b694:	ffff ffff ffff ffff ffff ffff ffff ffff     ................
  40b6a4:	ffff ffff ffff ffff ffff ffff ffff ffff     ................
  40b6b4:	ffff ffff ffff ffff ffff ffff ffff ffff     ................
  40b6c4:	ffff ffff ffff ffff ffff ffff ffff ffff     ................
  40b6d4:	ffff ffff ffff ffff ffff ffff ffff ffff     ................
  40b6e4:	ffff ffff ffff ffff ffff ffff ffff ffff     ................
  40b6f4:	ffff ffff ffff ffff ffff ffff ffff ffff     ................
  40b704:	ffff ffff ffff ffff ffff ffff ffff ffff     ................
  40b714:	ffff ffff ffff ffff ffff ffff ffff ffff     ................
  40b724:	ffff ffff ffff ffff ffff ffff ffff ffff     ................
  40b734:	ffff ffff ffff ffff ffff ffff ffff ffff     ................
  40b744:	ffff ffff ffff ffff ffff ffff ffff ffff     ................
  40b754:	ffff ffff ffff ffff ffff ffff ffff ffff     ................
  40b764:	ffff ffff ffff ffff ffff ffff ffff ffff     ................
  40b774:	ffff ffff ffff ffff ffff ffff ffff ffff     ................
  40b784:	ffff ffff ffff ffff ffff ffff ffff ffff     ................
  40b794:	ffff ffff ffff ffff ffff ffff ffff ffff     ................
  40b7a4:	ffff ffff ffff ffff ffff ffff ffff ffff     ................
  40b7b4:	ffff ffff ffff ffff ffff ffff ffff ffff     ................
  40b7c4:	ffff ffff ffff ffff ffff ffff ffff ffff     ................
  40b7d4:	ffff ffff ffff ffff ffff ffff ffff ffff     ................
  40b7e4:	ffff ffff ffff ffff ffff ffff ffff ffff     ................
  40b7f4:	ffff ffff ffff ffff ffff ffff ffff ffff     ................
  40b804:	ffff ffff ffff ffff ffff ffff ffff ffff     ................
  40b814:	ffff ffff ffff ffff ffff ffff ffff ffff     ................
  40b824:	ffff ffff ffff ffff ffff ffff ffff ffff     ................
  40b834:	ffff ffff ffff ffff ffff ffff ffff ffff     ................
  40b844:	ffff ffff ffff ffff ffff ffff ffff ffff     ................
  40b854:	ffff ffff ffff ffff ffff ffff ffff ffff     ................
  40b864:	ffff ffff ffff ffff ffff ffff ffff ffff     ................
  40b874:	ffff ffff ffff ffff ffff ffff ffff ffff     ................
  40b884:	ffff ffff ffff ffff ffff ffff ffff ffff     ................
  40b894:	ffff ffff ffff ffff ffff ffff ffff ffff     ................
  40b8a4:	ffff ffff ffff ffff ffff ffff ffff ffff     ................
  40b8b4:	ffff ffff ffff ffff ffff ffff ffff ffff     ................
  40b8c4:	ffff ffff ffff ffff fffc fbfd fcfe fbfc     ................
  40b8d4:	fefb fefe fdfe fdff fffd fcfe fcff fffe     ................
  40b8e4:	fefd faff fffe fffb fcff fefe fefb fdfe     ................
  40b8f4:	fffe ffff ffff ffff ffff ffff ffff ffff     ................
  40b904:	ffff ffff ffff ffff ffff ffff ffff ffff     ................
  40b914:	ffff ffff ffff ffff ffff ffff ffff ffff     ................
  40b924:	ffff ffff ffff ffff ffff ffff ffff ffff     ................
  40b934:	ffff ffff ffff ffff ffff ffff ffff ffff     ................
  40b944:	ffff ffff ffff ffff ffff ffff ffff ffff     ................
  40b954:	ffff ffff ffff ffff ffff ffff ffff ffff     ................
  40b964:	ffff ffff ffff ffff ffff ffff ffff ffff     ................
  40b974:	ffff ffff ffff ffff ffff ffff ffff ffff     ................
  40b984:	ffff ffff ffff ffff ffff ffff ffff ffff     ................
  40b994:	ffff ffff ffff ffff ffff ffff ffff ffff     ................
  40b9a4:	ffff ffff ffff ffff ffff ffff ffff ffff     ................
  40b9b4:	ffff ffff ffff ffff ffff ffff ffff ffff     ................
  40b9c4:	ffff ffff ffff ffff ffff ffff ffff ffff     ................
  40b9d4:	ffff ffff ffff ffff ffff ffff ffff ffff     ................
  40b9e4:	ffff ffff ffff ffff ffff ffff ffff ffff     ................
  40b9f4:	ffff ffff ffff ffff ffff ffff ffff ffff     ................
  40ba04:	ffff ffff ffff ffff ffff ffff ffff ffff     ................
  40ba14:	ffff ffff ffff ffff ffff ffff ffff ffff     ................
  40ba24:	ffff ffff ffff ffff ffff ffff ffff ffff     ................
  40ba34:	ffff ffff ffff ffff ffff ffff ffff ffff     ................
  40ba44:	ffff ffff ffff ffff ffff ffff ffff ffff     ................
  40ba54:	ffff ffff ffff ffff ffff ffff ffff ffff     ................
  40ba64:	ffff ffff ffff ffff ffff ffff ffff ffff     ................
  40ba74:	ffff ffff ffff ffff ffff ffff ffff ffff     ................
  40ba84:	ffff ffff ffff ffff ffff ffff ffff ffff     ................
  40ba94:	ffff ffff ffff ffff ffff ffff ffff ffff     ................
  40baa4:	ffff ffff ffff ffff ffff ffff ffff ffff     ................
  40bab4:	ffff ffff ffff ffff ffff ffff ffff ffff     ................
  40bac4:	ffff ffff ffff ffff ffff ffff ffff ffff     ................
  40bad4:	ffff ffff ffff ffff ffff ffff ffff ffff     ................
  40bae4:	ffff ffff ffff ffff ffff ffff ffff ffff     ................
  40baf4:	ffff ffff ffff ffff ffff ffff ffff ffff     ................
  40bb04:	ffff ffff ffff ffff ffff ffff ffff ffff     ................
  40bb14:	ffff ffff ffff ffff ffff ffff ffff ffff     ................
  40bb24:	ffff ffff ffff ffff ffff ffff ffff ffff     ................
  40bb34:	ffff ffff ffff ffff ffff ffff ffff ffff     ................
  40bb44:	ffff ffff ffff ffff ffff ffff ffff ffff     ................
  40bb54:	ffff ffff ffff ffff ffff ffff ffff ffff     ................
  40bb64:	ffff ffff ffff ffff ffff ffff ffff ffff     ................
  40bb74:	ffff ffff ffff ffff ffff ffff ffff ffff     ................
  40bb84:	ffff ffff ffff ffff ffff ffff ffff ffff     ................
  40bb94:	ffff ffff ffff ffff ffff ffff ffff ffff     ................
  40bba4:	ffff ffff ffff ffff ffff ffff ffff ffff     ................
  40bbb4:	ffff ffff ffff ffff ffff ffff ffff ffff     ................
  40bbc4:	ffff ffff ffff ffff ffff ffff ffff ffff     ................
  40bbd4:	ffff ffff ffff ffff ffff ffff ffff ffff     ................
  40bbe4:	ffff ffff ffff ffff ffff ffff ffff ffff     ................
  40bbf4:	ffff ffff ffff ffff ffff ffff ffff ffff     ................
  40bc04:	ffff ffff ffff ffff ffff ffff ffff ffff     ................
  40bc14:	ffff ffff ffff ffff ffff ffff ffff ffff     ................
  40bc24:	ffff ffff ffff ffff ffff ffff ffff ffff     ................
  40bc34:	ffff ffff ffff ffff ffff ffff ffff ffff     ................
  40bc44:	ffff ffff ffff ffff ffff ffff ffff ffff     ................
  40bc54:	ffff ffff ffff ffff ffff ffff ffff ffff     ................
  40bc64:	ffff ffff ffff ffff ffff ffff ffff ffff     ................
  40bc74:	ffff ffff ffff ffff ffff ffff ffff ffff     ................
  40bc84:	ffff ffff fdff fffe fefd feff fffd fefd     ................
  40bc94:	fdfe fdfd f9fe faf9 f5f7 f4fd fdef f1f0     ................
  40bca4:	fdfa fcfc fefd fdfe fdfe fefe fefe fffe     ................
  40bcb4:	ffff ffff ffff ffff ffff ffff ffff ffff     ................
  40bcc4:	ffff ffff ffff ffff ffff ffff ffff ffff     ................
  40bcd4:	ffff ffff ffff ffff ffff ffff ffff ffff     ................
  40bce4:	ffff ffff ffff ffff ffff ffff ffff ffff     ................
  40bcf4:	ffff ffff ffff ffff ffff ffff ffff ffff     ................
  40bd04:	ffff ffff ffff ffff ffff ffff ffff ffff     ................
  40bd14:	ffff ffff ffff ffff ffff ffff ffff ffff     ................
  40bd24:	ffff ffff ffff ffff ffff ffff ffff ffff     ................
  40bd34:	ffff ffff ffff ffff ffff ffff ffff ffff     ................
  40bd44:	ffff ffff ffff ffff ffff ffff ffff ffff     ................
  40bd54:	ffff ffff ffff ffff ffff ffff ffff ffff     ................
  40bd64:	ffff ffff ffff ffff ffff ffff ffff ffff     ................
  40bd74:	ffff ffff ffff ffff ffff ffff ffff ffff     ................
  40bd84:	ffff ffff ffff ffff ffff ffff ffff ffff     ................
  40bd94:	ffff ffff ffff ffff ffff ffff ffff ffff     ................
  40bda4:	ffff ffff ffff ffff ffff ffff ffff ffff     ................
  40bdb4:	ffff ffff ffff ffff ffff ffff ffff ffff     ................
  40bdc4:	ffff ffff ffff ffff ffff ffff ffff ffff     ................
  40bdd4:	ffff ffff ffff ffff ffff ffff ffff ffff     ................
  40bde4:	ffff ffff ffff ffff ffff ffff ffff ffff     ................
  40bdf4:	ffff ffff ffff ffff ffff ffff ffff ffff     ................
  40be04:	ffff ffff ffff ffff ffff ffff ffff ffff     ................
  40be14:	ffff ffff ffff ffff ffff ffff ffff ffff     ................
  40be24:	ffff ffff ffff ffff ffff ffff ffff ffff     ................
  40be34:	ffff ffff ffff ffff ffff ffff ffff ffff     ................
  40be44:	ffff ffff ffff ffff ffff ffff ffff ffff     ................
  40be54:	ffff ffff ffff ffff ffff ffff ffff ffff     ................
  40be64:	ffff ffff ffff ffff ffff ffff ffff ffff     ................
  40be74:	ffff ffff ffff ffff ffff ffff ffff ffff     ................
  40be84:	ffff ffff ffff ffff ffff ffff ffff ffff     ................
  40be94:	ffff ffff ffff ffff ffff ffff ffff ffff     ................
  40bea4:	ffff ffff ffff ffff ffff ffff ffff ffff     ................
  40beb4:	ffff ffff ffff ffff ffff ffff ffff ffff     ................
  40bec4:	ffff ffff ffff ffff ffff ffff ffff ffff     ................
  40bed4:	ffff ffff ffff ffff ffff ffff ffff ffff     ................
  40bee4:	ffff ffff ffff ffff ffff ffff ffff ffff     ................
  40bef4:	ffff ffff ffff ffff ffff ffff ffff ffff     ................
  40bf04:	ffff ffff ffff ffff ffff ffff ffff ffff     ................
  40bf14:	ffff ffff ffff ffff ffff ffff ffff ffff     ................
  40bf24:	ffff ffff ffff ffff ffff ffff ffff ffff     ................
  40bf34:	ffff ffff ffff ffff ffff ffff ffff ffff     ................
  40bf44:	ffff ffff ffff ffff ffff ffff ffff ffff     ................
  40bf54:	ffff ffff ffff ffff ffff ffff ffff ffff     ................
  40bf64:	ffff ffff ffff ffff ffff ffff ffff ffff     ................
  40bf74:	ffff ffff ffff ffff ffff ffff ffff ffff     ................
  40bf84:	ffff ffff ffff ffff ffff ffff ffff ffff     ................
  40bf94:	ffff ffff ffff ffff ffff ffff ffff ffff     ................
  40bfa4:	ffff ffff ffff ffff ffff ffff ffff ffff     ................
  40bfb4:	ffff ffff ffff ffff ffff ffff ffff ffff     ................
  40bfc4:	ffff ffff ffff ffff ffff ffff ffff ffff     ................
  40bfd4:	ffff ffff ffff ffff ffff ffff ffff ffff     ................
  40bfe4:	ffff ffff ffff ffff ffff ffff ffff ffff     ................
  40bff4:	ffff ffff ffff ffff ffff ffff ffff ffff     ................
  40c004:	ffff ffff ffff ffff ffff ffff ffff ffff     ................
  40c014:	ffff ffff ffff ffff ffff ffff ffff ffff     ................
  40c024:	ffff ffff ffff ffff ffff ffff ffff ffff     ................
  40c034:	ffff ffff ffff ffff ffff ffff ffff ffff     ................
  40c044:	ffff feff feff fefd fdfe fcfc eded c0f0     ................
  40c054:	e8c5 9a8d 64e1 d679 6651 70e1 f985 e0df     .....dy.Qf.p....
  40c064:	fdfd fefc fefe fefe fefb fcfe ffff ffff     ................
  40c074:	ffff ffff ffff ffff ffff ffff ffff ffff     ................
  40c084:	ffff ffff ffff ffff ffff ffff ffff ffff     ................
  40c094:	ffff ffff ffff ffff ffff ffff ffff ffff     ................
  40c0a4:	ffff ffff ffff ffff ffff ffff ffff ffff     ................
  40c0b4:	ffff ffff ffff ffff ffff ffff ffff ffff     ................
  40c0c4:	ffff ffff ffff ffff ffff ffff ffff ffff     ................
  40c0d4:	ffff ffff ffff ffff ffff ffff ffff ffff     ................
  40c0e4:	ffff ffff ffff ffff ffff ffff ffff ffff     ................
  40c0f4:	ffff ffff ffff ffff ffff ffff ffff ffff     ................
  40c104:	ffff ffff ffff ffff ffff ffff ffff ffff     ................
  40c114:	ffff ffff ffff ffff ffff ffff ffff ffff     ................
  40c124:	ffff ffff ffff ffff ffff ffff ffff ffff     ................
  40c134:	ffff ffff ffff ffff ffff ffff ffff ffff     ................
  40c144:	ffff ffff ffff ffff ffff ffff ffff ffff     ................
  40c154:	ffff ffff ffff ffff ffff ffff ffff ffff     ................
  40c164:	ffff ffff ffff ffff ffff ffff ffff ffff     ................
  40c174:	ffff ffff ffff ffff ffff ffff ffff ffff     ................
  40c184:	ffff ffff ffff ffff ffff ffff ffff ffff     ................
  40c194:	ffff ffff ffff ffff ffff ffff ffff ffff     ................
  40c1a4:	ffff ffff ffff ffff ffff ffff ffff ffff     ................
  40c1b4:	ffff ffff ffff ffff ffff ffff ffff ffff     ................
  40c1c4:	ffff ffff ffff ffff ffff ffff ffff ffff     ................
  40c1d4:	ffff ffff ffff ffff ffff ffff ffff ffff     ................
  40c1e4:	ffff ffff ffff ffff ffff ffff ffff ffff     ................
  40c1f4:	ffff ffff ffff ffff ffff ffff ffff ffff     ................
  40c204:	ffff ffff ffff ffff ffff ffff ffff ffff     ................
  40c214:	ffff ffff ffff ffff ffff ffff ffff ffff     ................
  40c224:	ffff ffff ffff ffff ffff ffff ffff ffff     ................
  40c234:	ffff ffff ffff ffff ffff ffff ffff ffff     ................
  40c244:	ffff ffff ffff ffff ffff ffff ffff ffff     ................
  40c254:	ffff ffff ffff ffff ffff ffff ffff ffff     ................
  40c264:	ffff ffff ffff ffff ffff ffff ffff ffff     ................
  40c274:	ffff ffff ffff ffff ffff ffff ffff ffff     ................
  40c284:	ffff ffff ffff ffff ffff ffff ffff ffff     ................
  40c294:	ffff ffff ffff ffff ffff ffff ffff ffff     ................
  40c2a4:	ffff ffff ffff ffff ffff ffff ffff ffff     ................
  40c2b4:	ffff ffff ffff ffff ffff ffff ffff ffff     ................
  40c2c4:	ffff ffff ffff ffff ffff ffff ffff ffff     ................
  40c2d4:	ffff ffff ffff ffff ffff ffff ffff ffff     ................
  40c2e4:	ffff ffff ffff ffff ffff ffff ffff ffff     ................
  40c2f4:	ffff ffff ffff ffff ffff ffff ffff ffff     ................
  40c304:	ffff ffff ffff ffff ffff ffff ffff ffff     ................
  40c314:	ffff ffff ffff ffff ffff ffff ffff ffff     ................
  40c324:	ffff ffff ffff ffff ffff ffff ffff ffff     ................
  40c334:	ffff ffff ffff ffff ffff ffff ffff ffff     ................
  40c344:	ffff ffff ffff ffff ffff ffff ffff ffff     ................
  40c354:	ffff ffff ffff ffff ffff ffff ffff ffff     ................
  40c364:	ffff ffff ffff ffff ffff ffff ffff ffff     ................
  40c374:	ffff ffff ffff ffff ffff ffff ffff ffff     ................
  40c384:	ffff ffff ffff ffff ffff ffff ffff ffff     ................
  40c394:	ffff ffff ffff ffff ffff ffff ffff ffff     ................
  40c3a4:	ffff ffff ffff ffff ffff ffff ffff ffff     ................
  40c3b4:	ffff ffff ffff ffff ffff ffff ffff ffff     ................
  40c3c4:	ffff ffff ffff ffff ffff ffff ffff ffff     ................
  40c3d4:	ffff ffff ffff ffff ffff ffff ffff ffff     ................
  40c3e4:	ffff ffff ffff ffff ffff ffff ffff ffff     ................
  40c3f4:	ffff ffff ffff ffff ffff ffff ffff feff     ................
  40c404:	fefe fdfe f2fb cecb 67dc ce7b 4324 10cb     .........g{.$C..
  40c414:	ce33 2e0a 0cc9 d029 4d31 cff4 ffd0 fdfe     3.....).1M......
  40c424:	fefd fefe fdfe fffe fffd ffff ffff ffff     ................
  40c434:	ffff ffff ffff ffff ffff ffff ffff ffff     ................
  40c444:	ffff ffff ffff ffff ffff ffff ffff ffff     ................
  40c454:	ffff ffff ffff ffff ffff ffff ffff ffff     ................
  40c464:	ffff ffff ffff ffff ffff ffff ffff ffff     ................
  40c474:	ffff ffff ffff ffff ffff ffff ffff ffff     ................
  40c484:	ffff ffff ffff ffff ffff ffff ffff ffff     ................
  40c494:	ffff ffff ffff ffff ffff ffff ffff ffff     ................
  40c4a4:	ffff ffff ffff ffff ffff ffff ffff ffff     ................
  40c4b4:	ffff ffff ffff ffff ffff ffff ffff ffff     ................
  40c4c4:	ffff ffff ffff ffff ffff ffff ffff ffff     ................
  40c4d4:	ffff ffff ffff ffff ffff ffff ffff ffff     ................
  40c4e4:	ffff ffff ffff ffff ffff ffff ffff ffff     ................
  40c4f4:	ffff ffff ffff ffff ffff ffff ffff ffff     ................
  40c504:	ffff ffff ffff ffff ffff ffff ffff ffff     ................
  40c514:	ffff ffff ffff ffff ffff ffff ffff ffff     ................
  40c524:	ffff ffff ffff ffff ffff ffff ffff ffff     ................
  40c534:	ffff ffff ffff ffff ffff ffff ffff ffff     ................
  40c544:	ffff ffff ffff ffff ffff ffff ffff ffff     ................
  40c554:	ffff ffff ffff ffff ffff ffff ffff ffff     ................
  40c564:	ffff ffff ffff ffff ffff ffff ffff ffff     ................
  40c574:	ffff ffff ffff ffff ffff ffff ffff ffff     ................
  40c584:	ffff ffff ffff ffff ffff ffff ffff ffff     ................
  40c594:	ffff ffff ffff ffff ffff ffff ffff ffff     ................
  40c5a4:	ffff ffff ffff ffff ffff ffff ffff ffff     ................
  40c5b4:	ffff ffff ffff ffff ffff ffff ffff ffff     ................
  40c5c4:	ffff ffff ffff ffff ffff ffff ffff ffff     ................
  40c5d4:	ffff ffff ffff ffff ffff ffff ffff ffff     ................
  40c5e4:	ffff ffff ffff ffff ffff ffff ffff ffff     ................
  40c5f4:	ffff ffff ffff ffff ffff ffff ffff ffff     ................
  40c604:	ffff ffff ffff ffff ffff ffff ffff ffff     ................
  40c614:	ffff ffff ffff ffff ffff ffff ffff ffff     ................
  40c624:	ffff ffff ffff ffff ffff ffff ffff ffff     ................
  40c634:	ffff ffff ffff ffff ffff ffff ffff ffff     ................
  40c644:	ffff ffff ffff ffff ffff ffff ffff ffff     ................
  40c654:	ffff ffff ffff ffff ffff ffff ffff ffff     ................
  40c664:	ffff ffff ffff ffff ffff ffff ffff ffff     ................
  40c674:	ffff ffff ffff ffff ffff ffff ffff ffff     ................
  40c684:	ffff ffff ffff ffff ffff ffff ffff ffff     ................
  40c694:	ffff ffff ffff ffff ffff ffff ffff ffff     ................
  40c6a4:	ffff ffff ffff ffff ffff ffff ffff ffff     ................
  40c6b4:	ffff ffff ffff ffff ffff ffff ffff ffff     ................
  40c6c4:	ffff ffff ffff ffff ffff ffff ffff ffff     ................
  40c6d4:	ffff ffff ffff ffff ffff ffff ffff ffff     ................
  40c6e4:	ffff ffff ffff ffff ffff ffff ffff ffff     ................
  40c6f4:	ffff ffff ffff ffff ffff ffff ffff ffff     ................
  40c704:	ffff ffff ffff ffff ffff ffff ffff ffff     ................
  40c714:	ffff ffff ffff ffff ffff ffff ffff ffff     ................
  40c724:	ffff ffff ffff ffff ffff ffff ffff ffff     ................
  40c734:	ffff ffff ffff ffff ffff ffff ffff ffff     ................
  40c744:	ffff ffff ffff ffff ffff ffff ffff ffff     ................
  40c754:	ffff ffff ffff ffff ffff ffff ffff ffff     ................
  40c764:	ffff ffff ffff ffff ffff ffff ffff ffff     ................
  40c774:	ffff ffff ffff ffff ffff ffff ffff ffff     ................
  40c784:	ffff ffff ffff ffff ffff ffff ffff ffff     ................
  40c794:	ffff ffff ffff ffff ffff ffff ffff ffff     ................
  40c7a4:	ffff ffff ffff ffff ffff ffff ffff ffff     ................
  40c7b4:	ffff ffff ffff ffff ffff ffff fefe f5fb     ................
  40c7c4:	cbc5 37cd cd55 2d0a 11d3 d02f 3013 16cc     ...7U..-../..0..
  40c7d4:	ce34 240b 30d6 f34a cecf fefe fbfd fffe     4..$.0J.........
  40c7e4:	fefd fdfe feff ffff ffff ffff ffff ffff     ................
  40c7f4:	ffff ffff ffff ffff ffff ffff ffff ffff     ................
  40c804:	ffff ffff ffff ffff ffff ffff ffff ffff     ................
  40c814:	ffff ffff ffff ffff ffff ffff ffff ffff     ................
  40c824:	ffff ffff ffff ffff ffff ffff ffff ffff     ................
  40c834:	ffff ffff ffff ffff ffff ffff ffff ffff     ................
  40c844:	ffff ffff ffff ffff ffff ffff ffff ffff     ................
  40c854:	ffff ffff ffff ffff ffff ffff ffff ffff     ................
  40c864:	ffff ffff ffff ffff ffff ffff ffff ffff     ................
  40c874:	ffff ffff ffff ffff ffff ffff ffff ffff     ................
  40c884:	ffff ffff ffff ffff ffff ffff ffff ffff     ................
  40c894:	ffff ffff ffff ffff ffff ffff ffff ffff     ................
  40c8a4:	ffff ffff ffff ffff ffff ffff ffff ffff     ................
  40c8b4:	ffff ffff ffff ffff ffff ffff ffff ffff     ................
  40c8c4:	ffff ffff ffff ffff ffff ffff ffff ffff     ................
  40c8d4:	ffff ffff ffff ffff ffff ffff ffff ffff     ................
  40c8e4:	ffff ffff ffff ffff ffff ffff ffff ffff     ................
  40c8f4:	ffff ffff ffff ffff ffff ffff ffff ffff     ................
  40c904:	ffff ffff ffff ffff ffff ffff ffff ffff     ................
  40c914:	ffff ffff ffff ffff ffff ffff ffff ffff     ................
  40c924:	ffff ffff ffff ffff ffff ffff ffff ffff     ................
  40c934:	ffff ffff ffff ffff ffff ffff ffff ffff     ................
  40c944:	ffff ffff ffff ffff ffff ffff ffff ffff     ................
  40c954:	ffff ffff ffff ffff ffff ffff ffff ffff     ................
  40c964:	ffff ffff ffff ffff ffff ffff ffff ffff     ................
  40c974:	ffff ffff ffff ffff ffff ffff ffff ffff     ................
  40c984:	ffff ffff ffff ffff ffff ffff ffff ffff     ................
  40c994:	ffff ffff ffff ffff ffff ffff ffff ffff     ................
  40c9a4:	ffff ffff ffff ffff ffff ffff ffff ffff     ................
  40c9b4:	ffff ffff ffff ffff ffff ffff ffff ffff     ................
  40c9c4:	ffff ffff ffff ffff ffff ffff ffff ffff     ................
  40c9d4:	ffff ffff ffff ffff ffff ffff ffff ffff     ................
  40c9e4:	ffff ffff ffff ffff ffff ffff ffff ffff     ................
  40c9f4:	ffff ffff ffff ffff ffff ffff ffff ffff     ................
  40ca04:	ffff ffff ffff ffff ffff ffff ffff ffff     ................
  40ca14:	ffff ffff ffff ffff ffff ffff ffff ffff     ................
  40ca24:	ffff ffff ffff ffff ffff ffff ffff ffff     ................
  40ca34:	ffff ffff ffff ffff ffff ffff ffff ffff     ................
  40ca44:	ffff ffff ffff ffff ffff ffff ffff ffff     ................
  40ca54:	ffff ffff ffff ffff ffff ffff ffff ffff     ................
  40ca64:	ffff ffff ffff ffff ffff ffff ffff ffff     ................
  40ca74:	ffff ffff ffff ffff ffff ffff ffff ffff     ................
  40ca84:	ffff ffff ffff ffff ffff ffff ffff ffff     ................
  40ca94:	ffff ffff ffff ffff ffff ffff ffff ffff     ................
  40caa4:	ffff ffff ffff ffff ffff ffff ffff ffff     ................
  40cab4:	ffff ffff ffff ffff ffff ffff ffff ffff     ................
  40cac4:	ffff ffff ffff ffff ffff ffff ffff ffff     ................
  40cad4:	ffff ffff ffff ffff ffff ffff ffff ffff     ................
  40cae4:	ffff ffff ffff ffff ffff ffff ffff ffff     ................
  40caf4:	ffff ffff ffff ffff ffff ffff ffff ffff     ................
  40cb04:	ffff ffff ffff ffff ffff ffff ffff ffff     ................
  40cb14:	ffff ffff ffff ffff ffff ffff ffff ffff     ................
  40cb24:	ffff ffff ffff ffff ffff ffff ffff ffff     ................
  40cb34:	ffff ffff ffff ffff ffff ffff ffff ffff     ................
  40cb44:	ffff ffff ffff ffff ffff ffff ffff ffff     ................
  40cb54:	ffff ffff ffff ffff ffff ffff ffff ffff     ................
  40cb64:	ffff ffff ffff feff fcfe fefe fcff fdfd     ................
  40cb74:	fdfd fcfb fdff fdfb fafe e3e3 48dd cb60     .............H`.
  40cb84:	2b0f 0fcf d332 3311 11c8 cc2f 3a0f 2fd3     .+..2..3../..:./
  40cb94:	d859 8a71 ddf9 fae5 fefe fef9 fefe fefd     Y.q.............
  40cba4:	fefe ffff ffff ffff ffff ffff ffff ffff     ................
  40cbb4:	ffff ffff ffff ffff ffff ffff ffff ffff     ................
  40cbc4:	ffff ffff ffff ffff ffff ffff ffff ffff     ................
  40cbd4:	ffff ffff ffff ffff ffff ffff ffff ffff     ................
  40cbe4:	ffff ffff ffff ffff ffff ffff ffff ffff     ................
  40cbf4:	ffff ffff ffff ffff ffff ffff ffff ffff     ................
  40cc04:	ffff ffff ffff ffff ffff ffff ffff ffff     ................
  40cc14:	ffff ffff ffff ffff ffff ffff ffff ffff     ................
  40cc24:	ffff ffff ffff ffff ffff ffff ffff ffff     ................
  40cc34:	ffff ffff ffff ffff ffff ffff ffff ffff     ................
  40cc44:	ffff ffff ffff ffff ffff ffff ffff ffff     ................
  40cc54:	ffff ffff ffff ffff ffff ffff ffff ffff     ................
  40cc64:	ffff ffff ffff ffff ffff ffff ffff ffff     ................
  40cc74:	ffff ffff ffff ffff ffff ffff ffff ffff     ................
  40cc84:	ffff ffff ffff ffff ffff ffff ffff ffff     ................
  40cc94:	ffff ffff ffff ffff ffff ffff ffff ffff     ................
  40cca4:	ffff ffff ffff ffff ffff ffff ffff ffff     ................
  40ccb4:	ffff ffff ffff ffff ffff ffff ffff ffff     ................
  40ccc4:	ffff ffff ffff ffff ffff ffff ffff ffff     ................
  40ccd4:	ffff ffff ffff ffff ffff ffff ffff ffff     ................
  40cce4:	ffff ffff ffff ffff ffff ffff ffff ffff     ................
  40ccf4:	ffff ffff ffff ffff ffff ffff ffff ffff     ................
  40cd04:	ffff ffff ffff ffff ffff ffff ffff ffff     ................
  40cd14:	ffff ffff ffff ffff ffff ffff ffff ffff     ................
  40cd24:	ffff ffff ffff ffff ffff ffff ffff ffff     ................
  40cd34:	ffff ffff ffff ffff ffff ffff ffff ffff     ................
  40cd44:	ffff ffff ffff ffff ffff ffff ffff ffff     ................
  40cd54:	ffff ffff ffff ffff ffff ffff ffff ffff     ................
  40cd64:	ffff ffff ffff ffff ffff ffff ffff ffff     ................
  40cd74:	ffff ffff ffff ffff ffff ffff ffff ffff     ................
  40cd84:	ffff ffff ffff ffff ffff ffff ffff ffff     ................
  40cd94:	ffff ffff ffff ffff ffff ffff ffff ffff     ................
  40cda4:	ffff ffff ffff ffff ffff ffff ffff ffff     ................
  40cdb4:	ffff ffff ffff ffff ffff ffff ffff ffff     ................
  40cdc4:	ffff ffff ffff ffff ffff ffff ffff ffff     ................
  40cdd4:	ffff ffff ffff ffff ffff ffff ffff ffff     ................
  40cde4:	ffff ffff ffff ffff ffff ffff ffff ffff     ................
  40cdf4:	ffff ffff ffff ffff ffff ffff ffff ffff     ................
  40ce04:	ffff ffff ffff ffff ffff ffff ffff ffff     ................
  40ce14:	ffff ffff ffff ffff ffff ffff ffff ffff     ................
  40ce24:	ffff ffff ffff ffff ffff ffff ffff ffff     ................
  40ce34:	ffff ffff ffff ffff ffff ffff ffff ffff     ................
  40ce44:	ffff ffff ffff ffff ffff ffff ffff ffff     ................
  40ce54:	ffff ffff ffff ffff ffff ffff ffff ffff     ................
  40ce64:	ffff ffff ffff ffff ffff ffff ffff ffff     ................
  40ce74:	ffff ffff ffff ffff ffff ffff ffff ffff     ................
  40ce84:	ffff ffff ffff ffff ffff ffff ffff ffff     ................
  40ce94:	ffff ffff ffff ffff ffff ffff ffff ffff     ................
  40cea4:	ffff ffff ffff ffff ffff ffff ffff ffff     ................
  40ceb4:	ffff ffff ffff ffff ffff ffff ffff ffff     ................
  40cec4:	ffff ffff ffff ffff ffff ffff ffff ffff     ................
  40ced4:	ffff ffff ffff ffff ffff ffff ffff ffff     ................
  40cee4:	ffff ffff ffff ffff ffff ffff ffff ffff     ................
  40cef4:	ffff ffff ffff ffff ffff ffff ffff ffff     ................
  40cf04:	ffff ffff ffff ffff ffff ffff ffff ffff     ................
  40cf14:	ffff ffff ffff ffff ffff ffff ffff ffff     ................
  40cf24:	ffff ffff ffff fefd fffd fdfe fdfd fbfe     ................
  40cf34:	fefc fdfd fbfb 9cec cbab 3718 15ce cd2f     ...........7../.
  40cf44:	3414 13cb d635 634c b8f4 fec0 eef3 fafd     .4..5.Lc........
  40cf54:	fcf5 fdff fdfe fefe fefc fdfc fdfd feff     ................
  40cf64:	ffff ffff ffff ffff ffff ffff ffff ffff     ................
  40cf74:	ffff ffff ffff ffff ffff ffff ffff ffff     ................
  40cf84:	ffff ffff ffff ffff ffff ffff ffff ffff     ................
  40cf94:	ffff ffff ffff ffff ffff ffff ffff ffff     ................
  40cfa4:	ffff ffff ffff ffff ffff ffff ffff ffff     ................
  40cfb4:	ffff ffff ffff ffff ffff ffff ffff ffff     ................
  40cfc4:	ffff ffff ffff ffff ffff ffff ffff ffff     ................
  40cfd4:	ffff ffff ffff ffff ffff ffff ffff ffff     ................
  40cfe4:	ffff ffff ffff ffff ffff ffff ffff ffff     ................
  40cff4:	ffff ffff ffff ffff ffff ffff ffff ffff     ................
  40d004:	ffff ffff ffff ffff ffff ffff ffff ffff     ................
  40d014:	ffff ffff ffff ffff ffff ffff ffff ffff     ................
  40d024:	ffff ffff ffff ffff ffff ffff ffff ffff     ................
  40d034:	ffff ffff ffff ffff ffff ffff ffff ffff     ................
  40d044:	ffff ffff ffff ffff ffff ffff ffff ffff     ................
  40d054:	ffff ffff ffff ffff ffff ffff ffff ffff     ................
  40d064:	ffff ffff ffff ffff ffff ffff ffff ffff     ................
  40d074:	ffff ffff ffff ffff ffff ffff ffff ffff     ................
  40d084:	ffff ffff ffff ffff ffff ffff ffff ffff     ................
  40d094:	ffff ffff ffff ffff ffff ffff ffff ffff     ................
  40d0a4:	ffff ffff ffff ffff ffff ffff ffff ffff     ................
  40d0b4:	ffff ffff ffff ffff ffff ffff ffff ffff     ................
  40d0c4:	ffff ffff ffff ffff ffff ffff ffff ffff     ................
  40d0d4:	ffff ffff ffff ffff ffff ffff ffff ffff     ................
  40d0e4:	ffff ffff ffff ffff ffff ffff ffff ffff     ................
  40d0f4:	ffff ffff ffff ffff ffff ffff ffff ffff     ................
  40d104:	ffff ffff ffff ffff ffff ffff ffff ffff     ................
  40d114:	ffff ffff ffff ffff ffff ffff ffff ffff     ................
  40d124:	ffff ffff ffff ffff ffff ffff ffff ffff     ................
  40d134:	ffff ffff ffff ffff ffff ffff ffff ffff     ................
  40d144:	ffff ffff ffff ffff ffff ffff ffff ffff     ................
  40d154:	ffff ffff ffff ffff ffff ffff ffff ffff     ................
  40d164:	ffff ffff ffff ffff ffff ffff ffff ffff     ................
  40d174:	ffff ffff ffff ffff ffff ffff ffff ffff     ................
  40d184:	ffff ffff ffff ffff ffff ffff ffff ffff     ................
  40d194:	ffff ffff ffff ffff ffff ffff ffff ffff     ................
  40d1a4:	ffff ffff ffff ffff ffff ffff ffff ffff     ................
  40d1b4:	ffff ffff ffff ffff ffff ffff ffff ffff     ................
  40d1c4:	ffff ffff ffff ffff ffff ffff ffff ffff     ................
  40d1d4:	ffff ffff ffff ffff ffff ffff ffff ffff     ................
  40d1e4:	ffff ffff ffff ffff ffff ffff ffff ffff     ................
  40d1f4:	ffff ffff ffff ffff ffff ffff ffff ffff     ................
  40d204:	ffff ffff ffff ffff ffff ffff ffff ffff     ................
  40d214:	ffff ffff ffff ffff ffff ffff ffff ffff     ................
  40d224:	ffff ffff ffff ffff ffff ffff ffff ffff     ................
  40d234:	ffff ffff ffff ffff ffff ffff ffff ffff     ................
  40d244:	ffff ffff ffff ffff ffff ffff ffff ffff     ................
  40d254:	ffff ffff ffff ffff ffff ffff ffff ffff     ................
  40d264:	ffff ffff ffff ffff ffff ffff ffff ffff     ................
  40d274:	ffff ffff ffff ffff ffff ffff ffff ffff     ................
  40d284:	ffff ffff ffff ffff ffff ffff ffff ffff     ................
  40d294:	ffff ffff ffff ffff ffff ffff ffff ffff     ................
  40d2a4:	ffff ffff ffff ffff ffff ffff ffff ffff     ................
  40d2b4:	ffff ffff ffff ffff ffff ffff ffff ffff     ................
  40d2c4:	ffff ffff ffff ffff ffff ffff ffff ffff     ................
  40d2d4:	ffff ffff ffff ffff ffff ffff ffff ffff     ................
  40d2e4:	feff fcfe feff feff fefd fefe fdfc fdfe     ................
  40d2f4:	f0fa ddef 7258 0ccd d12c 3113 11cd d233     ....Xr..,..1..3.
  40d304:	5131 c6f2 fec8 f9fb fefe fbfb fcfd fffc     1Q..............
  40d314:	fefe fefe fbfd fcfe fefe fffc fffe ffff     ................
  40d324:	ffff ffff ffff ffff ffff ffff ffff ffff     ................
  40d334:	ffff ffff ffff ffff ffff ffff ffff ffff     ................
  40d344:	ffff ffff ffff ffff ffff ffff ffff ffff     ................
  40d354:	ffff ffff ffff ffff ffff ffff ffff ffff     ................
  40d364:	ffff ffff ffff ffff ffff ffff ffff ffff     ................
  40d374:	ffff ffff ffff ffff ffff ffff ffff ffff     ................
  40d384:	ffff ffff ffff ffff ffff ffff ffff ffff     ................
  40d394:	ffff ffff ffff ffff ffff ffff ffff ffff     ................
  40d3a4:	ffff ffff ffff ffff ffff ffff ffff ffff     ................
  40d3b4:	ffff ffff ffff ffff ffff ffff ffff ffff     ................
  40d3c4:	ffff ffff ffff ffff ffff ffff ffff ffff     ................
  40d3d4:	ffff ffff ffff ffff ffff ffff ffff ffff     ................
  40d3e4:	ffff ffff ffff ffff ffff ffff ffff ffff     ................
  40d3f4:	ffff ffff ffff ffff ffff ffff ffff ffff     ................
  40d404:	ffff ffff ffff ffff ffff ffff ffff ffff     ................
  40d414:	ffff ffff ffff ffff ffff ffff ffff ffff     ................
  40d424:	ffff ffff ffff ffff ffff ffff ffff ffff     ................
  40d434:	ffff ffff ffff ffff ffff ffff ffff ffff     ................
  40d444:	ffff ffff ffff ffff ffff ffff ffff ffff     ................
  40d454:	ffff ffff ffff ffff ffff ffff ffff ffff     ................
  40d464:	ffff ffff ffff ffff ffff ffff ffff ffff     ................
  40d474:	ffff ffff ffff ffff ffff ffff ffff ffff     ................
  40d484:	ffff ffff ffff ffff ffff ffff ffff ffff     ................
  40d494:	ffff ffff ffff ffff ffff ffff ffff ffff     ................
  40d4a4:	ffff ffff ffff ffff ffff ffff ffff ffff     ................
  40d4b4:	ffff ffff ffff ffff ffff ffff ffff ffff     ................
  40d4c4:	ffff ffff ffff ffff ffff ffff ffff ffff     ................
  40d4d4:	ffff ffff ffff ffff ffff ffff ffff ffff     ................
  40d4e4:	ffff ffff ffff ffff ffff ffff ffff ffff     ................
  40d4f4:	ffff ffff ffff ffff ffff ffff ffff ffff     ................
  40d504:	ffff ffff ffff ffff ffff ffff ffff ffff     ................
  40d514:	ffff ffff ffff ffff ffff ffff ffff ffff     ................
  40d524:	ffff ffff ffff ffff ffff ffff ffff ffff     ................
  40d534:	ffff ffff ffff ffff ffff ffff ffff ffff     ................
  40d544:	ffff ffff ffff ffff ffff ffff ffff ffff     ................
  40d554:	ffff ffff ffff ffff ffff ffff ffff ffff     ................
  40d564:	ffff ffff ffff ffff ffff ffff ffff ffff     ................
  40d574:	ffff ffff ffff ffff ffff ffff ffff ffff     ................
  40d584:	ffff ffff ffff ffff ffff ffff ffff ffff     ................
  40d594:	ffff ffff ffff ffff ffff ffff ffff ffff     ................
  40d5a4:	ffff ffff ffff ffff ffff ffff ffff ffff     ................
  40d5b4:	ffff ffff ffff ffff ffff ffff ffff ffff     ................
  40d5c4:	ffff ffff ffff ffff ffff ffff ffff ffff     ................
  40d5d4:	ffff ffff ffff ffff ffff ffff ffff ffff     ................
  40d5e4:	ffff ffff ffff ffff ffff ffff ffff ffff     ................
  40d5f4:	ffff ffff ffff ffff ffff ffff ffff ffff     ................
  40d604:	ffff ffff ffff ffff ffff ffff ffff ffff     ................
  40d614:	ffff ffff ffff ffff ffff ffff ffff ffff     ................
  40d624:	ffff ffff ffff ffff ffff ffff ffff ffff     ................
  40d634:	ffff ffff ffff ffff ffff ffff ffff ffff     ................
  40d644:	ffff ffff ffff ffff ffff ffff ffff ffff     ................
  40d654:	ffff ffff ffff ffff ffff ffff ffff ffff     ................
  40d664:	ffff ffff ffff ffff ffff ffff ffff ffff     ................
  40d674:	ffff ffff ffff ffff ffff ffff ffff ffff     ................
  40d684:	ffff ffff ffff ffff ffff ffff ffff ffff     ................
  40d694:	ffff ffff ffff ffff ffff ffff ffff fefe     ................
  40d6a4:	fffc fffe fdfe fdfe fdfd fefe f9fe e0e0     ................
  40d6b4:	2cd1 cb4a 2b0e 14cc cf32 300b 6be1 fd81     .,J..+..2..0.k..
  40d6c4:	f2f3 fefb fcfe fefe fefc fdfe fefe fdfe     ................
  40d6d4:	feff fefd fefd fdfe feff ffff ffff ffff     ................
  40d6e4:	ffff ffff ffff ffff ffff ffff ffff ffff     ................
  40d6f4:	ffff ffff ffff ffff ffff ffff ffff ffff     ................
  40d704:	ffff ffff ffff ffff ffff ffff ffff ffff     ................
  40d714:	ffff ffff ffff ffff ffff ffff ffff ffff     ................
  40d724:	ffff ffff ffff ffff ffff ffff ffff ffff     ................
  40d734:	ffff ffff ffff ffff ffff ffff ffff ffff     ................
  40d744:	ffff ffff ffff ffff ffff ffff ffff ffff     ................
  40d754:	ffff ffff ffff ffff ffff ffff ffff ffff     ................
  40d764:	ffff ffff ffff ffff ffff ffff ffff ffff     ................
  40d774:	ffff ffff ffff ffff ffff ffff ffff ffff     ................
  40d784:	ffff ffff ffff ffff ffff ffff ffff ffff     ................
  40d794:	ffff ffff ffff ffff ffff ffff ffff ffff     ................
  40d7a4:	ffff ffff ffff ffff ffff ffff ffff ffff     ................
  40d7b4:	ffff ffff ffff ffff ffff ffff ffff ffff     ................
  40d7c4:	ffff ffff ffff ffff ffff ffff ffff ffff     ................
  40d7d4:	ffff ffff ffff ffff ffff ffff ffff ffff     ................
  40d7e4:	ffff ffff ffff ffff ffff ffff ffff ffff     ................
  40d7f4:	ffff ffff ffff ffff ffff ffff ffff ffff     ................
  40d804:	ffff ffff ffff ffff ffff ffff ffff ffff     ................
  40d814:	ffff ffff ffff ffff ffff ffff ffff ffff     ................
  40d824:	ffff ffff ffff ffff ffff ffff ffff ffff     ................
  40d834:	ffff ffff ffff ffff ffff ffff ffff ffff     ................
  40d844:	ffff ffff ffff ffff ffff ffff ffff ffff     ................
  40d854:	ffff ffff ffff ffff ffff ffff ffff ffff     ................
  40d864:	ffff ffff ffff ffff ffff ffff ffff ffff     ................
  40d874:	ffff ffff ffff ffff ffff ffff ffff ffff     ................
  40d884:	ffff ffff ffff ffff ffff ffff ffff ffff     ................
  40d894:	ffff ffff ffff ffff ffff ffff ffff ffff     ................
  40d8a4:	ffff ffff ffff ffff ffff ffff ffff ffff     ................
  40d8b4:	ffff ffff ffff ffff ffff ffff ffff ffff     ................
  40d8c4:	ffff ffff ffff ffff ffff ffff ffff ffff     ................
  40d8d4:	ffff ffff ffff ffff ffff ffff ffff ffff     ................
  40d8e4:	ffff ffff ffff ffff ffff ffff ffff ffff     ................
  40d8f4:	ffff ffff ffff ffff ffff ffff ffff ffff     ................
  40d904:	ffff ffff ffff ffff ffff ffff ffff ffff     ................
  40d914:	ffff ffff ffff ffff ffff ffff ffff ffff     ................
  40d924:	ffff ffff ffff ffff ffff ffff ffff ffff     ................
  40d934:	ffff ffff ffff ffff ffff ffff ffff ffff     ................
  40d944:	ffff ffff ffff ffff ffff ffff ffff ffff     ................
  40d954:	ffff ffff ffff ffff ffff ffff ffff ffff     ................
  40d964:	ffff ffff ffff ffff ffff ffff ffff ffff     ................
  40d974:	ffff ffff ffff ffff ffff ffff ffff ffff     ................
  40d984:	ffff ffff ffff ffff ffff ffff ffff ffff     ................
  40d994:	ffff ffff ffff ffff ffff ffff ffff ffff     ................
  40d9a4:	ffff ffff ffff ffff ffff ffff ffff ffff     ................
  40d9b4:	ffff ffff ffff ffff ffff ffff ffff ffff     ................
  40d9c4:	ffff ffff ffff ffff ffff ffff ffff ffff     ................
  40d9d4:	ffff ffff ffff ffff ffff ffff ffff ffff     ................
  40d9e4:	ffff ffff ffff ffff ffff ffff ffff ffff     ................
  40d9f4:	ffff ffff ffff ffff ffff ffff ffff ffff     ................
  40da04:	ffff ffff ffff ffff ffff ffff ffff ffff     ................
  40da14:	ffff ffff ffff ffff ffff ffff ffff ffff     ................
  40da24:	ffff ffff ffff ffff ffff ffff ffff ffff     ................
  40da34:	ffff ffff ffff ffff ffff ffff ffff ffff     ................
  40da44:	ffff ffff ffff ffff ffff ffff ffff ffff     ................
  40da54:	ffff ffff ffff ffff ffff feff fdff fcfe     ................
  40da64:	fdfd fdfd fdfd fffd fefd c9f5 cecb 3615     ...............6
  40da74:	13cf cb31 3314 0fcd e532 9b8d fdfe fcfb     ..1..3..2.......
  40da84:	fffb f9fe fefe fefc fcfc fbfe fefe fefd     ................
  40da94:	fefe fffe fefe ffff ffff ffff ffff ffff     ................
  40daa4:	ffff ffff ffff ffff ffff ffff ffff ffff     ................
  40dab4:	ffff ffff ffff ffff ffff ffff ffff ffff     ................
  40dac4:	ffff ffff ffff ffff ffff ffff ffff ffff     ................
  40dad4:	ffff ffff ffff ffff ffff ffff ffff ffff     ................
  40dae4:	ffff ffff ffff ffff ffff ffff ffff ffff     ................
  40daf4:	ffff ffff ffff ffff ffff ffff ffff ffff     ................
  40db04:	ffff ffff ffff ffff ffff ffff ffff ffff     ................
  40db14:	ffff ffff ffff ffff ffff ffff ffff ffff     ................
  40db24:	ffff ffff ffff ffff ffff ffff ffff ffff     ................
  40db34:	ffff ffff ffff ffff ffff ffff ffff ffff     ................
  40db44:	ffff ffff ffff ffff ffff ffff ffff ffff     ................
  40db54:	ffff ffff ffff ffff ffff ffff ffff ffff     ................
  40db64:	ffff ffff ffff ffff ffff ffff ffff ffff     ................
  40db74:	ffff ffff ffff ffff ffff ffff ffff ffff     ................
  40db84:	ffff ffff ffff ffff ffff ffff ffff ffff     ................
  40db94:	ffff ffff ffff ffff ffff ffff ffff ffff     ................
  40dba4:	ffff ffff ffff ffff ffff ffff ffff ffff     ................
  40dbb4:	ffff ffff ffff ffff ffff ffff ffff ffff     ................
  40dbc4:	ffff ffff ffff ffff ffff ffff ffff ffff     ................
  40dbd4:	ffff ffff ffff ffff ffff ffff ffff ffff     ................
  40dbe4:	ffff ffff ffff ffff ffff ffff ffff ffff     ................
  40dbf4:	ffff ffff ffff ffff ffff ffff ffff ffff     ................
  40dc04:	ffff ffff ffff ffff ffff ffff ffff ffff     ................
  40dc14:	ffff ffff ffff ffff ffff ffff ffff ffff     ................
  40dc24:	ffff ffff ffff ffff ffff ffff ffff ffff     ................
  40dc34:	ffff ffff ffff ffff ffff ffff ffff ffff     ................
  40dc44:	ffff ffff ffff ffff ffff ffff ffff ffff     ................
  40dc54:	ffff ffff ffff ffff ffff ffff ffff ffff     ................
  40dc64:	ffff ffff ffff ffff ffff ffff ffff ffff     ................
  40dc74:	ffff ffff ffff ffff ffff ffff ffff ffff     ................
  40dc84:	ffff ffff ffff ffff ffff ffff ffff ffff     ................
  40dc94:	ffff ffff ffff ffff ffff ffff ffff ffff     ................
  40dca4:	ffff ffff ffff ffff ffff ffff ffff ffff     ................
  40dcb4:	ffff ffff ffff ffff ffff ffff ffff ffff     ................
  40dcc4:	ffff ffff ffff ffff ffff ffff ffff ffff     ................
  40dcd4:	ffff ffff ffff ffff ffff ffff ffff ffff     ................
  40dce4:	ffff ffff ffff ffff ffff ffff ffff ffff     ................
  40dcf4:	ffff ffff ffff ffff ffff ffff ffff ffff     ................
  40dd04:	ffff ffff ffff ffff ffff ffff ffff ffff     ................
  40dd14:	ffff ffff ffff ffff ffff ffff ffff ffff     ................
  40dd24:	ffff ffff ffff ffff ffff ffff ffff ffff     ................
  40dd34:	ffff ffff ffff ffff ffff ffff ffff ffff     ................
  40dd44:	ffff ffff ffff ffff ffff ffff ffff ffff     ................
  40dd54:	ffff ffff ffff ffff ffff ffff ffff ffff     ................
  40dd64:	ffff ffff ffff ffff ffff ffff ffff ffff     ................
  40dd74:	ffff ffff ffff ffff ffff ffff ffff ffff     ................
  40dd84:	ffff ffff ffff ffff ffff ffff ffff ffff     ................
  40dd94:	ffff ffff ffff ffff ffff ffff ffff ffff     ................
  40dda4:	ffff ffff ffff ffff ffff ffff ffff ffff     ................
  40ddb4:	ffff ffff ffff ffff ffff ffff ffff ffff     ................
  40ddc4:	ffff ffff ffff ffff ffff ffff ffff ffff     ................
  40ddd4:	ffff ffff ffff ffff ffff ffff ffff ffff     ................
  40dde4:	ffff ffff ffff ffff ffff ffff ffff ffff     ................
  40ddf4:	ffff ffff ffff ffff ffff ffff ffff ffff     ................
  40de04:	ffff ffff ffff ffff ffff ffff ffff ffff     ................
  40de14:	ffff ffff ffff ffff fffd fefc fefd fdfc     ................
  40de24:	fdfc fdfe fbff edff b6b0 0dcb ce2d 3212     ............-..2
  40de34:	14cc ce36 310e 9cea fda5 fbfe fefb faff     ..6..1..........
  40de44:	fefe fefd fffd fefe fefe fcfe fefe fdfb     ................
  40de54:	fdff fffe ffff ffff ffff ffff ffff ffff     ................
  40de64:	ffff ffff ffff ffff ffff ffff ffff ffff     ................
  40de74:	ffff ffff ffff ffff ffff ffff ffff ffff     ................
  40de84:	ffff ffff ffff ffff ffff ffff ffff ffff     ................
  40de94:	ffff ffff ffff ffff ffff ffff ffff ffff     ................
  40dea4:	ffff ffff ffff ffff ffff ffff ffff ffff     ................
  40deb4:	ffff ffff ffff ffff ffff ffff ffff ffff     ................
  40dec4:	ffff ffff ffff ffff ffff ffff ffff ffff     ................
  40ded4:	ffff ffff ffff ffff ffff ffff ffff ffff     ................
  40dee4:	ffff ffff ffff ffff ffff ffff ffff ffff     ................
  40def4:	ffff ffff ffff ffff ffff ffff ffff ffff     ................
  40df04:	ffff ffff ffff ffff ffff ffff ffff ffff     ................
  40df14:	ffff ffff ffff ffff ffff ffff ffff ffff     ................
  40df24:	ffff ffff ffff ffff ffff ffff ffff ffff     ................
  40df34:	ffff ffff ffff ffff ffff ffff ffff ffff     ................
  40df44:	ffff ffff ffff ffff ffff ffff ffff ffff     ................
  40df54:	ffff ffff ffff ffff ffff ffff ffff ffff     ................
  40df64:	ffff ffff ffff ffff ffff ffff ffff ffff     ................
  40df74:	ffff ffff ffff ffff ffff ffff ffff ffff     ................
  40df84:	ffff ffff ffff ffff ffff ffff ffff ffff     ................
  40df94:	ffff ffff ffff ffff ffff ffff ffff ffff     ................
  40dfa4:	ffff ffff ffff ffff ffff ffff ffff ffff     ................
  40dfb4:	ffff ffff ffff ffff ffff ffff fefe fefe     ................
  40dfc4:	fefe ffff feff fefe fefe fefe fefe fefe     ................
  40dfd4:	fefe fefe fefe fefe fefe fdfd fffd ffff     ................
  40dfe4:	ffff fdff fdfd fefe fefe fefe fefe fefe     ................
  40dff4:	fefe ffff ffff ffff ffff fdff fdfd ffff     ................
  40e004:	ffff ffff fefe fefe fefe ffff ffff ffff     ................
  40e014:	ffff ffff ffff ffff ffff ffff ffff ffff     ................
  40e024:	ffff ffff ffff ffff ffff ffff ffff ffff     ................
  40e034:	ffff ffff ffff ffff ffff ffff ffff ffff     ................
  40e044:	ffff ffff ffff ffff ffff ffff ffff ffff     ................
  40e054:	ffff ffff ffff ffff ffff ffff ffff ffff     ................
  40e064:	ffff ffff ffff ffff ffff ffff ffff ffff     ................
  40e074:	ffff ffff ffff ffff ffff ffff ffff ffff     ................
  40e084:	ffff ffff ffff ffff ffff ffff ffff ffff     ................
  40e094:	ffff ffff ffff ffff ffff ffff ffff ffff     ................
  40e0a4:	ffff ffff ffff ffff ffff ffff ffff ffff     ................
  40e0b4:	ffff ffff ffff ffff ffff ffff ffff ffff     ................
  40e0c4:	ffff ffff ffff ffff ffff ffff ffff ffff     ................
  40e0d4:	ffff ffff ffff ffff ffff ffff ffff ffff     ................
  40e0e4:	ffff ffff ffff ffff ffff ffff ffff ffff     ................
  40e0f4:	ffff ffff ffff ffff ffff ffff ffff ffff     ................
  40e104:	ffff ffff ffff ffff ffff ffff ffff ffff     ................
  40e114:	ffff ffff ffff ffff ffff ffff ffff ffff     ................
  40e124:	ffff ffff ffff ffff ffff ffff ffff ffff     ................
  40e134:	ffff ffff ffff ffff ffff ffff ffff ffff     ................
  40e144:	ffff ffff ffff ffff ffff ffff ffff ffff     ................
  40e154:	ffff ffff ffff ffff ffff ffff ffff ffff     ................
  40e164:	ffff ffff ffff ffff ffff ffff ffff ffff     ................
  40e174:	ffff ffff ffff ffff ffff ffff ffff ffff     ................
  40e184:	ffff ffff ffff ffff ffff ffff ffff ffff     ................
  40e194:	ffff ffff ffff ffff ffff ffff ffff ffff     ................
  40e1a4:	ffff ffff ffff ffff ffff ffff ffff ffff     ................
  40e1b4:	ffff ffff ffff ffff ffff ffff ffff ffff     ................
  40e1c4:	ffff ffff ffff ffff ffff ffff ffff ffff     ................
  40e1d4:	ffff ffff feff fcff fefe fcfe fdfd fefd     ................
  40e1e4:	fefe fffe a7ed cbaf 2d0c 12ce d033 3412     .........-..3..4
  40e1f4:	11c9 ed31 aca1 fefd fcfd feff fffc fefe     ..1.............
  40e204:	fefe feff fffd fefe feff ffff fffe feff     ................
  40e214:	feff fefe ffff ffff ffff ffff feff fefe     ................
  40e224:	fefe fefe fefe fefe fdfe fdfd ffff ffff     ................
  40e234:	ffff ffff ffff ffff ffff feff fefe fefe     ................
  40e244:	fefe fefe fefe fefe fefe fefe fefe fefe     ................
  40e254:	fcfc fefc fefe fefe fffe ffff fefe fefe     ................
  40e264:	fefe fefe fefe fefe fefe fefe fefe fefe     ................
  40e274:	fefe fefe fdfd fefd fefe fefe fffe ffff     ................
  40e284:	ffff feff fefe fefe fffe ffff ffff fdff     ................
  40e294:	fdfd fefe fefe fefe fefe fefe fefe fefe     ................
  40e2a4:	fefe fefe fefe fffe ffff ffff ffff ffff     ................
  40e2b4:	ffff ffff ffff ffff ffff ffff ffff ffff     ................
  40e2c4:	ffff ffff ffff ffff ffff ffff ffff ffff     ................
  40e2d4:	ffff ffff ffff ffff ffff ffff ffff ffff     ................
  40e2e4:	ffff ffff ffff ffff ffff ffff ffff ffff     ................
  40e2f4:	ffff ffff ffff ffff ffff ffff ffff ffff     ................
  40e304:	ffff ffff ffff ffff ffff ffff ffff ffff     ................
  40e314:	ffff ffff ffff ffff ffff ffff ffff ffff     ................
  40e324:	ffff ffff ffff ffff ffff ffff ffff ffff     ................
  40e334:	ffff ffff ffff ffff ffff ffff ffff ffff     ................
  40e344:	ffff ffff ffff ffff ffff ffff ffff ffff     ................
  40e354:	ffff ffff ffff ffff ffff ffff ffff ffff     ................
  40e364:	ffff ffff ffff ffff ffff ffff ffff ffff     ................
  40e374:	ffff ffff ffff ffff feff fefe fcfc fefc     ................
  40e384:	fefe fefe fefe fefe fefe fefe fefe fefe     ................
  40e394:	fefe fefe fefe fefe fefe fefe fdfe fdfd     ................
  40e3a4:	fefe fefe fefe fefe fefe fefe fefe fefe     ................
  40e3b4:	fefe ffff feff fefe fefe fefe fefe fcfc     ................
  40e3c4:	fdfc fdfd fefe fffe ffff ffff ffff ffff     ................
  40e3d4:	ffff ffff ffff ffff ffff ffff ffff ffff     ................
  40e3e4:	ffff ffff ffff ffff ffff ffff ffff ffff     ................
  40e3f4:	ffff ffff ffff ffff ffff ffff ffff ffff     ................
  40e404:	ffff ffff ffff ffff ffff ffff ffff ffff     ................
  40e414:	ffff ffff ffff ffff ffff ffff ffff ffff     ................
  40e424:	ffff ffff ffff ffff ffff ffff ffff ffff     ................
  40e434:	ffff ffff ffff ffff ffff ffff ffff ffff     ................
  40e444:	ffff ffff ffff ffff ffff ffff ffff ffff     ................
  40e454:	ffff ffff ffff ffff ffff ffff ffff ffff     ................
  40e464:	ffff ffff ffff ffff ffff ffff ffff ffff     ................
  40e474:	ffff ffff ffff ffff ffff ffff ffff ffff     ................
  40e484:	ffff ffff ffff ffff ffff ffff ffff ffff     ................
  40e494:	ffff ffff ffff ffff ffff ffff ffff ffff     ................
  40e4a4:	ffff ffff ffff ffff ffff ffff ffff ffff     ................
  40e4b4:	ffff ffff ffff ffff ffff ffff ffff ffff     ................
  40e4c4:	ffff ffff ffff ffff ffff ffff ffff ffff     ................
  40e4d4:	ffff ffff ffff ffff ffff ffff ffff ffff     ................
  40e4e4:	ffff ffff ffff ffff ffff ffff ffff ffff     ................
  40e4f4:	ffff ffff ffff ffff ffff ffff ffff ffff     ................
  40e504:	ffff ffff ffff ffff ffff ffff ffff ffff     ................
  40e514:	ffff ffff ffff ffff ffff ffff ffff ffff     ................
  40e524:	ffff ffff ffff ffff ffff ffff ffff ffff     ................
  40e534:	ffff ffff ffff ffff ffff ffff ffff ffff     ................
  40e544:	ffff ffff ffff ffff ffff ffff ffff ffff     ................
  40e554:	ffff ffff ffff ffff ffff ffff ffff ffff     ................
  40e564:	ffff ffff ffff ffff ffff ffff ffff ffff     ................
  40e574:	ffff ffff ffff ffff ffff ffff ffff ffff     ................
  40e584:	ffff ffff ffff ffff ffff ffff ffff ffff     ................
  40e594:	ffff ffff fefd fffe fdfd fdff ffff fffe     ................
  40e5a4:	eeff afa6 0bcb cf2e 3312 12d0 ca31 3111     .........3..1..1
  40e5b4:	a3eb feaf fdfe fffe fffd ffff ffff ffff     ................
  40e5c4:	ffff ffff ffff ffff ffff ffff ffff fefe     ................
  40e5d4:	fefe fefe fdfd fefd fefe fefe fefe fefe     ................
  40e5e4:	fdfd fdfd fdfd fefe fffe ffff ffff ffff     ................
  40e5f4:	ffff ffff feff fefe fefe fefe fefe fefe     ................
  40e604:	fdfe fdfd fefe fefe fefe fefe fdfe fdfd     ................
  40e614:	fefe fefe fefe fdfd fefd fefe fefe fefe     ................
  40e624:	fefe fdfd fefd fefe fcfc fefc fefe fefe     ................
  40e634:	fefe fefe fdfd fefd fefe fdfd fffd ffff     ................
  40e644:	fefe fdfe fdfd fefe fefe fefe fefe fefe     ................
  40e654:	fefe fefe fefe fefe fefe fefe fefe fefe     ................
  40e664:	fefe fefe ffff ffff ffff ffff ffff ffff     ................
  40e674:	ffff ffff ffff ffff ffff ffff ffff ffff     ................
  40e684:	ffff ffff ffff ffff ffff ffff ffff ffff     ................
  40e694:	ffff ffff ffff ffff ffff ffff ffff ffff     ................
  40e6a4:	ffff ffff ffff ffff ffff ffff ffff ffff     ................
  40e6b4:	ffff ffff ffff ffff ffff ffff ffff ffff     ................
  40e6c4:	ffff ffff ffff ffff ffff ffff ffff ffff     ................
  40e6d4:	ffff ffff ffff ffff ffff ffff ffff ffff     ................
  40e6e4:	ffff ffff ffff ffff ffff ffff ffff ffff     ................
  40e6f4:	ffff ffff ffff ffff ffff ffff ffff ffff     ................
  40e704:	ffff ffff ffff ffff ffff ffff ffff ffff     ................
  40e714:	ffff ffff ffff ffff ffff ffff ffff ffff     ................
  40e724:	ffff ffff ffff ffff ffff ffff ffff ffff     ................
  40e734:	ffff feff fefe fefe fefe fefe fefe f9fe     ................
  40e744:	f9f9 f6f6 f7f6 f7f7 f8f8 f7f8 f7f7 f6f6     ................
  40e754:	f8f6 f8f8 f6f6 f5f6 f5f5 f8f8 f7f8 f7f7     ................
  40e764:	f5f5 f7f5 f7f7 f7f7 f5f7 f5f5 f8f8 f8f8     ................
  40e774:	f8f8 f7f7 f7f7 f7f7 f5f5 fef5 fefe fefe     ................
  40e784:	fefe fefe ffff ffff ffff ffff ffff ffff     ................
  40e794:	ffff ffff ffff ffff ffff ffff ffff ffff     ................
  40e7a4:	ffff ffff ffff ffff ffff ffff ffff ffff     ................
  40e7b4:	ffff ffff ffff ffff ffff ffff ffff ffff     ................
  40e7c4:	ffff ffff ffff ffff ffff ffff ffff ffff     ................
  40e7d4:	ffff ffff ffff ffff ffff ffff ffff ffff     ................
  40e7e4:	ffff ffff ffff ffff ffff ffff ffff ffff     ................
  40e7f4:	ffff ffff ffff ffff ffff ffff ffff ffff     ................
  40e804:	ffff ffff ffff ffff ffff ffff ffff ffff     ................
  40e814:	ffff ffff ffff ffff ffff ffff ffff ffff     ................
  40e824:	ffff ffff ffff ffff ffff ffff ffff ffff     ................
  40e834:	ffff ffff ffff ffff ffff ffff ffff ffff     ................
  40e844:	ffff ffff ffff ffff ffff ffff ffff ffff     ................
  40e854:	ffff ffff ffff ffff ffff ffff ffff ffff     ................
  40e864:	ffff ffff ffff ffff ffff ffff ffff ffff     ................
  40e874:	ffff ffff ffff ffff ffff ffff ffff ffff     ................
  40e884:	ffff ffff ffff ffff ffff ffff ffff ffff     ................
  40e894:	ffff ffff ffff ffff ffff ffff ffff ffff     ................
  40e8a4:	ffff ffff ffff ffff ffff ffff ffff ffff     ................
  40e8b4:	ffff ffff ffff ffff ffff ffff ffff ffff     ................
  40e8c4:	ffff ffff ffff ffff ffff ffff ffff ffff     ................
  40e8d4:	ffff ffff ffff ffff ffff ffff ffff ffff     ................
  40e8e4:	ffff ffff ffff ffff ffff ffff ffff ffff     ................
  40e8f4:	ffff ffff ffff ffff ffff ffff ffff ffff     ................
  40e904:	ffff ffff ffff ffff ffff ffff ffff ffff     ................
  40e914:	ffff ffff ffff ffff ffff ffff ffff ffff     ................
  40e924:	ffff ffff ffff ffff ffff ffff ffff ffff     ................
  40e934:	ffff ffff ffff ffff ffff ffff ffff ffff     ................
  40e944:	ffff ffff ffff ffff ffff ffff ffff ffff     ................
  40e954:	fdff fefe fdff fffd fffd feff ffff a6ee     ................
  40e964:	cbaf 2e0b 12cf d033 3112 11ca eb31 afa3     ......3..1..1...
  40e974:	fefe fefd fdff ffff ffff ffff ffff ffff     ................
  40e984:	ffff ffff ffff ffff fbfb f7fb f7f7 fefe     ................
  40e994:	fcfe fcfc fdfd fefd fefe fdfd fefd fefe     ................
  40e9a4:	fefe fefe fefe fefe fefe fefe fefe fefe     ................
  40e9b4:	fefe ffff feff fefe fefe fefe fefe ffff     ................
  40e9c4:	feff fefe fdfd fdfd fdfd fefe f9fe f9f9     ................
  40e9d4:	fcfc fefc fefe fdfd fefd fefe fefe fefe     ................
  40e9e4:	fefe fbfb fefb fefe fefe fefe fefe fefe     ................
  40e9f4:	fefe fefe fefe fefe fefe fefe fcfe fcfc     ................
  40ea04:	fefe fdfe fdfd fdfd fefd fefe fefe fefe     ................
  40ea14:	fefe fefe fefe fefe fefe fdfe fdfd fcfc     ................
  40ea24:	fefc fefe ffff ffff ffff ffff ffff ffff     ................
  40ea34:	ffff ffff ffff ffff ffff ffff ffff ffff     ................
  40ea44:	ffff ffff ffff ffff ffff ffff ffff ffff     ................
  40ea54:	ffff ffff ffff ffff ffff ffff ffff ffff     ................
  40ea64:	ffff ffff ffff ffff ffff ffff ffff ffff     ................
  40ea74:	ffff ffff ffff ffff ffff ffff ffff ffff     ................
  40ea84:	ffff ffff ffff ffff ffff ffff ffff ffff     ................
  40ea94:	ffff ffff ffff ffff ffff ffff ffff ffff     ................
  40eaa4:	ffff ffff ffff ffff ffff ffff ffff ffff     ................
  40eab4:	ffff ffff ffff ffff ffff ffff ffff ffff     ................
  40eac4:	ffff ffff ffff ffff ffff ffff ffff ffff     ................
  40ead4:	ffff ffff ffff ffff ffff ffff ffff ffff     ................
  40eae4:	ffff ffff ffff ffff ffff ffff ffff ffff     ................
  40eaf4:	fefe fefe fefe fefe f9fe f9f9 8b8b 408b     ...............@
  40eb04:	4040 4040 3f40 3f3f 3f3f 403f 4040 3f3f     @@@@@??????@@@??
  40eb14:	413f 4141 4040 3e40 3e3e 3e3e 403e 4040     ?AAA@@@>>>>>>@@@
  40eb24:	4040 3f40 3f3f 3f3f 3f3f 3f3f 3f3f 403f     @@@????????????@
  40eb34:	4040 4040 7540 7575 fcfc fefc fefe fefe     @@@@@uuu........
  40eb44:	fffe ffff ffff ffff ffff ffff ffff ffff     ................
  40eb54:	ffff ffff ffff ffff ffff ffff ffff ffff     ................
  40eb64:	ffff ffff ffff ffff ffff ffff ffff ffff     ................
  40eb74:	ffff ffff ffff ffff ffff ffff ffff ffff     ................
  40eb84:	ffff ffff ffff ffff ffff ffff ffff ffff     ................
  40eb94:	ffff ffff ffff ffff ffff ffff ffff ffff     ................
  40eba4:	ffff ffff ffff ffff ffff ffff ffff ffff     ................
  40ebb4:	ffff ffff ffff ffff ffff ffff ffff ffff     ................
  40ebc4:	ffff ffff ffff ffff ffff ffff ffff ffff     ................
  40ebd4:	ffff ffff ffff ffff ffff ffff ffff ffff     ................
  40ebe4:	ffff ffff ffff ffff ffff ffff ffff ffff     ................
  40ebf4:	ffff ffff ffff ffff ffff ffff ffff ffff     ................
  40ec04:	ffff ffff ffff ffff ffff ffff ffff ffff     ................
  40ec14:	ffff ffff ffff ffff ffff ffff ffff ffff     ................
  40ec24:	ffff ffff ffff ffff ffff ffff ffff ffff     ................
  40ec34:	ffff ffff ffff ffff ffff ffff ffff ffff     ................
  40ec44:	ffff ffff ffff ffff ffff ffff ffff ffff     ................
  40ec54:	ffff ffff ffff ffff ffff ffff ffff ffff     ................
  40ec64:	ffff ffff ffff ffff ffff ffff ffff ffff     ................
  40ec74:	ffff ffff ffff ffff ffff ffff ffff ffff     ................
  40ec84:	ffff ffff ffff ffff ffff ffff ffff ffff     ................
  40ec94:	ffff ffff ffff ffff ffff ffff ffff ffff     ................
  40eca4:	ffff ffff ffff ffff ffff ffff ffff ffff     ................
  40ecb4:	ffff ffff ffff ffff ffff ffff ffff ffff     ................
  40ecc4:	ffff ffff ffff ffff ffff ffff ffff ffff     ................
  40ecd4:	ffff ffff ffff ffff ffff ffff ffff ffff     ................
  40ece4:	ffff ffff ffff ffff ffff ffff ffff ffff     ................
  40ecf4:	ffff ffff ffff ffff ffff ffff ffff ffff     ................
  40ed04:	ffff ffff ffff ffff ffff ffff ffff fefd     ................
  40ed14:	fffe fdfd fdff ffff fffe eeff afa6 0bcb     ................
  40ed24:	cf2e 3312 12d0 ca31 3111 a3eb feaf fdfe     ...3..1..1......
  40ed34:	fffe fffd ffff ffff ffff ffff ffff ffff     ................
  40ed44:	ffff ffff b1ff b1b1 6d6d fc6d fcfc fefe     ........mmm.....
  40ed54:	fcfe fcfc fcfc fefc fefe fefe fefe fefe     ................
  40ed64:	fefe fefe fefe fdfd fdfd fdfd fdfd fefd     ................
  40ed74:	fefe fefe fefe fefe fdfd e2fd e2e2 dbdb     ................
  40ed84:	fddb fdfd fdfd fbfd fbfb 8d8d af8d afaf     ................
  40ed94:	fdfd fefd fefe e2e2 e1e2 e1e1 fcfc fefc     ................
  40eda4:	fefe fdfd fefd fefe fefe fefe fefe fefe     ................
  40edb4:	fefe fefe ffff feff fefe f6f6 d5f6 d5d5     ................
  40edc4:	f1f1 fcf1 fcfc fefe fefe fefe fdfd fefd     ................
  40edd4:	fefe fefe fdfe fdfd fefe fefe fefe fdfd     ................
  40ede4:	fffd ffff ffff ffff ffff ffff ffff ffff     ................
  40edf4:	ffff ffff ffff ffff ffff ffff ffff ffff     ................
  40ee04:	ffff ffff ffff ffff ffff ffff ffff ffff     ................
  40ee14:	ffff ffff ffff ffff ffff ffff ffff ffff     ................
  40ee24:	ffff ffff ffff ffff ffff ffff ffff ffff     ................
  40ee34:	ffff ffff ffff ffff ffff ffff ffff ffff     ................
  40ee44:	ffff ffff ffff ffff ffff ffff ffff ffff     ................
  40ee54:	ffff ffff ffff ffff ffff ffff ffff ffff     ................
  40ee64:	ffff ffff ffff ffff ffff ffff ffff ffff     ................
  40ee74:	ffff ffff ffff ffff ffff ffff ffff ffff     ................
  40ee84:	ffff ffff ffff ffff ffff ffff ffff ffff     ................
  40ee94:	ffff ffff ffff ffff ffff ffff ffff ffff     ................
  40eea4:	ffff ffff ffff ffff ffff ffff feff fefe     ................
  40eeb4:	fefe fefe fefe f5f5 5af5 5a5a 0000 0000     .........ZZZ....
  40eec4:	0000 0101 0001 0000 0000 0100 0101 0101     ................
  40eed4:	0001 0000 0101 0001 0000 0000 0000 0000     ................
	...
  40eef4:	0000 3333 fa33 fafa fefe fefe fefe ffff     ..333...........
  40ef04:	ffff ffff ffff ffff ffff ffff ffff ffff     ................
  40ef14:	ffff ffff ffff ffff ffff ffff ffff ffff     ................
  40ef24:	ffff ffff ffff ffff ffff ffff ffff ffff     ................
  40ef34:	ffff ffff ffff ffff ffff ffff ffff ffff     ................
  40ef44:	ffff ffff ffff ffff ffff ffff ffff ffff     ................
  40ef54:	ffff ffff ffff ffff ffff ffff ffff ffff     ................
  40ef64:	ffff ffff ffff ffff ffff ffff ffff ffff     ................
  40ef74:	ffff ffff ffff ffff ffff ffff ffff ffff     ................
  40ef84:	ffff ffff ffff ffff ffff ffff ffff ffff     ................
  40ef94:	ffff ffff ffff ffff ffff ffff ffff ffff     ................
  40efa4:	ffff ffff ffff ffff ffff ffff ffff ffff     ................
  40efb4:	ffff ffff ffff ffff ffff ffff ffff ffff     ................
  40efc4:	ffff ffff ffff ffff ffff ffff ffff ffff     ................
  40efd4:	ffff ffff ffff ffff ffff ffff ffff ffff     ................
  40efe4:	ffff ffff ffff ffff ffff ffff ffff ffff     ................
  40eff4:	ffff ffff ffff ffff ffff ffff ffff ffff     ................
  40f004:	ffff ffff ffff ffff ffff ffff ffff ffff     ................
  40f014:	ffff ffff ffff ffff ffff ffff ffff ffff     ................
  40f024:	ffff ffff ffff ffff ffff ffff ffff ffff     ................
  40f034:	ffff ffff ffff ffff ffff ffff ffff ffff     ................
  40f044:	ffff ffff ffff ffff ffff ffff ffff ffff     ................
  40f054:	ffff ffff ffff ffff ffff ffff ffff ffff     ................
  40f064:	ffff ffff ffff ffff ffff ffff ffff ffff     ................
  40f074:	ffff ffff ffff ffff ffff ffff ffff ffff     ................
  40f084:	ffff ffff ffff ffff ffff ffff ffff ffff     ................
  40f094:	ffff ffff ffff ffff ffff ffff ffff ffff     ................
  40f0a4:	ffff ffff ffff ffff ffff ffff ffff ffff     ................
  40f0b4:	ffff ffff ffff ffff ffff ffff ffff ffff     ................
  40f0c4:	ffff ffff ffff ffff ffff fdff fefe fdff     ................
  40f0d4:	fffd fffd feff ffff a6ee cbaf 2e0b 12cf     ................
  40f0e4:	d033 3112 11ca eb31 afa3 fefe fefd fdff     3..1..1.........
  40f0f4:	ffff ffff ffff ffff ffff ffff ffff ffff     ................
  40f104:	ffff 8989 2089 2020 fcfc fdfc fdfd fdfd     .....   ........
  40f114:	fefd fefe fdfd fefd fefe fefe fdfe fdfd     ................
  40f124:	fefe fdfe fdfd fefe fefe fefe fefe fdfe     ................
  40f134:	fdfd fefe fefe fefe 8080 6680 6666 fcfc     ...........fff..
  40f144:	fefc fefe fafa a5fa a5a5 bebe fcbe fcfc     ................
  40f154:	fbfb 8afb 8a8a 8383 f483 f4f4 fdfd fefd     ................
  40f164:	fefe fefe fefe fefe fefe fefe fefe fefe     ................
  40f174:	fefe fefe fefe d8fe d8d8 4f4f c84f c8c8     ..........OOO...
  40f184:	fefe fefe fefe fefe fefe fefe fefe fefe     ................
  40f194:	fefe ffff fdff fdfd fefe fffe ffff ffff     ................
  40f1a4:	ffff ffff ffff ffff ffff ffff ffff ffff     ................
  40f1b4:	ffff ffff ffff ffff ffff ffff ffff ffff     ................
  40f1c4:	ffff ffff ffff ffff ffff ffff ffff ffff     ................
  40f1d4:	ffff ffff ffff ffff ffff ffff ffff ffff     ................
  40f1e4:	ffff ffff ffff ffff ffff ffff ffff ffff     ................
  40f1f4:	ffff ffff ffff ffff ffff ffff ffff ffff     ................
  40f204:	ffff ffff ffff ffff ffff ffff ffff ffff     ................
  40f214:	ffff ffff ffff ffff ffff ffff ffff ffff     ................
  40f224:	ffff ffff ffff ffff ffff ffff ffff ffff     ................
  40f234:	ffff ffff ffff ffff ffff ffff ffff ffff     ................
  40f244:	ffff ffff ffff ffff ffff ffff ffff ffff     ................
  40f254:	ffff ffff ffff ffff ffff ffff ffff ffff     ................
  40f264:	ffff ffff ffff ffff ffff ffff fdff fdfd     ................
  40f274:	fefe fbfe fbfb abab 6bab 6b6b 5454 2c54     .........kkkTTT,
  40f284:	2c2c 0b0b 010b 0101 0101 0001 0000 0000     ,,..............
  40f294:	0000 0000 0202 0002 0000 0000 0000 0000     ................
  40f2a4:	0000 0300 0303 2f2f 532f 5353 6969 9c69     ......///SSSiii.
  40f2b4:	9c9c fdfd fdfd fdfd fefe fffe ffff ffff     ................
  40f2c4:	ffff ffff ffff ffff ffff ffff ffff ffff     ................
  40f2d4:	ffff ffff ffff ffff ffff ffff ffff ffff     ................
  40f2e4:	ffff ffff ffff ffff ffff ffff ffff ffff     ................
  40f2f4:	ffff ffff ffff ffff ffff ffff ffff ffff     ................
  40f304:	ffff ffff ffff ffff ffff ffff ffff ffff     ................
  40f314:	ffff ffff ffff ffff ffff ffff ffff ffff     ................
  40f324:	ffff ffff ffff ffff ffff ffff ffff ffff     ................
  40f334:	ffff ffff ffff ffff ffff ffff ffff ffff     ................
  40f344:	ffff ffff ffff ffff ffff ffff ffff ffff     ................
  40f354:	ffff ffff ffff ffff ffff ffff ffff ffff     ................
  40f364:	ffff ffff ffff ffff ffff ffff ffff ffff     ................
  40f374:	ffff ffff ffff ffff ffff ffff ffff ffff     ................
  40f384:	ffff ffff ffff ffff ffff ffff ffff ffff     ................
  40f394:	ffff ffff ffff ffff ffff ffff ffff ffff     ................
  40f3a4:	ffff ffff ffff ffff ffff ffff ffff ffff     ................
  40f3b4:	ffff ffff ffff ffff ffff ffff ffff ffff     ................
  40f3c4:	ffff ffff ffff ffff ffff ffff ffff ffff     ................
  40f3d4:	ffff ffff ffff ffff ffff ffff ffff ffff     ................
  40f3e4:	ffff ffff ffff ffff ffff ffff ffff ffff     ................
  40f3f4:	ffff ffff ffff ffff ffff ffff ffff ffff     ................
  40f404:	ffff ffff ffff ffff ffff ffff ffff ffff     ................
  40f414:	ffff ffff ffff ffff ffff ffff ffff ffff     ................
  40f424:	ffff ffff ffff ffff ffff ffff ffff ffff     ................
  40f434:	ffff ffff ffff ffff ffff ffff ffff ffff     ................
  40f444:	ffff ffff ffff ffff ffff ffff ffff ffff     ................
  40f454:	ffff ffff ffff ffff ffff ffff ffff ffff     ................
  40f464:	ffff ffff ffff ffff ffff ffff ffff ffff     ................
  40f474:	ffff ffff ffff ffff ffff ffff ffff ffff     ................
  40f484:	ffff ffff ffff ffff fefd fffe fdfd fdff     ................
  40f494:	ffff fffe eeff afa6 0bcb cf2e 3312 12d0     .............3..
  40f4a4:	ca31 3111 a3eb feaf fdfe fffe fffd ffff     1..1............
  40f4b4:	ffff ffff ffff ffff ffff ffff ffff 8dff     ................
  40f4c4:	8d8d 2a2a fd2a fdfd fdfd fefd fefe fefe     ..***...........
  40f4d4:	fdfe fdfd fcfc fcfc fcfc fdfd fefd fefe     ................
  40f4e4:	fefe fdfe fdfd fefe fcfe fcfc fefe fefe     ................
  40f4f4:	fefe fbfb 75fb 7575 5050 fd50 fdfd fefe     .....uuuPPP.....
  40f504:	fefe fefe f9f9 fbf9 fbfb fefe fbfe fbfb     ................
  40f514:	8080 7780 7777 f6f6 fef6 fefe fefe fcfe     ...www..........
  40f524:	fcfc fefe fefe fefe fcfc fdfc fdfd fefe     ................
  40f534:	fefe fefe d5d5 39d5 3939 c2c2 fbc2 fbfb     .......999......
  40f544:	fefe fdfe fdfd fefe fbfe fbfb fefe fefe     ................
  40f554:	fefe fdfd fefd fefe fefe fffe ffff ffff     ................
  40f564:	ffff ffff ffff ffff ffff ffff ffff ffff     ................
  40f574:	ffff ffff ffff ffff ffff ffff ffff ffff     ................
  40f584:	ffff ffff ffff ffff ffff ffff ffff ffff     ................
  40f594:	ffff ffff ffff ffff ffff ffff ffff ffff     ................
  40f5a4:	ffff ffff ffff ffff ffff ffff ffff ffff     ................
  40f5b4:	ffff ffff ffff ffff ffff ffff ffff ffff     ................
  40f5c4:	ffff ffff ffff ffff ffff ffff ffff ffff     ................
  40f5d4:	ffff ffff ffff ffff ffff ffff ffff ffff     ................
  40f5e4:	ffff ffff ffff ffff ffff ffff ffff ffff     ................
  40f5f4:	ffff ffff ffff ffff ffff ffff ffff ffff     ................
  40f604:	ffff ffff ffff ffff ffff ffff ffff ffff     ................
  40f614:	ffff ffff ffff ffff ffff ffff ffff ffff     ................
  40f624:	ffff ffff ffff feff fefe fefe fcfe fcfc     ................
  40f634:	ffff feff fefe fcfc fefc fefe fcfc ccfc     ................
  40f644:	cccc 4a4a 044a 0404 0202 0002 0000 0000     ..JJJ...........
  40f654:	0000 0000 0000 0200 0202 0404 4d04 4d4d     .............MMM
  40f664:	d3d3 fed3 fefe fefe fefe fefe fefe fdfe     ................
  40f674:	fdfd fefe fffe ffff ffff ffff ffff ffff     ................
  40f684:	ffff ffff ffff ffff ffff ffff ffff ffff     ................
  40f694:	ffff ffff ffff ffff ffff ffff ffff ffff     ................
  40f6a4:	ffff ffff ffff ffff ffff ffff ffff ffff     ................
  40f6b4:	ffff ffff ffff ffff ffff ffff ffff ffff     ................
  40f6c4:	ffff ffff ffff ffff ffff ffff ffff ffff     ................
  40f6d4:	ffff ffff ffff ffff ffff ffff ffff ffff     ................
  40f6e4:	ffff ffff ffff ffff ffff ffff ffff ffff     ................
  40f6f4:	ffff ffff ffff ffff ffff ffff ffff ffff     ................
  40f704:	ffff ffff ffff ffff ffff ffff ffff fefe     ................
  40f714:	fefe fefe ffff feff fefe fefe fffe ffff     ................
  40f724:	fefe fefe fefe ffff ffff ffff fefe fffe     ................
  40f734:	ffff ffff ffff ffff fefe fefe fefe fefe     ................
  40f744:	fefe fefe fefe fefe fefe ffff ffff ffff     ................
  40f754:	ffff ffff ffff ffff ffff ffff ffff ffff     ................
  40f764:	ffff ffff ffff ffff ffff ffff ffff ffff     ................
  40f774:	ffff ffff ffff ffff ffff ffff ffff ffff     ................
  40f784:	ffff ffff ffff ffff ffff ffff ffff ffff     ................
  40f794:	ffff ffff ffff ffff ffff ffff ffff ffff     ................
  40f7a4:	ffff ffff ffff ffff ffff ffff ffff ffff     ................
  40f7b4:	ffff ffff ffff ffff ffff ffff ffff ffff     ................
  40f7c4:	ffff ffff ffff ffff ffff ffff ffff ffff     ................
  40f7d4:	ffff ffff ffff ffff ffff ffff ffff ffff     ................
  40f7e4:	ffff ffff ffff ffff ffff ffff ffff ffff     ................
  40f7f4:	ffff ffff ffff ffff ffff ffff ffff ffff     ................
  40f804:	ffff ffff ffff ffff ffff ffff ffff ffff     ................
  40f814:	ffff ffff ffff ffff ffff ffff ffff ffff     ................
  40f824:	ffff ffff ffff ffff ffff ffff ffff ffff     ................
  40f834:	ffff ffff ffff ffff ffff ffff ffff ffff     ................
  40f844:	ffff ffff fdff fefe fdff fffd fffd feff     ................
  40f854:	ffff a6ee cbaf 2e0b 12cf d033 3112 11ca     ..........3..1..
  40f864:	eb31 afa3 fefe fefd fdff ffff ffff ffff     1...............
  40f874:	ffff ffff ffff ffff ffff ffff 8d8d 268d     ...............&
  40f884:	2626 ffff ddff dddd a5a5 cea5 cece 5656     &&............VV
  40f894:	4956 4949 b9b9 fbb9 fbfb fdfd eafd eaea     VIII............
  40f8a4:	8484 3584 3535 5858 ca58 caca f7f7 96f7     ...555XXX.......
  40f8b4:	9696 3333 2633 2626 7878 cb78 cbcb f8f8     ..333&&&xxx.....
  40f8c4:	aff8 afaf c7c7 fdc7 fdfd 8e8e 3b8e 3b3b     .............;;;
  40f8d4:	3636 7236 7272 c7c7 eac7 eaea a4a4 dda4     666rrr..........
  40f8e4:	dddd ffff f6ff f6f6 b2b2 cbb2 cbcb f1f1     ................
  40f8f4:	64f1 6464 1a1a 5b1a 5b5b 7e7e ec7e ecec     .ddd...[[[~~~...
  40f904:	f1f1 8ff1 8f8f 3636 4b36 4b4b bbbb fabb     ......666KKK....
  40f914:	fafa fefe fefe fefe ffff ffff ffff ffff     ................
  40f924:	ffff ffff ffff ffff ffff ffff ffff ffff     ................
  40f934:	ffff ffff ffff ffff ffff ffff ffff ffff     ................
  40f944:	ffff ffff ffff ffff ffff ffff ffff ffff     ................
  40f954:	ffff ffff ffff ffff ffff ffff ffff ffff     ................
  40f964:	ffff ffff ffff ffff ffff ffff ffff ffff     ................
  40f974:	ffff ffff ffff ffff ffff ffff ffff ffff     ................
  40f984:	ffff ffff ffff ffff ffff ffff ffff ffff     ................
  40f994:	ffff ffff ffff ffff ffff ffff ffff ffff     ................
  40f9a4:	ffff ffff ffff ffff ffff ffff ffff ffff     ................
  40f9b4:	ffff ffff ffff ffff ffff ffff ffff ffff     ................
  40f9c4:	ffff ffff ffff ffff ffff ffff ffff ffff     ................
  40f9d4:	ffff ffff ffff ffff ffff ffff ffff ffff     ................
  40f9e4:	ffff ffff ffff ffff ffff ffff ffff ffff     ................
  40f9f4:	ffff ffff ffff ffff feff fefe fefe e3fe     ................
  40fa04:	e3e3 3e3e 003e 0000 0000 0000 0000 0101     ..>>>...........
  40fa14:	0001 0000 0101 4f01 4f4f e4e4 fee4 fefe     .......OOO......
  40fa24:	ffff ffff ffff ffff ffff ffff ffff ffff     ................
  40fa34:	ffff ffff ffff ffff ffff ffff ffff ffff     ................
  40fa44:	ffff ffff ffff ffff ffff ffff ffff ffff     ................
  40fa54:	ffff ffff ffff ffff ffff ffff ffff ffff     ................
  40fa64:	ffff ffff ffff ffff ffff ffff ffff ffff     ................
  40fa74:	ffff ffff ffff ffff ffff ffff ffff ffff     ................
  40fa84:	ffff ffff ffff ffff ffff ffff ffff ffff     ................
  40fa94:	ffff ffff ffff ffff ffff ffff ffff ffff     ................
  40faa4:	ffff ffff ffff ffff ffff ffff ffff ffff     ................
  40fab4:	ffff ffff ffff ffff ffff ffff ffff ffff     ................
  40fac4:	ffff ffff ffff ffff ffff feff fefe fefe     ................
  40fad4:	fefe fefe fefe fefe fefe fefe fefe fefe     ................
  40fae4:	fefe fffe ffff fefe fefe fefe ffff feff     ................
  40faf4:	fefe fefe fcfe fcfc fefe fefe fefe fefe     ................
  40fb04:	fefe fefe fefe fffe ffff ffff ffff ffff     ................
  40fb14:	ffff ffff ffff ffff ffff ffff ffff ffff     ................
  40fb24:	ffff ffff ffff ffff ffff ffff ffff ffff     ................
  40fb34:	ffff ffff ffff ffff ffff ffff ffff ffff     ................
  40fb44:	ffff ffff ffff ffff ffff ffff ffff ffff     ................
  40fb54:	ffff ffff ffff ffff ffff ffff ffff ffff     ................
  40fb64:	ffff ffff ffff ffff ffff ffff ffff ffff     ................
  40fb74:	ffff ffff ffff ffff ffff ffff ffff ffff     ................
  40fb84:	ffff ffff ffff ffff ffff ffff ffff ffff     ................
  40fb94:	ffff ffff ffff ffff ffff ffff ffff ffff     ................
  40fba4:	ffff ffff ffff ffff ffff ffff ffff ffff     ................
  40fbb4:	ffff ffff ffff ffff ffff ffff ffff ffff     ................
  40fbc4:	ffff ffff ffff ffff ffff ffff ffff ffff     ................
  40fbd4:	ffff ffff ffff ffff ffff ffff ffff ffff     ................
  40fbe4:	ffff ffff ffff ffff ffff ffff ffff ffff     ................
  40fbf4:	ffff ffff ffff ffff ffff ffff ffff ffff     ................
  40fc04:	ffff fefd fffe fdfd fdff ffff fffe eeff     ................
  40fc14:	afa6 0bcb cf2e 3312 12d0 ca31 3111 a3eb     .......3..1..1..
  40fc24:	feaf fdfe fffe fffd ffff ffff ffff ffff     ................
  40fc34:	ffff ffff ffff ffff 8cff 8c8c 2929 fe29     ............))).
  40fc44:	fefe b9b9 17b9 1717 3b3b 823b 8282 7171     ........;;;...qq
  40fc54:	3871 3838 dddd f8dd f8f8 7979 4079 4040     q888......yyy@@@
  40fc64:	8e8e 708e 7070 4848 cb48 cbcb 8d8d 2c8d     ...pppHHH......,
  40fc74:	2c2c 2121 6921 6969 c3c3 f9c3 f9f9 5050     ,,!!!iii......PP
  40fc84:	8650 8686 fcfc 82fc 8282 3434 3034 3030     P.........444000
  40fc94:	6666 c166 c1c1 d4d4 34d4 3434 bbbb febb     fff......444....
  40fca4:	fefe ecec 5dec 5d5d 9090 f190 f1f1 5959     .....]]]......YY
  40fcb4:	1759 1717 5050 6950 6969 e4e4 72e4 7272     Y...PPPiii...rrr
  40fcc4:	3939 9239 9292 7676 3476 3434 b0b0 fdb0     999...vvv444....
  40fcd4:	fdfd fefe fffe ffff ffff ffff ffff ffff     ................
  40fce4:	ffff ffff ffff ffff ffff ffff ffff ffff     ................
  40fcf4:	ffff ffff ffff ffff ffff ffff ffff ffff     ................
  40fd04:	ffff ffff ffff ffff ffff ffff ffff ffff     ................
  40fd14:	ffff ffff ffff ffff ffff ffff ffff ffff     ................
  40fd24:	ffff ffff ffff ffff ffff ffff ffff ffff     ................
  40fd34:	ffff ffff ffff ffff ffff ffff ffff ffff     ................
  40fd44:	ffff ffff ffff ffff ffff ffff ffff ffff     ................
  40fd54:	ffff ffff ffff ffff ffff ffff ffff ffff     ................
  40fd64:	ffff ffff ffff ffff ffff ffff ffff ffff     ................
  40fd74:	ffff ffff ffff ffff ffff ffff ffff ffff     ................
  40fd84:	ffff ffff ffff ffff ffff ffff ffff ffff     ................
  40fd94:	ffff ffff ffff ffff ffff ffff ffff ffff     ................
  40fda4:	ffff ffff ffff ffff ffff ffff ffff ffff     ................
  40fdb4:	ffff ffff ffff fefe fefe fefe fbfb 8afb     ................
  40fdc4:	8a8a 0000 0000 0000 0000 0000 0000 0000     ................
  40fdd4:	0a00 0a0a 9090 fc90 fcfc fefe fffe ffff     ................
  40fde4:	ffff ffff ffff ffff ffff ffff ffff ffff     ................
  40fdf4:	ffff ffff ffff ffff ffff ffff ffff ffff     ................
  40fe04:	ffff ffff ffff ffff ffff ffff ffff ffff     ................
  40fe14:	ffff ffff ffff ffff ffff ffff ffff ffff     ................
  40fe24:	ffff ffff ffff ffff ffff ffff ffff ffff     ................
  40fe34:	ffff ffff ffff ffff ffff ffff ffff ffff     ................
  40fe44:	ffff ffff ffff ffff ffff ffff ffff ffff     ................
  40fe54:	ffff ffff ffff ffff ffff ffff ffff ffff     ................
  40fe64:	ffff ffff ffff ffff ffff ffff ffff ffff     ................
  40fe74:	ffff ffff ffff ffff ffff ffff ffff ffff     ................
  40fe84:	ffff ffff ffff ffff fefe fefe fefe fefe     ................
  40fe94:	fefe fefe ffff feff fefe fefe fefe fefe     ................
  40fea4:	fefe fefe fefe fefe fffe ffff fefe fdfe     ................
  40feb4:	fdfd fefe fefe fefe fefe fefe fefe fefe     ................
  40fec4:	fffe ffff ffff ffff ffff ffff ffff ffff     ................
  40fed4:	ffff ffff ffff ffff ffff ffff ffff ffff     ................
  40fee4:	ffff ffff ffff ffff ffff ffff ffff ffff     ................
  40fef4:	ffff ffff ffff ffff ffff ffff ffff ffff     ................
  40ff04:	ffff ffff ffff ffff ffff ffff ffff ffff     ................
  40ff14:	ffff ffff ffff ffff ffff ffff ffff ffff     ................
  40ff24:	ffff ffff ffff ffff ffff ffff ffff ffff     ................
  40ff34:	ffff ffff ffff ffff ffff ffff ffff ffff     ................
  40ff44:	ffff ffff ffff ffff ffff ffff ffff ffff     ................
  40ff54:	ffff ffff ffff ffff ffff ffff ffff ffff     ................
  40ff64:	ffff ffff ffff ffff ffff ffff ffff ffff     ................
  40ff74:	ffff ffff ffff ffff ffff ffff ffff ffff     ................
  40ff84:	ffff ffff ffff ffff ffff ffff ffff ffff     ................
  40ff94:	ffff ffff ffff ffff ffff ffff ffff ffff     ................
  40ffa4:	ffff ffff ffff ffff ffff ffff ffff ffff     ................
  40ffb4:	ffff ffff ffff ffff ffff ffff ffff fdff     ................
  40ffc4:	fefe fdff fffd fffd feff ffff a6ee cbaf     ................
  40ffd4:	2e0b 12cf d033 3112 11ca eb31 afa3 fefe     ....3..1..1.....
  40ffe4:	fefd fdff ffff ffff ffff ffff ffff ffff     ................
  40fff4:	ffff ffff ffff 8d8d 298d 2929 fefe b9fe     .........)))....
  410004:	b9b9 2f2f bd2f bdbd fcfc d2fc d2d2 3636     ..///.........66
  410014:	cb36 cbcb f2f2 46f2 4646 9696 fe96 fefe     6......FFF......
  410024:	fafa c9fa c9c9 eaea fdea fdfd 7272 5172     ............rrrQ
  410034:	5151 fcfc fefc fefe f9f9 59f9 5959 8888     QQ.........YYY..
  410044:	fc88 fcfc fbfb 7bfb 7b7b 7272 f572 f5f5     .......{{{rrr...
  410054:	fefe d8fe d8d8 3939 bd39 bdbd fefe edfe     ......999.......
  410064:	eded 5f5f 8e5f 8e8e fefe d5fe d5d5 3939     ..___.........99
  410074:	c439 c4c4 fdfd cafd caca 3333 bc33 bcbc     9.........333...
  410084:	fcfc f6fc f6f6 7d7d 517d 5151 f9f9 fff9     ......}}}QQQ....
  410094:	ffff ffff ffff ffff ffff ffff ffff ffff     ................
  4100a4:	ffff ffff ffff ffff ffff ffff ffff ffff     ................
  4100b4:	ffff ffff ffff ffff ffff ffff ffff ffff     ................
  4100c4:	ffff ffff ffff ffff ffff ffff ffff ffff     ................
  4100d4:	ffff ffff ffff ffff ffff ffff ffff ffff     ................
  4100e4:	ffff ffff ffff ffff ffff ffff ffff ffff     ................
  4100f4:	ffff ffff ffff ffff ffff ffff ffff ffff     ................
  410104:	ffff ffff ffff ffff ffff ffff ffff ffff     ................
  410114:	ffff ffff ffff ffff ffff ffff ffff ffff     ................
  410124:	ffff ffff ffff ffff ffff ffff ffff ffff     ................
  410134:	ffff ffff ffff ffff ffff ffff ffff ffff     ................
  410144:	ffff ffff ffff ffff ffff ffff ffff ffff     ................
  410154:	ffff ffff ffff ffff ffff ffff ffff ffff     ................
  410164:	ffff ffff ffff ffff ffff ffff ffff ffff     ................
  410174:	ffff feff fefe ffff feff fefe a8a8 00a8     ................
	...
  41018c:	0101 0001 0000 1313 a613 a6a6 fefe fefe     ................
  41019c:	fefe ffff ffff ffff ffff ffff ffff ffff     ................
  4101ac:	ffff ffff ffff ffff ffff ffff ffff ffff     ................
  4101bc:	ffff ffff ffff ffff ffff ffff ffff ffff     ................
  4101cc:	ffff ffff ffff ffff ffff ffff ffff ffff     ................
  4101dc:	ffff ffff ffff ffff ffff ffff ffff ffff     ................
  4101ec:	ffff ffff ffff ffff ffff ffff ffff ffff     ................
  4101fc:	ffff ffff ffff ffff ffff ffff ffff ffff     ................
  41020c:	ffff ffff ffff ffff ffff ffff ffff ffff     ................
  41021c:	ffff ffff ffff ffff ffff ffff ffff ffff     ................
  41022c:	ffff ffff ffff ffff ffff ffff ffff ffff     ................
  41023c:	ffff ffff ffff ffff ffff ffff feff fefe     ................
  41024c:	fdfd fefd fefe fefe fefe fefe fefe fefe     ................
  41025c:	fefe fefe fefe fefe ffff fdff fdfd fefe     ................
  41026c:	fefe fefe fefe f4fe f4f4 dddd dbdd dbdb     ................
  41027c:	fbfb fefb fefe fefe fffe ffff ffff ffff     ................
  41028c:	ffff ffff ffff ffff ffff ffff ffff ffff     ................
  41029c:	ffff ffff ffff ffff ffff ffff ffff ffff     ................
  4102ac:	ffff ffff ffff ffff ffff ffff ffff ffff     ................
  4102bc:	ffff ffff ffff ffff ffff ffff ffff ffff     ................
  4102cc:	ffff ffff ffff ffff ffff ffff ffff ffff     ................
  4102dc:	ffff ffff ffff ffff ffff ffff ffff ffff     ................
  4102ec:	ffff ffff ffff ffff ffff ffff ffff ffff     ................
  4102fc:	ffff ffff ffff ffff ffff ffff ffff ffff     ................
  41030c:	ffff ffff ffff ffff ffff ffff ffff ffff     ................
  41031c:	ffff ffff ffff ffff ffff ffff ffff ffff     ................
  41032c:	ffff ffff ffff ffff ffff ffff ffff ffff     ................
  41033c:	ffff ffff ffff ffff ffff ffff ffff ffff     ................
  41034c:	ffff ffff ffff ffff ffff ffff ffff ffff     ................
  41035c:	ffff ffff ffff ffff ffff ffff ffff ffff     ................
  41036c:	ffff ffff ffff ffff ffff ffff ffff ffff     ................
  41037c:	ffff ffff fefd fffe fdfd fdff ffff fffe     ................
  41038c:	eeff afa6 0bcb cf2e 3312 12d0 ca31 3111     .........3..1..1
  41039c:	a3eb feaf fdfe fffe fffd ffff ffff ffff     ................
  4103ac:	ffff ffff ffff ffff ffff 8eff 8e8e 2828     ..............((
  4103bc:	fe28 fefe b8b8 3cb8 3c3c dcdc fedc fefe     (......<<<......
  4103cc:	d6d6 38d6 3838 c5c5 f9c5 f9f9 7a7a 2f7a     ...888......zzz/
  4103dc:	2f2f 9c9c eb9c ebeb fdfd fdfd fdfd fdfd     //..............
  4103ec:	6efd 6e6e 5151 fc51 fcfc fefe f9fe f9f9     .nnnQQQ.........
  4103fc:	5656 8856 8888 fcfc fbfc fbfb 7979 7079     VVV.........yyyp
  41040c:	7070 f3f3 fef3 fefe d7d7 3ad7 3a3a bbbb     pp.........:::..
  41041c:	fcbb fcfc eeee 5eee 5e5e 8e8e fe8e fefe     .......^^^......
  41042c:	d5d5 38d5 3838 c2c2 fec2 fefe b0b0 46b0     ...888.........F
  41043c:	4646 dfdf fedf fefe fefe abfe abab 2828     FF............((
  41044c:	f928 f9f9 fdfd fffd ffff ffff ffff ffff     (...............
  41045c:	ffff ffff ffff ffff ffff ffff ffff ffff     ................
  41046c:	ffff ffff ffff ffff ffff ffff ffff ffff     ................
  41047c:	ffff ffff ffff ffff ffff ffff ffff ffff     ................
  41048c:	ffff ffff ffff ffff ffff ffff ffff ffff     ................
  41049c:	ffff ffff ffff ffff ffff ffff ffff ffff     ................
  4104ac:	ffff ffff ffff ffff ffff ffff ffff ffff     ................
  4104bc:	ffff ffff ffff ffff ffff ffff ffff ffff     ................
  4104cc:	ffff ffff ffff ffff ffff ffff ffff ffff     ................
  4104dc:	ffff ffff ffff ffff ffff ffff ffff ffff     ................
  4104ec:	ffff ffff ffff ffff ffff ffff ffff ffff     ................
  4104fc:	ffff ffff ffff ffff ffff ffff ffff ffff     ................
  41050c:	ffff ffff ffff ffff ffff ffff ffff ffff     ................
  41051c:	ffff ffff ffff ffff ffff ffff ffff ffff     ................
  41052c:	ffff ffff ffff ffff fefe fefe fefe fefe     ................
  41053c:	b0fe b0b0 0303 0003 0000 0000 0000 0000     ................
  41054c:	0000 1400 1414 a9a9 fea9 fefe ffff ffff     ................
  41055c:	ffff ffff ffff ffff ffff ffff ffff ffff     ................
  41056c:	ffff ffff ffff ffff ffff ffff ffff ffff     ................
  41057c:	ffff ffff ffff ffff ffff ffff ffff ffff     ................
  41058c:	ffff ffff ffff ffff ffff ffff ffff ffff     ................
  41059c:	ffff ffff ffff ffff ffff ffff ffff ffff     ................
  4105ac:	ffff ffff ffff ffff ffff ffff ffff ffff     ................
  4105bc:	ffff ffff ffff ffff ffff ffff ffff ffff     ................
  4105cc:	ffff ffff ffff ffff ffff ffff ffff ffff     ................
  4105dc:	ffff ffff ffff ffff ffff ffff ffff ffff     ................
  4105ec:	ffff ffff ffff ffff ffff ffff ffff ffff     ................
  4105fc:	ffff ffff ffff ffff ffff fefe fefe fefe     ................
  41060c:	fefe fefe fefe ffff feff fefe fdfd fdfd     ................
  41061c:	fdfd f9f9 f1f9 f1f1 d1d1 9dd1 9d9d 6666     ..............ff
  41062c:	3966 3939 1616 0116 0101 4444 df44 dfdf     f999......DDD...
  41063c:	fefe fefe fefe ffff ffff ffff ffff ffff     ................
  41064c:	ffff ffff ffff ffff ffff ffff ffff ffff     ................
  41065c:	ffff ffff ffff ffff ffff ffff ffff ffff     ................
  41066c:	ffff ffff ffff ffff ffff ffff ffff ffff     ................
  41067c:	ffff ffff ffff ffff ffff ffff ffff ffff     ................
  41068c:	ffff ffff ffff ffff ffff ffff ffff ffff     ................
  41069c:	ffff ffff ffff ffff ffff ffff ffff ffff     ................
  4106ac:	ffff ffff ffff ffff ffff ffff ffff ffff     ................
  4106bc:	ffff ffff ffff ffff ffff ffff ffff ffff     ................
  4106cc:	ffff ffff ffff ffff ffff ffff ffff ffff     ................
  4106dc:	ffff ffff ffff ffff ffff ffff ffff ffff     ................
  4106ec:	ffff ffff ffff ffff ffff ffff ffff ffff     ................
  4106fc:	ffff ffff ffff ffff ffff ffff ffff ffff     ................
  41070c:	ffff ffff ffff ffff ffff ffff ffff ffff     ................
  41071c:	ffff ffff ffff ffff ffff ffff ffff ffff     ................
  41072c:	ffff ffff ffff ffff ffff ffff ffff ffff     ................
  41073c:	fdff fefe fdff fffd fffd feff ffff a6ee     ................
  41074c:	cbaf 2e0b 12cf d033 3112 11ca eb31 afa3     ......3..1..1...
  41075c:	fefe fefd fdff ffff ffff ffff ffff ffff     ................
  41076c:	ffff ffff ffff ffff 8d8d 298d 2929 fcfc     ...........)))..
  41077c:	b7fc b7b7 3a3a de3a dede fdfd d5fd d5d5     ....:::.........
  41078c:	3939 c639 c6c6 fdfd edfd eded 8585 1385     999.............
  41079c:	1313 0d0d 8b0d 8b8b f5f5 fef5 fefe 6f6f     ..............oo
  4107ac:	4e6f 4e4e fcfc fcfc fcfc f9f9 59f9 5959     oNNN.........YYY
  4107bc:	8888 fc88 fcfc fafa 7cfa 7c7c 7070 f570     .........|||ppp.
  4107cc:	f5f5 fcfc d8fc d8d8 3a3a bb3a bbbb fefe     ........:::.....
  4107dc:	eefe eeee 5e5e 8e5e 8e8e fdfd d4fd d4d4     ....^^^.........
  4107ec:	3737 c437 c4c4 fefe a3fe a3a3 5050 e650     777.........PPP.
  4107fc:	e6e6 fefe fefe fefe b9b9 25b9 2525 f2f2     ...........%%%..
  41080c:	fff2 ffff ffff ffff ffff ffff ffff ffff     ................
  41081c:	ffff ffff ffff ffff ffff ffff ffff ffff     ................
  41082c:	ffff ffff ffff ffff ffff ffff ffff ffff     ................
  41083c:	ffff ffff ffff ffff ffff ffff ffff ffff     ................
  41084c:	ffff ffff ffff ffff ffff ffff ffff ffff     ................
  41085c:	ffff ffff ffff ffff ffff ffff ffff ffff     ................
  41086c:	ffff ffff ffff ffff ffff ffff ffff ffff     ................
  41087c:	ffff ffff ffff ffff ffff ffff ffff ffff     ................
  41088c:	ffff ffff ffff ffff ffff ffff ffff ffff     ................
  41089c:	ffff ffff ffff ffff ffff ffff ffff ffff     ................
  4108ac:	ffff ffff ffff ffff ffff ffff ffff ffff     ................
  4108bc:	ffff ffff ffff ffff ffff ffff ffff ffff     ................
  4108cc:	ffff ffff ffff ffff ffff ffff ffff ffff     ................
  4108dc:	ffff ffff ffff ffff ffff ffff ffff ffff     ................
  4108ec:	ffff ffff feff fefe fefe fdfe fdfd acac     ................
  4108fc:	00ac 0000 0000 0000 0000 0000 0000 0000     ................
  41090c:	1515 a615 a6a6 fdfd fffd ffff ffff ffff     ................
  41091c:	ffff ffff ffff ffff ffff ffff ffff ffff     ................
  41092c:	ffff ffff ffff ffff ffff ffff ffff ffff     ................
  41093c:	ffff ffff ffff ffff ffff ffff ffff ffff     ................
  41094c:	ffff ffff ffff ffff ffff ffff ffff ffff     ................
  41095c:	ffff ffff ffff ffff ffff ffff ffff ffff     ................
  41096c:	ffff ffff ffff ffff ffff ffff ffff ffff     ................
  41097c:	ffff ffff ffff ffff ffff ffff ffff ffff     ................
  41098c:	ffff ffff ffff ffff ffff ffff ffff ffff     ................
  41099c:	ffff ffff ffff ffff ffff ffff ffff ffff     ................
  4109ac:	ffff ffff ffff ffff ffff ffff ffff ffff     ................
  4109bc:	ffff ffff ffff feff fefe fefe fefe fefe     ................
  4109cc:	fcfc f8fc f8f8 e0e0 c4e0 c4c4 8c8c 588c     ...............X
  4109dc:	5858 2323 0423 0404 0000 0100 0101 0101     XX###...........
  4109ec:	0001 0000 0000 4000 4040 e3e3 fde3 fdfd     .......@@@......
  4109fc:	ffff ffff ffff ffff ffff ffff ffff ffff     ................
  410a0c:	ffff ffff ffff ffff ffff ffff ffff ffff     ................
  410a1c:	ffff ffff ffff ffff ffff ffff ffff ffff     ................
  410a2c:	ffff ffff ffff ffff ffff ffff ffff ffff     ................
  410a3c:	ffff ffff ffff ffff ffff ffff ffff ffff     ................
  410a4c:	ffff ffff ffff ffff ffff ffff ffff ffff     ................
  410a5c:	ffff ffff ffff ffff ffff ffff ffff ffff     ................
  410a6c:	ffff ffff ffff ffff ffff ffff ffff ffff     ................
  410a7c:	ffff ffff ffff ffff ffff ffff ffff ffff     ................
  410a8c:	ffff ffff ffff ffff ffff ffff ffff ffff     ................
  410a9c:	ffff ffff ffff ffff ffff ffff ffff ffff     ................
  410aac:	ffff ffff ffff ffff ffff ffff ffff ffff     ................
  410abc:	ffff ffff ffff ffff ffff ffff ffff ffff     ................
  410acc:	ffff ffff ffff ffff ffff ffff ffff ffff     ................
  410adc:	ffff ffff ffff ffff ffff ffff ffff ffff     ................
  410aec:	ffff ffff ffff ffff ffff ffff ffff fefd     ................
  410afc:	fffe fdfd fdff ffff fffe eeff afa6 0bcb     ................
  410b0c:	cf2e 3312 12d0 ca31 3111 a3eb feaf fdfe     ...3..1..1......
  410b1c:	fffe fffd ffff ffff ffff ffff ffff ffff     ................
  410b2c:	ffff ffff 8dff 8d8d 2828 ff28 ffff b8b8     ........(((.....
  410b3c:	3bb8 3b3b dcdc fedc fefe d6d6 37d6 3737     .;;;.........777
  410b4c:	c8c8 fec8 fefe fefe fcfe fcfc eeee 9bee     ................
  410b5c:	9b9b 2a2a a32a a3a3 fcfc 6cfc 6c6c 5252     ..***......lllRR
  410b6c:	fc52 fcfc fefe f8fe f8f8 5656 8856 8888     R.........VVV...
  410b7c:	fcfc fbfc fbfb 7979 6f79 6f6f f4f4 fdf4     ......yyyooo....
  410b8c:	fdfd d6d6 38d6 3838 bebe febe fefe efef     .....888........
  410b9c:	61ef 6161 8f8f fe8f fefe d5d5 37d5 3737     .aaa.........777
  410bac:	c3c3 fcc3 fcfc b0b0 44b0 4444 dfdf fedf     .........DDD....
  410bbc:	fefe fdfd aafd aaaa 2b2b f72b f7f7 ffff     ........+++.....
  410bcc:	ffff ffff ffff ffff ffff ffff ffff ffff     ................
  410bdc:	ffff ffff ffff ffff ffff ffff ffff ffff     ................
  410bec:	ffff ffff ffff ffff ffff ffff ffff ffff     ................
  410bfc:	ffff ffff ffff ffff ffff ffff ffff ffff     ................
  410c0c:	ffff ffff ffff ffff ffff ffff ffff ffff     ................
  410c1c:	ffff ffff ffff ffff ffff ffff ffff ffff     ................
  410c2c:	ffff ffff ffff ffff ffff ffff ffff ffff     ................
  410c3c:	ffff ffff ffff ffff ffff ffff ffff ffff     ................
  410c4c:	ffff ffff ffff ffff ffff ffff ffff ffff     ................
  410c5c:	ffff ffff ffff ffff ffff ffff ffff ffff     ................
  410c6c:	ffff ffff ffff ffff ffff ffff ffff ffff     ................
  410c7c:	ffff ffff ffff ffff ffff ffff ffff ffff     ................
  410c8c:	ffff ffff ffff ffff ffff ffff ffff ffff     ................
  410c9c:	ffff ffff ffff ffff ffff ffff ffff ffff     ................
  410cac:	ffff fefe fefe fefe ffff adff adad 0000     ................
  410cbc:	0100 0101 0000 0000 0000 0000 1400 1414     ................
  410ccc:	a8a8 fda8 fdfd fefe fffe ffff ffff ffff     ................
  410cdc:	ffff ffff ffff ffff ffff ffff ffff ffff     ................
  410cec:	ffff ffff ffff ffff ffff ffff ffff ffff     ................
  410cfc:	ffff ffff ffff ffff ffff ffff ffff ffff     ................
  410d0c:	ffff ffff ffff ffff ffff ffff ffff ffff     ................
  410d1c:	ffff ffff ffff ffff ffff ffff ffff ffff     ................
  410d2c:	ffff ffff ffff ffff ffff ffff ffff ffff     ................
  410d3c:	ffff ffff ffff ffff ffff ffff ffff ffff     ................
  410d4c:	ffff ffff ffff ffff ffff ffff ffff ffff     ................
  410d5c:	ffff ffff ffff ffff ffff ffff ffff ffff     ................
  410d6c:	ffff ffff ffff ffff ffff ffff ffff ffff     ................
  410d7c:	ffff ffff fefe fefe fefe fcfc cbfc cbcb     ................
  410d8c:	8282 4582 4545 1717 0817 0808 1c1c 281c     ...EEE.........(
  410d9c:	2828 1414 0114 0101 0101 0001 0000 0101     ((..............
  410dac:	0001 0000 4040 e240 e2e2 fefe fffe ffff     ....@@@.........
  410dbc:	ffff ffff ffff ffff ffff ffff ffff ffff     ................
  410dcc:	ffff ffff ffff ffff ffff ffff ffff ffff     ................
  410ddc:	ffff ffff ffff ffff ffff ffff ffff ffff     ................
  410dec:	ffff ffff ffff ffff ffff ffff ffff ffff     ................
  410dfc:	ffff ffff ffff ffff ffff ffff ffff ffff     ................
  410e0c:	ffff ffff ffff ffff ffff ffff ffff ffff     ................
  410e1c:	ffff ffff ffff ffff ffff ffff ffff ffff     ................
  410e2c:	ffff ffff ffff ffff ffff ffff ffff ffff     ................
  410e3c:	ffff ffff ffff ffff ffff ffff ffff ffff     ................
  410e4c:	ffff ffff ffff ffff ffff ffff ffff ffff     ................
  410e5c:	ffff ffff ffff ffff ffff ffff ffff ffff     ................
  410e6c:	ffff ffff ffff ffff ffff ffff ffff ffff     ................
  410e7c:	ffff ffff ffff ffff ffff ffff ffff ffff     ................
  410e8c:	ffff ffff ffff ffff ffff ffff ffff ffff     ................
  410e9c:	ffff ffff ffff ffff ffff ffff ffff ffff     ................
  410eac:	ffff ffff ffff ffff ffff fdff fefe fdff     ................
  410ebc:	fffd fffd feff ffff a6ee cbaf 2e0b 12cf     ................
  410ecc:	d033 3112 11ca eb31 afa3 fefe fefd fdff     3..1..1.........
  410edc:	ffff ffff ffff ffff ffff ffff ffff ffff     ................
  410eec:	ffff 8d8d 298d 2929 fefe b9fe b9b9 3b3b     .....)))......;;
  410efc:	dd3b dddd fefe d5fe d5d5 3838 c638 c6c6     ;.........888...
  410f0c:	f6f6 a6f6 a6a6 dede fede fefe f6f6 58f6     ...............X
  410f1c:	5858 8989 fc89 fcfc 6f6f 4f6f 4f4f fdfd     XX......oooOOO..
  410f2c:	fefd fefe f8f8 59f8 5959 8888 fd88 fdfd     .......YYY......
  410f3c:	fbfb 79fb 7979 7373 f573 f5f5 fefe d9fe     ...yyysss.......
  410f4c:	d9d9 3f3f b53f b5b5 fcfc e0fc e0e0 4646     ..???.........FF
  410f5c:	8e46 8e8e fefe d4fe d4d4 3737 c337 c3c3     F.........777...
  410f6c:	fefe ccfe cccc 3333 bd33 bdbd fefe f6fe     ......333.......
  410f7c:	f6f6 7c7c 527c 5252 fbfb fefb fefe ffff     ..|||RRR........
  410f8c:	ffff ffff ffff ffff ffff ffff ffff ffff     ................
  410f9c:	ffff ffff ffff ffff ffff ffff ffff ffff     ................
  410fac:	ffff ffff ffff ffff ffff ffff ffff ffff     ................
  410fbc:	ffff ffff ffff ffff ffff ffff ffff ffff     ................
  410fcc:	ffff ffff ffff ffff ffff ffff ffff ffff     ................
  410fdc:	ffff ffff ffff ffff ffff ffff ffff ffff     ................
  410fec:	ffff ffff ffff ffff ffff ffff ffff ffff     ................
  410ffc:	ffff ffff ffff ffff ffff ffff ffff ffff     ................
  41100c:	ffff ffff ffff ffff ffff ffff ffff ffff     ................
  41101c:	ffff ffff ffff ffff ffff ffff ffff ffff     ................
  41102c:	ffff ffff ffff ffff ffff ffff ffff ffff     ................
  41103c:	ffff ffff ffff ffff ffff ffff ffff ffff     ................
  41104c:	ffff ffff ffff ffff ffff ffff ffff ffff     ................
  41105c:	ffff ffff ffff ffff ffff ffff ffff feff     ................
  41106c:	fefe fefe fffe ffff adad 00ad 0000 0000     ................
	...
  411084:	0000 1414 a914 a9a9 fefe fefe fefe ffff     ................
  411094:	ffff ffff ffff ffff ffff ffff ffff ffff     ................
  4110a4:	ffff feff fefe fefe fefe fefe ffff feff     ................
  4110b4:	fefe ffff ffff ffff fdfd fefd fefe fefe     ................
  4110c4:	fefe fefe fefe fefe fefe fefe fefe fefe     ................
  4110d4:	ffff ffff ffff fefe fefe fefe fefe fffe     ................
  4110e4:	ffff ffff ffff ffff ffff ffff ffff ffff     ................
  4110f4:	ffff ffff ffff ffff ffff ffff ffff ffff     ................
  411104:	ffff ffff ffff ffff ffff ffff ffff ffff     ................
  411114:	ffff ffff ffff ffff fefe fefe fefe ffff     ................
  411124:	feff fefe fefe fefe fefe fefe fffe ffff     ................
  411134:	fdfd fefd fefe fefe fefe fefe e6e6 77e6     ...............w
  411144:	7777 2323 0a23 0a0a 2727 7b27 7b7b b7b7     ww###...'''{{{..
  411154:	cfb7 cfcf d4d4 c0d4 c0c0 0c0c 000c 0000     ................
	...
  41116c:	3f00 3f3f e1e1 ffe1 ffff fefe fefe fefe     .???............
  41117c:	ffff ffff ffff ffff ffff ffff ffff feff     ................
  41118c:	fefe ffff ffff ffff ffff ffff ffff fefe     ................
  41119c:	fffe ffff ffff ffff ffff ffff ffff ffff     ................
  4111ac:	ffff ffff ffff ffff ffff ffff ffff ffff     ................
  4111bc:	ffff ffff ffff ffff ffff ffff ffff ffff     ................
  4111cc:	ffff ffff ffff feff fefe ffff ffff ffff     ................
  4111dc:	fefe fefe fefe ffff feff fefe ffff ffff     ................
  4111ec:	ffff fefe fffe ffff ffff ffff ffff ffff     ................
  4111fc:	feff fefe fefe fefe fefe fdfd fffd ffff     ................
  41120c:	fefe fefe fefe ffff ffff ffff ffff ffff     ................
  41121c:	ffff fefe fffe ffff ffff ffff ffff fefe     ................
  41122c:	fefe fefe fefe fefe fefe fefe fffe ffff     ................
  41123c:	fefe fefe fefe ffff fdff fdfd ffff ffff     ................
  41124c:	ffff fefe fffe ffff ffff ffff ffff fefe     ................
  41125c:	fffe ffff ffff ffff ffff ffff ffff ffff     ................
  41126c:	ffff ffff ffff ffff fefd fffe fdfd fdff     ................
  41127c:	ffff fffe eeff afa6 0bcb cf2e 3312 12d0     .............3..
  41128c:	ca31 3111 a3eb feaf fdfe fffe fffd ffff     1..1............
  41129c:	ffff ffff ffff ffff ffff ffff ffff 86ff     ................
  4112ac:	8686 1c1c fe1c fefe b5b5 30b5 3030 dbdb     ...........000..
  4112bc:	fedb fefe d3d3 34d3 3434 c6c6 f2c6 f2f2     .......444......
  4112cc:	5757 4657 4646 9191 7991 7979 3636 bd36     WWWFFF...yyy666.
  4112dc:	bdbd fefe 8ffe 8f8f 2828 8e28 8e8e d5d5     ........(((.....
  4112ec:	f9d5 f9f9 5151 8551 8585 fbfb fdfb fdfd     ....QQQ.........
  4112fc:	8f8f 388f 3838 8f8f cf8f cfcf eeee 5fee     ...888........._
  41130c:	5f5f 4646 9946 9999 4848 1248 1212 8b8b     __FFF...HHH.....
  41131c:	fe8b fefe dede 43de 4343 6868 9a68 9a9a     .......CCChhh...
  41132c:	e5e5 71e5 7171 3636 9536 9595 7777 2e77     ...qqq666...www.
  41133c:	2e2e b1b1 feb1 fefe fdfd fffd ffff ffff     ................
  41134c:	ffff ffff ffff ffff ffff ffff ffff ffff     ................
  41135c:	ffff ffff ffff ffff ffff ffff ffff ffff     ................
  41136c:	ffff ffff ffff ffff ffff ffff ffff ffff     ................
  41137c:	ffff ffff ffff ffff ffff ffff ffff ffff     ................
  41138c:	ffff ffff ffff ffff ffff ffff ffff ffff     ................
  41139c:	ffff ffff ffff ffff ffff ffff ffff ffff     ................
  4113ac:	ffff ffff ffff ffff ffff ffff ffff ffff     ................
  4113bc:	ffff ffff ffff ffff ffff ffff ffff ffff     ................
  4113cc:	ffff ffff ffff ffff ffff ffff ffff ffff     ................
  4113dc:	ffff ffff ffff ffff ffff ffff ffff ffff     ................
  4113ec:	ffff ffff ffff ffff ffff ffff ffff ffff     ................
  4113fc:	ffff ffff ffff ffff ffff ffff ffff ffff     ................
  41140c:	ffff ffff ffff ffff ffff ffff ffff ffff     ................
  41141c:	ffff ffff ffff ffff ffff ffff ffff ffff     ................
  41142c:	ffff ffff acff acac 0000 0000 0000 0000     ................
  41143c:	0000 0000 0000 1400 1414 a9a9 ffa9 ffff     ................
  41144c:	ffff ffff ffff ffff ffff ffff ffff ffff     ................
  41145c:	ffff ffff feff fefe fdfd fffd ffff ffff     ................
  41146c:	ffff ffff fefe fefe fefe fefe fefe fefe     ................
  41147c:	fefe fcfe fcfc fdfd fefd fefe fefe fefe     ................
  41148c:	fefe ffff feff fefe fefe fefe fefe fdfd     ................
  41149c:	fdfd fdfd fefe fefe fefe fdfd fefd fefe     ................
  4114ac:	fefe fffe ffff ffff ffff ffff ffff ffff     ................
  4114bc:	ffff ffff ffff ffff ffff ffff ffff ffff     ................
  4114cc:	ffff ffff ffff feff fefe fdfd fefd fefe     ................
  4114dc:	fefe fefe fefe fdfd fefd fefe fdfd fefd     ................
  4114ec:	fefe fdfd fefd fefe fefe fdfe fdfd d4d4     ................
  4114fc:	3dd4 3d3d 0101 1101 1111 8484 eb84 ebeb     .===............
  41150c:	fefe fcfe fcfc fefe fefe fefe fbfb 22fb     ..............."
  41151c:	2222 0101 0001 0000 0000 0000 0000 3e3e     ""............>>
  41152c:	e03e e0e0 fefe fffe ffff fefe fefe fefe     >...............
  41153c:	fdfd fefd fefe fefe fefe fefe fefe fdfe     ................
  41154c:	fdfd fefe fefe fefe fefe fefe fefe ffff     ................
  41155c:	ffff ffff ffff ffff ffff ffff ffff ffff     ................
  41156c:	ffff ffff ffff ffff ffff ffff ffff ffff     ................
  41157c:	ffff ffff ffff ffff fefe fefe fefe fdfd     ................
  41158c:	fefd fefe fefe fefe fefe fefe fefe fefe     ................
  41159c:	fefe fffe ffff fefe fefe fefe fefe fffe     ................
  4115ac:	ffff ffff ffff ffff fefe fefe fefe fefe     ................
  4115bc:	fefe fefe fefe fefe fefe fdfd fefd fefe     ................
  4115cc:	fefe fefe fefe fefe fefe fefe fefe fffe     ................
  4115dc:	ffff fefe fefe fefe fdfd fefd fefe fefe     ................
  4115ec:	fefe fefe fefe fefe fefe fdfd fffd ffff     ................
  4115fc:	fefe fefe fefe fefe fefe fefe fdfd fefd     ................
  41160c:	fefe fdfd fdfd fdfd fefe fefe fefe fdfd     ................
  41161c:	fffd ffff ffff ffff ffff ffff ffff ffff     ................
  41162c:	ffff ffff fdff fefe fdff fffd fffd feff     ................
  41163c:	ffff a6ee cbaf 2e0b 12cf d033 3112 11ca     ..........3..1..
  41164c:	eb31 afa3 fefe fefd fdff ffff ffff ffff     1...............
  41165c:	ffff ffff ffff ffff ffff ffff c6c6 95c6     ................
  41166c:	9595 fdfd dbfd dbdb 9d9d ee9d eeee fefe     ................
  41167c:	eafe eaea 9d9d e29d e2e2 fefe e5fe e5e5     ................
  41168c:	7e7e 337e 3333 4343 bb43 bbbb fefe fcfe     ~~~333CCC.......
  41169c:	fcfc f1f1 61f1 6161 3535 bc35 bcbc fafa     .....aaa555.....
  4116ac:	abfa abab c5c5 fdc5 fdfd ffff e0ff e0e0     ................
  4116bc:	5f5f 355f 3535 b7b7 ffb7 ffff d3d3 56d3     ___555.........V
  4116cc:	5656 3333 a433 a4a4 b3b3 c4b3 c4c4 fefe     VV333...........
  4116dc:	fbfe fbfb afaf 3baf 3b3b 4646 e946 e9e9     .......;;;FFF...
  4116ec:	f2f2 8af2 8a8a 2a2a 432a 4343 baba fcba     ......***CCC....
  4116fc:	fcfc fbfb fefb fefe ffff ffff ffff ffff     ................
  41170c:	ffff ffff ffff ffff ffff ffff ffff ffff     ................
  41171c:	ffff ffff ffff ffff ffff ffff ffff ffff     ................
  41172c:	ffff ffff ffff ffff ffff ffff ffff ffff     ................
  41173c:	ffff ffff ffff ffff ffff ffff ffff ffff     ................
  41174c:	ffff ffff ffff ffff ffff ffff ffff ffff     ................
  41175c:	ffff ffff ffff ffff ffff ffff ffff ffff     ................
  41176c:	ffff ffff ffff ffff ffff ffff ffff ffff     ................
  41177c:	ffff ffff ffff ffff ffff ffff ffff ffff     ................
  41178c:	ffff ffff ffff ffff ffff ffff ffff ffff     ................
  41179c:	ffff ffff ffff ffff ffff ffff ffff ffff     ................
  4117ac:	ffff ffff ffff ffff ffff ffff ffff ffff     ................
  4117bc:	ffff ffff ffff ffff ffff ffff ffff ffff     ................
  4117cc:	ffff ffff ffff ffff ffff ffff ffff ffff     ................
  4117dc:	ffff ffff ffff ffff ffff ffff ffff ffff     ................
  4117ec:	ffff acac 00ac 0000 0000 0000 0000 0000     ................
  4117fc:	0000 0000 1414 a914 a9a9 ffff ffff ffff     ................
  41180c:	ffff ffff ffff ffff ffff ffff ffff ffff     ................
  41181c:	ffff fefe fdfe fdfd ffff ffff ffff ffff     ................
  41182c:	feff fefe fefe fcfe fcfc fefe fcfe fcfc     ................
  41183c:	fefe fdfe fdfd fefe fefe fefe fefe fefe     ................
  41184c:	fefe fefe fefe fefe fefe fefe fefe fefe     ................
  41185c:	fffe ffff fdfd fefd fefe fefe fcfe fcfc     ................
  41186c:	ffff ffff ffff ffff ffff ffff ffff ffff     ................
  41187c:	ffff ffff ffff ffff ffff ffff ffff ffff     ................
  41188c:	ffff ffff fefe fefe fefe fefe fefe fefe     ................
  41189c:	fefe fefe fefe fefe fefe fefe fefe fffe     ................
  4118ac:	ffff ffff feff fefe cfcf 3ccf 3c3c 0202     ...........<<<..
  4118bc:	3302 3333 c1c1 fdc1 fdfd fefe fdfe fdfd     .333............
  4118cc:	fefe fefe fefe fefe fdfe fdfd 2323 0023     ............###.
	...
  4118e4:	0000 3c00 3c3c dede fede fefe fefe fefe     ...<<<..........
  4118f4:	fefe fefe fefe fefe fefe fefe fefe fefe     ................
  411904:	fdfe fdfd fefe fefe fefe fefe fefe fefe     ................
  411914:	fdfd fffd ffff ffff ffff ffff ffff ffff     ................
  411924:	ffff ffff ffff ffff ffff ffff ffff ffff     ................
  411934:	ffff ffff ffff ffff ffff ffff fdff fdfd     ................
  411944:	fdfd fefd fefe fefe fefe fefe fefe fefe     ................
  411954:	fefe fefe fefe fefe ffff feff fefe fefe     ................
  411964:	fefe fefe fefe fffe ffff fefe fefe fefe     ................
  411974:	fefe fefe fefe fefe fefe fefe fefe fefe     ................
  411984:	fefe fefe fdfe fdfd fefe fefe fefe fefe     ................
  411994:	fefe fefe fefe fefe fefe fefe fefe fefe     ................
  4119a4:	fefe fefe fefe fefe fefe fefe fefe fefe     ................
  4119b4:	fefe fefe fefe fefe fefe fefe fefe fefe     ................
  4119c4:	fefe fefe ffff fdff fdfd fdfd fdfd fdfd     ................
  4119d4:	fbfb fefb fefe ffff ffff ffff ffff ffff     ................
  4119e4:	ffff ffff ffff ffff ffff fefd fffe fdfd     ................
  4119f4:	fdff ffff fffe eeff afa6 0bcb cf2e 3312     ...............3
  411a04:	12d0 ca31 3111 a3eb feaf fdfe fffe fffd     ..1..1..........
  411a14:	ffff ffff ffff ffff ffff ffff ffff ffff     ................
  411a24:	feff fefe fbfb fefb fefe fdfd fcfd fcfc     ................
  411a34:	fefe fdfe fdfd fcfc fcfc fcfc fefe fefe     ................
  411a44:	fefe fefe fcfe fcfc fcfc fefc fefe fefe     ................
  411a54:	fdfe fdfd fefe fefe fefe fdfd fcfd fcfc     ................
  411a64:	fcfc fefc fefe fdfd fdfd fdfd fefe fefe     ................
  411a74:	fefe fefe fdfe fdfd fefe fefe fefe fefe     ................
  411a84:	fefe fefe fcfc fefc fefe fefe fcfe fcfc     ................
  411a94:	fefe fdfe fdfd fdfd fefd fefe fefe fcfe     ................
  411aa4:	fcfc fefe fdfe fdfd fefe fefe fefe fefe     ................
  411ab4:	fdfe fdfd fdfd fdfd fdfd fcfc fffc ffff     ................
  411ac4:	ffff ffff ffff ffff ffff ffff ffff ffff     ................
  411ad4:	ffff ffff ffff ffff ffff ffff ffff ffff     ................
  411ae4:	ffff ffff ffff ffff ffff ffff ffff ffff     ................
  411af4:	ffff ffff ffff ffff ffff ffff ffff ffff     ................
  411b04:	ffff ffff ffff ffff ffff ffff ffff ffff     ................
  411b14:	ffff ffff ffff ffff ffff ffff ffff ffff     ................
  411b24:	ffff ffff ffff ffff ffff ffff ffff ffff     ................
  411b34:	ffff ffff ffff ffff ffff ffff ffff ffff     ................
  411b44:	ffff ffff ffff ffff ffff ffff ffff ffff     ................
  411b54:	ffff ffff ffff ffff ffff ffff ffff ffff     ................
  411b64:	ffff ffff ffff ffff ffff ffff ffff ffff     ................
  411b74:	ffff ffff ffff ffff ffff ffff ffff ffff     ................
  411b84:	ffff ffff ffff ffff ffff ffff ffff ffff     ................
  411b94:	ffff ffff ffff ffff ffff ffff ffff ffff     ................
  411ba4:	ffff ffff ffff acff acac 0000 0000 0000     ................
	...
  411bbc:	1400 1414 a9a9 ffa9 ffff ffff ffff ffff     ................
  411bcc:	ffff ffff ffff ffff ffff ffff ffff feff     ................
  411bdc:	fefe fefe fefe fefe fefe fefe fefe fefe     ................
  411bec:	fefe fefe fdfd fdfd fdfd fefe fefe fefe     ................
  411bfc:	fefe fefe fefe fdfd fefd fefe fefe fefe     ................
  411c0c:	fefe fefe fefe fefe fefe fefe fefe ffff     ................
  411c1c:	feff fefe fefe fefe fefe fefe fffe ffff     ................
  411c2c:	ffff ffff ffff ffff ffff ffff ffff ffff     ................
  411c3c:	ffff ffff ffff ffff ffff ffff ffff ffff     ................
  411c4c:	feff fefe fefe fefe fefe fefe fdfe fdfd     ................
  411c5c:	fdfd fefd fefe fefe fefe fefe fefe fefe     ................
  411c6c:	fefe e0e0 3de0 3d3d 0000 3700 3737 cccc     .....===...777..
  411c7c:	fecc fefe fcfc fdfc fdfd fefe fefe fefe     ................
  411c8c:	fefe fefe fefe fcfc 23fc 2323 0000 0000     .........###....
	...
  411ca4:	3b3b dd3b dddd ffff feff fefe fefe fffe     ;;;.............
  411cb4:	ffff fefe fefe fefe ffff feff fefe fefe     ................
  411cc4:	fefe fefe fefe fdfe fdfd fefe fefe fefe     ................
  411cd4:	ffff ffff ffff ffff ffff ffff ffff ffff     ................
  411ce4:	ffff ffff ffff ffff ffff ffff ffff ffff     ................
  411cf4:	ffff ffff ffff feff fefe fefe fefe fefe     ................
  411d04:	fdfd fdfd fdfd fefe fefe fefe fdfd fefd     ................
  411d14:	fefe fdfd fffd ffff ffff feff fefe fefe     ................
  411d24:	fefe fefe ffff feff fefe fefe fefe fefe     ................
  411d34:	fefe fefe fefe ffff feff fefe fefe fefe     ................
  411d44:	fefe fefe fdfe fdfd fefe fefe fefe fefe     ................
  411d54:	fefe fefe ffff ffff ffff ffff fdff fdfd     ................
  411d64:	ffff feff fefe fdfd fefd fefe fefe fefe     ................
  411d74:	fefe fefe fdfe fdfd fefe fefe fefe fefe     ................
  411d84:	fdfe fdfd fefe fcfe fcfc fefe fefe fefe     ................
  411d94:	fdfd fffd ffff ffff ffff ffff ffff ffff     ................
  411da4:	ffff ffff ffff fdff fefe fdff fffd fffd     ................
  411db4:	feff ffff a6ee cbaf 2e0b 12cf d033 3112     ............3..1
  411dc4:	11ca eb31 afa3 fefe fefd fdff ffff ffff     ..1.............
  411dd4:	ffff ffff ffff ffff ffff ffff ffff fefe     ................
  411de4:	fefe fefe fefe fefe fefe fefe fdfe fdfd     ................
  411df4:	fefe fefe fefe fdfd fefd fefe fefe fdfe     ................
  411e04:	fdfd ffff fdff fdfd fefe fefe fefe fefe     ................
  411e14:	fefe fefe fefe fdfe fdfd fefe fcfe fcfc     ................
  411e24:	fdfd fefd fefe fefe fefe fefe fefe fdfe     ................
  411e34:	fdfd fefe fdfe fdfd fdfd fdfd fdfd fefe     ................
  411e44:	fefe fefe fefe fefe fefe fefe fdfe fdfd     ................
  411e54:	fefe fefe fefe fdfd fefd fefe fdfd fefd     ................
  411e64:	fefe fdfd fefd fefe fdfd fefd fefe fdfd     ................
  411e74:	fefd fefe fdfd fdfd fdfd ffff ffff ffff     ................
  411e84:	ffff ffff ffff ffff ffff ffff ffff ffff     ................
  411e94:	ffff ffff ffff ffff ffff ffff ffff ffff     ................
  411ea4:	ffff ffff ffff ffff ffff ffff ffff ffff     ................
  411eb4:	ffff ffff ffff ffff ffff ffff ffff ffff     ................
  411ec4:	ffff ffff ffff ffff ffff ffff ffff ffff     ................
  411ed4:	ffff ffff ffff ffff ffff ffff ffff ffff     ................
  411ee4:	ffff ffff ffff ffff ffff ffff ffff ffff     ................
  411ef4:	ffff ffff ffff ffff ffff ffff ffff ffff     ................
  411f04:	ffff ffff ffff ffff ffff ffff ffff ffff     ................
  411f14:	ffff ffff ffff ffff ffff ffff ffff ffff     ................
  411f24:	ffff ffff ffff ffff ffff ffff ffff ffff     ................
  411f34:	ffff ffff ffff ffff ffff ffff ffff ffff     ................
  411f44:	ffff ffff ffff ffff ffff ffff ffff ffff     ................
  411f54:	ffff ffff ffff ffff ffff ffff ffff ffff     ................
  411f64:	ffff ffff acac 00ac 0000 0000 0000 0000     ................
  411f74:	0000 0000 0000 1414 a914 a9a9 ffff ffff     ................
  411f84:	ffff ffff ffff ffff ffff ffff ffff ffff     ................
  411f94:	ffff ffff fefe fffe ffff fefe fefe fefe     ................
  411fa4:	fefe fefe fefe fefe fefe fefe ffff ffff     ................
  411fb4:	ffff fafa fefa fefe fcfc fefc fefe fcfc     ................
  411fc4:	fefc fefe fefe fdfe fdfd fefe f9fe f9f9     ................
  411fd4:	f8f8 fdf8 fdfd fefe fefe fefe ffff fcff     ................
  411fe4:	fcfc ffff ffff ffff ffff ffff ffff ffff     ................
  411ff4:	ffff ffff ffff ffff ffff ffff ffff ffff     ................
  412004:	ffff ffff ffff ffff feff fefe fefe fefe     ................
  412014:	fefe fdfd fdfd fdfd f8f8 f1f8 f1f1 f8f8     ................
  412024:	fef8 fefe fbfb 63fb 6363 0101 0d01 0d0d     .......ccc......
  412034:	9b9b fb9b fbfb fefe fdfe fdfd fdfd fefd     ................
  412044:	fefe fdfd fefd fefe fefe fbfe fbfb 2222     ..............""
  412054:	0022 0000 0000 0000 0000 0000 3a00 3a3a     "............:::
  412064:	dcdc ffdc ffff ffff feff fefe fefe fffe     ................
  412074:	ffff fefe fcfe fcfc f8f8 faf8 fafa fefe     ................
  412084:	fdfe fdfd fdfd fefd fefe fdfd fdfd fdfd     ................
  412094:	ffff ffff ffff ffff ffff ffff ffff ffff     ................
  4120a4:	ffff ffff ffff ffff ffff ffff ffff ffff     ................
  4120b4:	ffff ffff fefe fdfe fdfd fefe fdfe fdfd     ................
  4120c4:	fefe fefe fefe fefe fcfe fcfc f8f8 faf8     ................
  4120d4:	fafa fefe fcfe fcfc fdfd fefd fefe ffff     ................
  4120e4:	fdff fdfd fdfd fffd ffff fcfc fefc fefe     ................
  4120f4:	fefe fefe fefe ffff feff fefe ffff feff     ................
  412104:	fefe fefe fefe fefe fefe fefe fefe fefe     ................
  412114:	fefe fefe fdfd fbfd fbfb fefe fdfe fdfd     ................
  412124:	fdfd fefd fefe fcfc fcfc fcfc fefe fdfe     ................
  412134:	fdfd fafa fafa fafa fdfd fefd fefe fefe     ................
  412144:	fefe fefe fcfc fdfc fdfd fefe fefe fefe     ................
  412154:	ffff ffff ffff ffff ffff ffff ffff ffff     ................
  412164:	ffff ffff fefd fffe fdfd fdff ffff fffe     ................
  412174:	eeff afa6 0bcb cf2e 3312 12d0 ca31 3111     .........3..1..1
  412184:	a3eb feaf fdfe fffe fffd ffff ffff ffff     ................
  412194:	ffff ffff ffff ffff ffff feff fefe fefe     ................
  4121a4:	fcfe fcfc fefe fdfe fdfd fefe fefe fefe     ................
  4121b4:	fdfd fefd fefe fdfd fefd fefe fefe fdfe     ................
  4121c4:	fdfd fefe fefe fefe fdfd fffd ffff fefe     ................
  4121d4:	fefe fefe fefe fefe fefe fdfd fefd fefe     ................
  4121e4:	fdfd fefd fefe fdfd fefd fefe fdfd fefd     ................
  4121f4:	fefe fefe fbfe fbfb fefe fefe fefe fefe     ................
  412204:	fdfe fdfd fefe fefe fefe fefe fdfe fdfd     ................
  412214:	fefe fefe fefe fafa fefa fefe fefe fefe     ................
  412224:	fefe ffff feff fefe fdfd fdfd fdfd fefe     ................
  412234:	fffe ffff fefe fffe ffff ffff ffff ffff     ................
  412244:	ffff ffff ffff ffff ffff ffff ffff ffff     ................
  412254:	ffff ffff ffff ffff ffff ffff ffff ffff     ................
  412264:	ffff ffff ffff ffff ffff ffff ffff ffff     ................
  412274:	ffff ffff ffff ffff ffff ffff ffff ffff     ................
  412284:	ffff ffff ffff ffff ffff ffff ffff ffff     ................
  412294:	ffff ffff ffff ffff ffff ffff ffff ffff     ................
  4122a4:	ffff ffff ffff ffff ffff ffff ffff ffff     ................
  4122b4:	ffff ffff ffff ffff ffff ffff ffff ffff     ................
  4122c4:	ffff ffff ffff ffff ffff ffff ffff ffff     ................
  4122d4:	ffff ffff ffff ffff ffff ffff ffff ffff     ................
  4122e4:	ffff ffff ffff ffff ffff ffff ffff ffff     ................
  4122f4:	ffff ffff ffff ffff ffff ffff ffff ffff     ................
  412304:	ffff ffff ffff ffff ffff ffff ffff ffff     ................
  412314:	ffff ffff ffff ffff ffff ffff ffff ffff     ................
  412324:	acff acac 0000 0000 0000 0000 0000 0000     ................
  412334:	0000 1400 1414 a9a9 ffa9 ffff ffff ffff     ................
  412344:	ffff ffff ffff ffff ffff ffff ffff ffff     ................
  412354:	fdff fdfd fefe fefe fefe fefe fdfe fdfd     ................
  412364:	f8f8 e7f8 e7e7 bcbc 8bbc 8b8b 5353 5953     ............SSSY
  412374:	5959 ecec feec fefe fefe fefe fefe f9f9     YY..............
  412384:	cff9 cfcf 7979 3979 3939 2222 2222 2222     ....yyy999""""""
  412394:	2e2e 5f2e 5f5f b1b1 f0b1 f0f0 fefe fffe     ...___..........
  4123a4:	ffff ffff ffff ffff ffff ffff ffff ffff     ................
  4123b4:	ffff ffff ffff ffff ffff ffff ffff ffff     ................
  4123c4:	ffff feff fefe fdfd fbfd fbfb d2d2 7fd2     ................
  4123d4:	7f7f 3e3e 1f3e 1f1f 1717 1917 1919 3737     ..>>>.........77
  4123e4:	5137 5151 0909 0009 0000 1b1b b71b b7b7     7QQQ............
  4123f4:	fefe fdfe fdfd fdfd fdfd fdfd fefe fffe     ................
  412404:	ffff fefe fefe fefe fdfd 24fd 2424 0000     ...........$$$..
	...
  41241c:	0000 3939 da39 dada fefe fefe fefe fdfd     ..999...........
  41242c:	f6fd f6f6 c1c1 67c1 6767 2f2f 202f 2020     .......ggg///   
  41243c:	1d1d 321d 3232 6464 b164 b1b1 f0f0 fef0     ...222ddd.......
  41244c:	fefe fefe fffe ffff ffff ffff ffff ffff     ................
  41245c:	ffff ffff ffff ffff ffff ffff ffff ffff     ................
  41246c:	ffff ffff ffff ffff feff fefe fcfc fefc     ................
  41247c:	fefe fbfb dafb dada 9393 5293 5252 2b2b     ...........RRR++
  41248c:	1d2b 1d1d 1d1d 291d 2929 4d4d 854d 8585     +......)))MMM...
  41249c:	d0d0 f5d0 f5f5 fefe fefe fefe fcfc fdfc     ................
  4124ac:	fdfd fefe fefe fefe ffff fdff fdfd fefe     ................
  4124bc:	fbfe fbfb fbfb fdfb fdfd eded d4ed d4d4     ................
  4124cc:	b4b4 8db4 8d8d 6565 4765 4747 6363 f163     ......eeeGGGccc.
  4124dc:	f1f1 ffff feff fefe fefe fefe fefe f5f5     ................
  4124ec:	aef5 aeae 5656 2956 2929 1e1e 391e 3939     ....VVV)))...999
  4124fc:	8d8d ed8d eded fefe fffe ffff fefe fdfe     ................
  41250c:	fdfd fefe fffe ffff ffff ffff ffff ffff     ................
  41251c:	ffff ffff ffff ffff fdff fefe fdff fffd     ................
  41252c:	fffd feff ffff a6ee cbaf 2e0b 12cf d033     ..............3.
  41253c:	3112 11ca eb31 afa3 fefe fefd fdff ffff     .1..1...........
  41254c:	ffff ffff ffff ffff ffff ffff ffff ffff     ................
  41255c:	ffff feff fefe ffff feff fefe fefe fafe     ................
  41256c:	fafa fefe fefe fefe fdfd fefd fefe fefe     ................
  41257c:	fcfe fcfc fefe fefe fefe fefe fefe fefe     ................
  41258c:	fcfc fefc fefe fefe fefe fefe fbfb fdfb     ................
  41259c:	fdfd fefe fcfe fcfc fbfb fdfb fdfd fcfc     ................
  4125ac:	fefc fefe fcfc fefc fefe fefe fefe fefe     ................
  4125bc:	fefe fdfe fdfd fefe fcfe fcfc fcfc fefc     ................
  4125cc:	fefe fefe fdfe fdfd fdfd fefd fefe fefe     ................
  4125dc:	fcfe fcfc fefe fcfe fcfc fdfd fefd fefe     ................
  4125ec:	fdfd fefd fefe fcfc fefc fefe ffff ffff     ................
  4125fc:	ffff ffff ffff ffff ffff ffff ffff ffff     ................
  41260c:	ffff ffff ffff ffff ffff ffff ffff ffff     ................
  41261c:	ffff ffff ffff ffff ffff ffff ffff ffff     ................
  41262c:	ffff ffff ffff ffff ffff ffff ffff ffff     ................
  41263c:	ffff ffff ffff ffff ffff ffff ffff ffff     ................
  41264c:	ffff ffff ffff ffff ffff ffff ffff ffff     ................
  41265c:	ffff ffff ffff ffff ffff ffff ffff ffff     ................
  41266c:	ffff ffff ffff ffff ffff ffff ffff ffff     ................
  41267c:	ffff ffff ffff ffff ffff ffff ffff ffff     ................
  41268c:	ffff ffff ffff ffff ffff ffff ffff ffff     ................
  41269c:	ffff ffff ffff ffff ffff ffff ffff ffff     ................
  4126ac:	ffff ffff ffff ffff ffff ffff ffff ffff     ................
  4126bc:	ffff ffff ffff ffff ffff ffff ffff ffff     ................
  4126cc:	ffff ffff ffff ffff ffff ffff ffff ffff     ................
  4126dc:	ffff ffff ffff acac 00ac 0000 0000 0000     ................
	...
  4126f4:	1414 a914 a9a9 ffff ffff ffff ffff ffff     ................
  412704:	ffff ffff ffff ffff ffff ffff ffff ffff     ................
  412714:	d5ff d5d5 9c9c 769c 7676 4e4e 2a4e 2a2a     .......vvvNNN***
  412724:	0e0e 000e 0000 0000 0000 0000 3535 ec35     ............555.
  412734:	ecec fefe fafe fafa c2c2 5dc2 5d5d 0e0e     ...........]]]..
  412744:	000e 0000 0101 0001 0000 0000 0000 0000     ................
  412754:	0101 0301 0303 3737 ab37 abab f4f4 fff4     ......777.......
  412764:	ffff fefe fefe fefe fefe fefe fefe fefe     ................
  412774:	fffe ffff fefe fefe fefe fefe fefe fefe     ................
  412784:	f8f8 bbf8 bbbb 5555 0755 0707 0000 0000     ......UUU.......
  412794:	0000 0000 0100 0101 0000 0000 0000 0000     ................
  4127a4:	0100 0101 0000 0300 0303 6262 d362 d3d3     ..........bbb...
  4127b4:	f4f4 fdf4 fdfd fefe fefe fefe ffff feff     ................
  4127c4:	fefe fefe fcfe fcfc 2121 0021 0000 0000     ........!!!.....
  4127d4:	0000 0000 0000 3700 3737 d8d8 fed8 fefe     .......777......
  4127e4:	ebeb a7eb a7a7 3e3e 053e 0505 0000 0100     ......>>>.......
  4127f4:	0101 0000 0100 0101 0000 0100 0101 0000     ................
  412804:	2e00 2e2e 9191 e691 e6e6 fefe fffe ffff     ................
  412814:	fefe fffe ffff ffff feff fefe ffff feff     ................
  412824:	fefe fefe fefe fefe fefe fffe ffff fefe     ................
  412834:	e9fe e9e9 aeae 51ae 5151 1010 0010 0000     .......QQQ......
  412844:	0101 0001 0000 0101 0001 0000 0000 0000     ................
  412854:	0000 0000 0600 0606 3f3f 9c3f 9c9c e3e3     ........???.....
  412864:	fde3 fdfd ffff fdff fdfd fefe fefe fefe     ................
  412874:	fefe effe efef 8b8b 438b 4343 2525 1425     .........CCC%%%.
  412884:	1414 0404 0004 0000 0202 0102 0101 0000     ................
  412894:	3400 3434 f3f3 fef3 fefe fefe f6fe f6f6     .444............
  4128a4:	c0c0 3ec0 3e3e 0505 0105 0101 0000 0000     ...>>>..........
	...
  4128bc:	2f2f b62f b6b6 fafa fdfa fdfd fefe fffe     ///.............
  4128cc:	ffff ffff ffff ffff ffff ffff ffff ffff     ................
  4128dc:	ffff ffff ffff fefd fffe fdfd fdff ffff     ................
  4128ec:	fffe eeff afa6 0bcb cf2e 3312 12d0 ca31     ...........3..1.
  4128fc:	3111 a3eb feaf fdfe fffe fffd ffff ffff     .1..............
  41290c:	ffff ffff ffff ffff ffff ffff ffff ffff     ................
  41291c:	fefe fefe fefe fefe fcfe fcfc abab b1ab     ................
  41292c:	b1b1 fefe fefe fefe fefe fdfe fdfd fefe     ................
  41293c:	fefe fefe fefe fdfe fdfd fefe fefe fefe     ................
  41294c:	fefe fefe fefe f0f0 aaf0 aaaa 8888 8588     ................
  41295c:	8585 8888 8988 8989 8787 e187 e1e1 fefe     ................
  41296c:	fffe ffff fdfd fefd fefe fdfd fefd fefe     ................
  41297c:	ffff feff fefe fefe fefe fefe fefe fffe     ................
  41298c:	ffff fefe fefe fefe fefe b8fe b8b8 a9a9     ................
  41299c:	fba9 fbfb ffff feff fefe fefe fefe fefe     ................
  4129ac:	fefe fefe fefe fdfd fefd fefe fefe fefe     ................
  4129bc:	fefe fefe fefe fefe fefe fefe fefe fefe     ................
  4129cc:	fefe fefe fefe fefe fefe ffff ffff ffff     ................
  4129dc:	ffff ffff ffff ffff ffff ffff ffff ffff     ................
  4129ec:	ffff ffff ffff ffff ffff ffff ffff ffff     ................
  4129fc:	ffff ffff ffff ffff ffff ffff ffff ffff     ................
  412a0c:	ffff ffff ffff ffff ffff ffff ffff ffff     ................
  412a1c:	ffff ffff ffff ffff ffff ffff ffff ffff     ................
  412a2c:	ffff ffff ffff ffff ffff ffff ffff ffff     ................
  412a3c:	ffff ffff ffff ffff ffff ffff ffff ffff     ................
  412a4c:	ffff ffff ffff ffff ffff ffff ffff ffff     ................
  412a5c:	ffff ffff ffff ffff ffff ffff ffff ffff     ................
  412a6c:	ffff ffff ffff ffff ffff ffff ffff ffff     ................
  412a7c:	ffff ffff ffff ffff ffff ffff ffff ffff     ................
  412a8c:	ffff ffff ffff ffff ffff ffff ffff ffff     ................
  412a9c:	ffff acff acac 0000 0000 0000 0000 0000     ................
  412aac:	0000 0000 1400 1414 a9a9 ffa9 ffff ffff     ................
  412abc:	ffff ffff ffff ffff ffff ffff ffff ffff     ................
  412acc:	ffff feff fefe 6262 0162 0101 0000 0000     ......bbb.......
	...
  412ae4:	0000 0100 0101 0000 3400 3434 eded eced     .........444....
  412af4:	ecec 8989 2589 2525 0101 0001 0000 0000     .....%%%........
	...
  412b18:	0000 0e0e 8a0e 8a8a f5f5 fef5 fefe fefe     ................
  412b28:	fdfe fdfd fefe fefe fefe fefe fefe fefe     ................
  412b38:	fdfd fdfd fdfd fcfc 98fc 9898 2222 0022     ............""".
  412b48:	0000 0000 0800 0808 3f3f 653f 6565 7070     ........???eeepp
  412b58:	6370 6363 4040 0f40 0f0f 0101 0001 0000     pccc@@@.........
  412b68:	0101 0501 0505 3535 7035 7070 bdbd f7bd     ......555ppp....
  412b78:	f7f7 fefe fffe ffff fefe fefe fefe fcfc     ................
  412b88:	22fc 2222 0000 0000 0000 0101 0001 0000     ."""............
  412b98:	3636 d536 d5d5 c9c9 58c9 5858 0f0f 010f     666......XXX....
  412ba8:	0101 0101 0001 0000 0101 0001 0000 0202     ................
  412bb8:	0002 0000 0101 0001 0000 0000 0300 0303     ................
  412bc8:	5d5d d75d d7d7 fdfd fefd fefe fefe fefe     ]]].............
  412bd8:	fefe fefe fefe fefe fdfd fdfd fdfd fefe     ................
  412be8:	fefe fefe fbfb c9fb c9c9 5e5e 0b5e 0b0b     ..........^^^...
  412bf8:	0000 0000 0000 0b0b 3a0b 3a3a 6060 6f60     .........:::```o
  412c08:	6f6f 6969 4969 4949 1616 0016 0000 0000     ooiiiIII........
  412c18:	0000 0000 0a0a 550a 5555 c8c8 fec8 fefe     .......UUU......
  412c28:	fefe fefe fefe fdfd fefd fefe e3e3 47e3     ...............G
  412c38:	4747 0000 0000 0000 0000 0000 0000 0000     GG..............
  412c48:	0200 0202 0000 0000 0000 3838 f438 f4f4     ..........888...
  412c58:	fefe f5fe f5f5 9898 1a98 1a1a 0000 0000     ................
	...
  412c78:	0100 0101 2424 bb24 bbbb fdfd fefd fefe     ....$$$.........
  412c88:	ffff ffff ffff ffff ffff ffff ffff ffff     ................
  412c98:	ffff ffff ffff fdff fefe fdff fffd fffd     ................
  412ca8:	feff ffff a6ee cbaf 2e0b 12cf d033 3112     ............3..1
  412cb8:	11ca eb31 afa3 fefe fefd fdff ffff ffff     ..1.............
  412cc8:	ffff ffff ffff ffff ffff ffff ffff fdfd     ................
  412cd8:	fefd fefe fdfd fefd fefe fefe 43fe 4343     .............CCC
  412ce8:	5454 fe54 fefe fefe fdfe fdfd fdfd fefd     TTT.............
  412cf8:	fefe fefe fefe fefe fdfd fefd fefe fdfd     ................
  412d08:	fdfd fdfd fdfd defd dede 4343 5043 5050     ..........CCCPPP
  412d18:	7373 7573 7575 7474 7374 7373 dcdc fedc     sssuuutttsss....
  412d28:	fefe ffff fdff fdfd fefe fdfe fdfd fefe     ................
  412d38:	fefe fefe fefe fdfe fdfd fdfd fdfd fdfd     ................
  412d48:	fefe fdfe fdfd fefe fefe fefe 9696 7e96     ...............~
  412d58:	7e7e fafa fdfa fdfd fdfd fefd fefe fdfd     ~~..............
  412d68:	fefd fefe fdfd fefd fefe fefe fefe fefe     ................
  412d78:	fcfc fefc fefe fefe fdfe fdfd fefe fefe     ................
  412d88:	fefe fefe fefe fefe fefe fffe ffff ffff     ................
  412d98:	ffff ffff ffff ffff ffff ffff ffff ffff     ................
  412da8:	ffff ffff ffff ffff ffff ffff ffff ffff     ................
  412db8:	ffff ffff ffff ffff ffff ffff ffff ffff     ................
  412dc8:	ffff ffff ffff ffff ffff ffff ffff ffff     ................
  412dd8:	ffff ffff ffff ffff ffff ffff ffff ffff     ................
  412de8:	ffff ffff ffff ffff ffff ffff ffff ffff     ................
  412df8:	ffff ffff ffff ffff ffff ffff ffff ffff     ................
  412e08:	ffff ffff ffff ffff ffff ffff ffff ffff     ................
  412e18:	ffff ffff ffff ffff ffff ffff ffff ffff     ................
  412e28:	ffff ffff ffff ffff ffff ffff ffff ffff     ................
  412e38:	ffff ffff ffff ffff ffff ffff ffff ffff     ................
  412e48:	ffff ffff ffff ffff ffff ffff ffff ffff     ................
  412e58:	ffff ffff acac 00ac 0000 0000 0000 0000     ................
  412e68:	0000 0000 0000 1414 a914 a9a9 ffff ffff     ................
  412e78:	ffff ffff ffff ffff ffff ffff ffff ffff     ................
  412e88:	ffff ffff fefe 77fe 7777 0606 0106 0101     .......www......
  412e98:	0000 0300 0303 0000 0000 0000 0000 0200     ................
  412ea8:	0202 3a3a df3a dfdf 6565 0c65 0c0c 0000     ..:::...eee.....
	...
  412ec0:	0000 0303 0003 0000 0000 0000 0000 0000     ................
  412ed0:	0000 0000 0101 0001 0000 1b1b b11b b1b1     ................
  412ee0:	fefe fcfe fcfc fefe fefe fefe fefe fefe     ................
  412ef0:	fefe fdfd fefd fefe fefe 9ffe 9f9f 1313     ................
  412f00:	0013 0000 0000 0e00 0e0e 9595 de95 dede     ................
  412f10:	f1f1 f5f1 f5f5 f0f0 def0 dede a9a9 21a9     ...............!
  412f20:	2121 0000 0000 0000 0101 0101 0101 0202     !!..............
  412f30:	2b02 2b2b b6b6 fdb6 fdfd ffff feff fefe     .+++............
  412f40:	fefe fcfe fcfc 2222 0022 0000 0000 0100     ......""".......
  412f50:	0101 0000 2a00 2a2a 8383 3283 3232 0101     .....***...222..
  412f60:	0001 0000 0101 0001 0000 0000 0200 0202     ................
  412f70:	0101 0101 0101 0202 0002 0000 0000 0000     ................
  412f80:	0000 0000 0700 0707 5b5b e85b e8e8 fefe     ........[[[.....
  412f90:	fdfe fdfd fefe fefe fefe fefe fefe fefe     ................
  412fa0:	fdfd fefd fefe fdfd bcfd bcbc 3636 0536     ............666.
  412fb0:	0505 0000 0100 0101 2a2a 9e2a 9e9e dcdc     ........***.....
  412fc0:	efdc efef f5f5 f2f5 f2f2 e4e4 b4e4 b4b4     ................
  412fd0:	3f3f 013f 0101 0202 0002 0000 0404 2e04     ???.............
  412fe0:	2e2e d2d2 fed2 fefe fefe fefe fefe fcfc     ................
  412ff0:	f2fc f2f2 9f9f 579f 5757 2626 0126 0101     .......WWW&&&...
	...
  41300c:	0000 3500 3535 f4f4 fcf4 fcfc aaaa 1caa     ...555..........
  41301c:	1c1c 0000 0000 0000 0202 0102 0101 0000     ................
	...
  413034:	0000 0202 0302 0303 5555 e755 e7e7 fbfb     ........UUU.....
  413044:	fffb ffff ffff ffff ffff ffff ffff ffff     ................
  413054:	ffff ffff ffff ffff fefd fffe fdfd fdff     ................
  413064:	ffff fffe eeff afa6 0bcb cf2e 3312 12d0     .............3..
  413074:	ca31 3111 a3eb feaf fdfe fffe fffd ffff     1..1............
  413084:	ffff ffff ffff ffff ffff ffff ffff feff     ................
  413094:	fefe fcfc fefc fefe fefe fefe fefe 4646     ..............FF
  4130a4:	5946 5959 fefe fdfe fdfd fefe fefe fefe     FYYY............
  4130b4:	fefe fdfe fdfd fefe fefe fefe fdfd fdfd     ................
  4130c4:	fdfd fefe fefe fefe dede 44de 4444 acac     ...........DDD..
  4130d4:	f8ac f8f8 f8f8 f8f8 f8f8 f7f7 fdf7 fdfd     ................
  4130e4:	fefe fefe fefe fefe fefe fefe fefe fefe     ................
  4130f4:	fefe fefe fefe fefe fefe fdfe fdfd fefe     ................
  413104:	fcfe fcfc fdfd fefd fefe fdfd f2fd f2f2     ................
  413114:	eded feed fefe fefe fefe fefe fefe fefe     ................
  413124:	fefe fbfb fefb fefe fefe fefe fefe fefe     ................
  413134:	fdfe fdfd fcfc fefc fefe fcfc fefc fefe     ................
  413144:	fdfd fefd fefe fefe fdfe fdfd fefe fefe     ................
  413154:	fefe ffff ffff ffff ffff ffff ffff ffff     ................
  413164:	ffff ffff ffff ffff ffff ffff ffff ffff     ................
  413174:	ffff ffff ffff ffff ffff ffff ffff ffff     ................
  413184:	ffff ffff ffff ffff ffff ffff ffff ffff     ................
  413194:	ffff ffff ffff ffff ffff ffff ffff ffff     ................
  4131a4:	ffff ffff ffff ffff ffff ffff ffff ffff     ................
  4131b4:	ffff ffff ffff ffff ffff ffff ffff ffff     ................
  4131c4:	ffff ffff ffff ffff ffff ffff ffff ffff     ................
  4131d4:	ffff ffff ffff ffff ffff ffff ffff ffff     ................
  4131e4:	ffff ffff ffff ffff ffff ffff ffff ffff     ................
  4131f4:	ffff ffff ffff ffff ffff ffff ffff ffff     ................
  413204:	ffff ffff ffff ffff ffff ffff ffff ffff     ................
  413214:	ffff ffff acff acac 0000 0000 0000 0000     ................
  413224:	0000 0000 0000 1400 1414 a9a9 ffa9 ffff     ................
  413234:	ffff ffff ffff ffff ffff ffff ffff ffff     ................
  413244:	ffff ffff fdff fdfd fefe cefe cece 5959     ..............YY
  413254:	0659 0606 0000 0000 0000 0101 0001 0000     Y...............
  413264:	0000 2500 2525 4747 0347 0303 0000 0800     ...%%%GGG.......
  413274:	0808 4848 9e48 9e9e d2d2 c7d2 c7c7 8a8a     ..HHH...........
  413284:	208a 2020 0000 0200 0202 0101 0001 0000     .   ............
  413294:	0000 0400 0404 5858 ee58 eeee ffff feff     ......XXX.......
  4132a4:	fefe fdfd fdfd fdfd fefe fffe ffff ffff     ................
  4132b4:	dbff dbdb 1515 0015 0000 0101 0301 0303     ................
  4132c4:	a0a0 ffa0 ffff ffff fdff fdfd fefe fffe     ................
  4132d4:	ffff fefe fefe fefe c3c3 02c3 0202 0000     ................
  4132e4:	0000 0000 0000 0200 0202 0000 6200 6262     .............bbb
  4132f4:	f2f2 fff2 ffff fefe fefe fefe fcfc 22fc     ..............."
  413304:	2222 0000 0100 0101 0000 0000 0000 0303     ""..............
  413314:	0203 0202 0000 0100 0101 2b2b 882b 8888     ..........+++...
  413324:	c5c5 d3c5 d3d3 b2b2 60b2 6060 0e0e 000e     .........```....
	...
  41333c:	0000 0400 0404 0000 0000 0000 8e8e ff8e     ................
  41334c:	ffff ffff ffff ffff ffff ffff ffff ffff     ................
  41335c:	fdff fdfd fefe e0fe e0e0 1c1c 001c 0000     ................
  41336c:	0000 0500 0505 2424 c324 c3c3 fefe fefe     ......$$$.......
  41337c:	fefe fefe fefe fefe ffff faff fafa fefe     ................
  41338c:	dafe dada 3333 0033 0000 0000 0000 0000     ....333.........
  41339c:	0000 1a00 1a1a ebeb feeb fefe fefe fefe     ................
  4133ac:	fefe ffff feff fefe fcfc f7fc f7f7 8b8b     ................
  4133bc:	0c8b 0c0c 0000 0100 0101 0101 0001 0000     ................
  4133cc:	3939 f339 f3f3 dede 36de 3636 0101 1101     999......666....
  4133dc:	1111 9090 c790 c7c7 8c8c 088c 0808 0101     ................
  4133ec:	0201 0202 0000 0000 0000 0000 1500 1515     ................
  4133fc:	b4b4 feb4 fefe fefe fffe ffff ffff ffff     ................
  41340c:	ffff ffff ffff ffff ffff ffff fdff fefe     ................
  41341c:	fdff fffd fffd feff ffff a6ee cbaf 2e0b     ................
  41342c:	12cf d033 3112 11ca eb31 afa3 fefe fefd     ..3..1..1.......
  41343c:	fdff ffff ffff ffff ffff ffff ffff ffff     ................
  41344c:	ffff ffff fefe fefe fefe c1c1 8bc1 8b8b     ................
  41345c:	d4d4 4ed4 4e4e 5858 fe58 fefe fefe fafe     ...NNNXXX.......
  41346c:	fafa a5a5 85a5 8585 cccc fdcc fdfd fefe     ................
  41347c:	fcfe fcfc ffff fcff fcfc fefe defe dede     ................
  41348c:	4343 b143 b1b1 fefe fcfe fcfc fdfd fffd     CCC.............
  41349c:	ffff fdfd fafd fafa dbdb f0db f0f0 cfcf     ................
  4134ac:	85cf 8585 bdbd fabd fafa fefe fefe fefe     ................
  4134bc:	e3e3 8fe3 8f8f 8383 d583 d5d5 fbfb fffb     ................
  4134cc:	ffff e2e2 d5e2 d5d5 ffff dbff dbdb e3e3     ................
  4134dc:	e8e3 e8e8 8b8b ad8b adad fbfb fffb ffff     ................
  4134ec:	ffff fdff fdfd bdbd 81bd 8181 a5a5 efa5     ................
  4134fc:	efef ffff fbff fbfb ffff ffff ffff fdfd     ................
  41350c:	fffd ffff ffff ffff ffff ffff ffff ffff     ................
  41351c:	ffff ffff ffff ffff ffff ffff ffff ffff     ................
  41352c:	ffff ffff ffff ffff ffff ffff ffff ffff     ................
  41353c:	ffff ffff ffff ffff ffff ffff ffff ffff     ................
  41354c:	ffff ffff ffff ffff ffff ffff ffff ffff     ................
  41355c:	ffff ffff ffff ffff ffff ffff ffff ffff     ................
  41356c:	ffff ffff ffff ffff ffff ffff ffff ffff     ................
  41357c:	ffff ffff ffff ffff ffff ffff ffff ffff     ................
  41358c:	ffff ffff ffff ffff ffff ffff ffff ffff     ................
  41359c:	ffff ffff ffff ffff ffff ffff ffff ffff     ................
  4135ac:	ffff ffff ffff ffff ffff ffff ffff ffff     ................
  4135bc:	ffff ffff ffff ffff ffff ffff ffff ffff     ................
  4135cc:	ffff ffff ffff ffff ffff acac 00ac 0000     ................
	...
  4135e8:	1414 a914 a9a9 ffff ffff ffff ffff ffff     ................
  4135f8:	ffff ffff ffff ffff ffff ffff ffff fefe     ................
  413608:	fffe ffff fefe eefe eeee 5a5a 005a 0000     ..........ZZZ...
  413618:	0101 0001 0000 0000 0000 0000 0000 0100     ................
  413628:	0101 0707 3c07 3c3c b7b7 f7b7 f7f7 fdfd     .....<<<........
  413638:	fcfd fcfc fefe fdfe fdfd dada 42da 4242     .............BBB
	...
  413654:	0000 2f00 2f2f cece fcce fcfc fefe fefe     ...///..........
  413664:	fefe fefe fefe fefe fefe fcfe fcfc 8181     ................
  413674:	0681 0606 0000 0100 0101 3232 eb32 ebeb     ..........222...
  413684:	fefe fdfe fdfd ffff ffff ffff fefe fdfe     ................
  413694:	fdfd fdfd fcfd fcfc 5d5d 015d 0101 0000     ........]]].....
	...
  4136ac:	0000 4d4d ec4d ecec ffff feff fefe fefe     ..MMM...........
  4136bc:	fcfe fcfc 2222 0022 0000 0000 0000 0000     ....""".........
  4136cc:	0404 0004 0000 0303 2903 2929 9a9a f19a     .........)))....
  4136dc:	f1f1 fefe fdfe fdfd fefe fefe fefe fefe     ................
  4136ec:	c7fe c7c7 3f3f 043f 0404 0000 0000 0000     ....???.........
  4136fc:	0000 0100 0101 0000 1a00 1a1a e2e2 fee2     ................
  41370c:	fefe fefe fefe fefe fefe fcfe fcfc fefe     ................
  41371c:	e3fe e3e3 2b2b 022b 0202 0000 0200 0202     ....+++.........
  41372c:	0808 a208 a2a2 fdfd fefd fefe fefe fdfe     ................
  41373c:	fdfd fefe fefe fefe ffff fdff fdfd fefe     ................
  41374c:	bafe baba 0a0a 000a 0000 0101 0001 0000     ................
  41375c:	0101 6601 6666 f5f5 fdf5 fdfd fefe fcfe     ...fff..........
  41376c:	fcfc fefe fefe fefe fefe f0fe f0f0 6c6c     ..............ll
  41377c:	026c 0202 0000 0000 0000 0000 3a00 3a3a     l............:::
  41378c:	f4f4 75f4 7575 0404 4504 4545 d8d8 fcd8     ...uuu...EEE....
  41379c:	fcfc fdfd fcfd fcfc a7a7 05a7 0505 0000     ................
  4137ac:	0000 0000 0000 0300 0303 0202 9202 9292     ................
  4137bc:	fafa fffa ffff ffff ffff ffff ffff ffff     ................
  4137cc:	ffff ffff ffff ffff ffff fefd fffe fdfd     ................
  4137dc:	fdff ffff fffe eeff afa6 0bcb cf2e 3312     ...............3
  4137ec:	12d0 ca31 3111 a3eb feaf fdfe fffe fffd     ..1..1..........
  4137fc:	ffff ffff ffff ffff ffff ffff ffff ffff     ................
  41380c:	f5ff f5f5 7777 2377 2323 4f4f 4a4f 4a4a     ....www###OOOJJJ
  41381c:	1c1c 5f1c 5f5f fdfd dbfd dbdb 4444 3744     ...___......DDD7
  41382c:	3737 4f4f 264f 2626 9f9f fd9f fdfd fefe     77OOO&&&........
  41383c:	fdfe fdfd fefe fffe ffff dfdf 44df 4444     .............DDD
  41384c:	a9a9 eda9 eded eeee f2ee f2f2 fcfc fefc     ................
  41385c:	fefe e8e8 55e8 5555 3b3b 423b 4242 5353     .....UUU;;;BBBSS
  41386c:	2e53 2e2e b2b2 fdb2 fdfd d2d2 44d2 4444     S............DDD
  41387c:	4848 5848 5858 3535 a235 a2a2 fafa 6bfa     HHHXXX555......k
  41388c:	6b6b 4040 fa40 fafa 5f5f 235f 2323 4848     kk@@@...___###HH
  41389c:	5748 5757 2727 8027 8080 fefe f1fe f1f1     HWWW'''.........
  4138ac:	7272 2b72 2b2b 5858 3c58 3c3c 4f4f e74f     rrr+++XXX<<<OOO.
  4138bc:	e7e7 fefe fefe fefe fefe fefe fefe fefe     ................
  4138cc:	fefe fefe ffff ffff ffff ffff ffff ffff     ................
  4138dc:	ffff ffff ffff ffff ffff ffff ffff ffff     ................
  4138ec:	ffff ffff ffff ffff ffff ffff ffff ffff     ................
  4138fc:	ffff ffff ffff ffff ffff ffff ffff ffff     ................
  41390c:	ffff ffff ffff ffff ffff ffff ffff ffff     ................
  41391c:	ffff ffff ffff ffff ffff ffff ffff ffff     ................
  41392c:	ffff ffff ffff ffff ffff ffff ffff ffff     ................
  41393c:	ffff ffff ffff ffff ffff ffff ffff ffff     ................
  41394c:	ffff ffff ffff ffff ffff ffff ffff ffff     ................
  41395c:	ffff ffff ffff ffff ffff ffff ffff ffff     ................
  41396c:	ffff ffff ffff ffff ffff ffff ffff ffff     ................
  41397c:	ffff ffff ffff ffff ffff ffff ffff ffff     ................
  41398c:	ffff ffff ffff acff acac 0000 0000 0000     ................
	...
  4139a4:	1400 1414 a9a9 ffa9 ffff ffff ffff ffff     ................
  4139b4:	ffff ffff ffff ffff ffff ffff ffff fdff     ................
  4139c4:	fdfd ffff fdff fdfd ffff b9ff b9b9 0303     ................
  4139d4:	0003 0000 0101 0001 0000 0000 0000 0000     ................
  4139e4:	0c0c 690c 6969 e3e3 fde3 fdfd fdfd fefd     ...iii..........
  4139f4:	fefe ffff feff fefe fefe fefe fefe d5d5     ................
  413a04:	18d5 1818 0000 0000 0000 0101 0001 0000     ................
  413a14:	1515 bb15 bbbb fefe fefe fefe fdfd fefd     ................
  413a24:	fefe fefe fefe fefe eded 4ced 4c4c 0101     ...........LLL..
  413a34:	0101 0101 0101 5101 5151 f2f2 fef2 fefe     .......QQQ......
  413a44:	fefe fefe fefe fefe fcfe fcfc fefe fcfe     ................
  413a54:	fcfc fdfd cefd cece 2323 0123 0101 0101     ........###.....
  413a64:	0001 0000 0404 7804 7878 f5f5 fff5 ffff     .......xxx......
  413a74:	fefe fefe fefe fcfc 22fc 2222 0000 0000     ........."""....
  413a84:	0000 0101 0001 0000 0707 4e07 4e4e caca     ...........NNN..
  413a94:	fdca fdfd fdfd fefd fefe ffff fdff fdfd     ................
  413aa4:	fdfd fdfd fdfd fdfd dffd dfdf 4c4c 014c     ............LLL.
  413ab4:	0101 0000 0000 0000 0101 0001 0000 0202     ................
  413ac4:	7602 7676 fefe fefe fefe fefe fefe fefe     .vvv............
  413ad4:	ffff f3ff f3f3 6767 0067 0000 0000 0100     ......ggg.......
  413ae4:	0101 0000 5000 5050 f6f6 fef6 fefe fefe     .....PPP........
  413af4:	fffe ffff fefe fdfe fdfd fefe fefe fefe     ................
  413b04:	ffff feff fefe fbfb 52fb 5252 0202 0102     .........RRR....
  413b14:	0101 0101 0001 0000 1e1e bb1e bbbb fefe     ................
  413b24:	fefe fefe fefe fffe ffff fdfd fefd fefe     ................
  413b34:	fefe 9efe 9e9e 0e0e 000e 0000 0000 0000     ................
  413b44:	0000 3636 b636 b6b6 1111 3711 3737 cdcd     ..666......777..
  413b54:	fdcd fdfd fefe fefe fefe fefe f9fe f9f9     ................
  413b64:	2424 0024 0000 0000 0000 0000 0101 0201     $$$.............
  413b74:	0202 9090 f990 f9f9 ffff ffff ffff ffff     ................
  413b84:	ffff ffff ffff ffff ffff ffff ffff fdff     ................
  413b94:	fefe fdff fffd fffd feff ffff a6ee cbaf     ................
  413ba4:	2e0b 12cf d033 3112 11ca eb31 afa3 fefe     ....3..1..1.....
  413bb4:	fefd fdff ffff ffff ffff ffff ffff ffff     ................
  413bc4:	ffff ffff ffff b6b6 1cb6 1c1c bdbd fdbd     ................
  413bd4:	fdfd d5d5 2ad5 2a2a 6060 f960 f9f9 7b7b     .....***```...{{
  413be4:	417b 4141 e7e7 f5e7 f5f5 8686 2f86 2f2f     {AAA.........///
  413bf4:	f1f1 fef1 fefe fefe fefe fefe ffff dfff     ................
  413c04:	dfdf 4444 4344 4343 5e5e 5f5e 5f5f 8c8c     ..DDDCCC^^^___..
  413c14:	eb8c ebeb fefe eafe eaea 5656 5e56 5e5e     ..........VVV^^^
  413c24:	e2e2 f6e2 f6f6 6d6d 746d 7474 fcfc a3fc     ......mmmttt....
  413c34:	a3a3 4f4f e54f e5e5 fdfd c0fd c0c0 c3c3     ..OOO...........
  413c44:	fbc3 fbfb 6f6f 426f 4242 fafa 5efa 5e5e     ....oooBBB...^^^
  413c54:	2727 cb27 cbcb fcfc 85fc 8585 1818 fd18     '''.............
  413c64:	fdfd aeae 31ae 3131 cbcb fdcb fdfd e0e0     .....111........
  413c74:	3ee0 3e3e 8585 fd85 fdfd ffff feff fefe     .>>>............
  413c84:	fefe fdfe fdfd fefe fffe ffff ffff ffff     ................
  413c94:	ffff ffff ffff ffff ffff ffff ffff ffff     ................
  413ca4:	ffff ffff ffff ffff ffff ffff ffff ffff     ................
  413cb4:	ffff ffff ffff ffff ffff ffff ffff ffff     ................
  413cc4:	ffff ffff ffff ffff ffff ffff ffff ffff     ................
  413cd4:	ffff ffff ffff ffff ffff ffff ffff ffff     ................
  413ce4:	ffff ffff ffff ffff ffff ffff ffff ffff     ................
  413cf4:	ffff ffff ffff ffff ffff ffff ffff ffff     ................
  413d04:	ffff ffff ffff ffff ffff ffff ffff ffff     ................
  413d14:	ffff ffff ffff ffff ffff ffff ffff ffff     ................
  413d24:	ffff ffff ffff ffff ffff ffff ffff ffff     ................
  413d34:	ffff ffff ffff ffff ffff ffff ffff ffff     ................
  413d44:	ffff ffff ffff ffff ffff ffff acac 00ac     ................
	...
  413d60:	0000 1414 a914 a9a9 ffff ffff ffff ffff     ................
  413d70:	ffff ffff ffff ffff ffff ffff ffff ffff     ................
  413d80:	fefe fffe ffff fdfd fefd fefe e4e4 09e4     ................
  413d90:	0909 0000 0000 0000 0000 0000 0000 0606     ................
  413da0:	6406 6464 e6e6 fee6 fefe fefe fefe fefe     .ddd............
  413db0:	fdfd fdfd fdfd fefe fefe fefe fefe fdfe     ................
  413dc0:	fdfd 5f5f 005f 0000 0101 0001 0000 0000     ..___...........
  413dd0:	0c00 0c0c b1b1 feb1 fefe fefe fefe fefe     ................
  413de0:	fefe fefe fefe fefe d9fe d9d9 3838 0038     ............888.
	...
  413df8:	3e3e ef3e efef ffff ffff ffff fefe fefe     >>>.............
  413e08:	fefe fefe fefe fefe fdfd fefd fefe f9f9     ................
  413e18:	a7f9 a7a7 2525 0125 0101 0606 5006 5050     ....%%%......PPP
  413e28:	d4d4 fed4 fefe ffff feff fefe fefe fcfe     ................
  413e38:	fcfc 2222 0022 0000 0000 0000 0000 0000     .."""...........
  413e48:	3400 3434 caca fdca fdfd fefe fefe fefe     .444............
  413e58:	fefe fefe fefe fefe fefe fefe fdfd fdfd     ................
  413e68:	fdfd fdfd befd bebe 2626 0026 0000 0000     ........&&&.....
  413e78:	0000 0000 0000 0100 0101 1e1e ed1e eded     ................
  413e88:	fefe fefe fefe fdfd fefd fefe b7b7 1cb7     ................
  413e98:	1c1c 0000 0100 0101 0000 0500 0505 c4c4     ................
  413ea8:	fdc4 fdfd fefe fefe fefe fefe fefe fefe     ................
  413eb8:	fefe fdfe fdfd fefe fffe ffff fefe fdfe     ................
  413ec8:	fdfd bcbc 00bc 0000 0101 0101 0101 0101     ................
  413ed8:	0301 0303 7373 f673 f6f6 fefe fffe ffff     ....sss.........
  413ee8:	fefe fefe fefe ffff feff fefe a7a7 14a7     ................
  413ef8:	1414 0000 0000 0000 0101 0b01 0b0b 2121     ..............!!
  413f08:	1221 1212 9d9d fa9d fafa fdfd fdfd fdfd     !...............
  413f18:	fefe fefe fefe fefe 5dfe 5d5d 0101 0001     .........]]]....
  413f28:	0000 0101 0001 0000 1818 b718 b7b7 fdfd     ................
  413f38:	fefd fefe ffff ffff ffff ffff ffff ffff     ................
  413f48:	ffff ffff ffff ffff fefd fffe fdfd fdff     ................
  413f58:	ffff fffe eeff afa6 0bcb cf2e 3312 12d0     .............3..
  413f68:	ca31 3111 a3eb feaf fdfe fffe fffd ffff     1..1............
  413f78:	ffff ffff ffff ffff ffff ffff ffff 7bff     ...............{
  413f88:	7b7b 3737 fd37 fdfd ffff feff fefe 4848     {{777.........HH
  413f98:	5948 5959 eaea 51ea 5151 7878 d678 d6d6     HYYY...QQQxxx...
  413fa8:	d8d8 a5d8 a5a5 1818 d518 d5d5 fefe fefe     ................
  413fb8:	fefe fefe fffe ffff dfdf 44df 4444 7171     ...........DDDqq
  413fc8:	a871 a8a8 a6a6 bfa6 bfbf f4f4 fef4 fefe     q...............
  413fd8:	e8e8 56e8 5656 a1a1 fea1 fefe fbfb 77fb     ...VVV.........w
  413fe8:	7777 6363 fd63 fdfd b5b5 2cb5 2c2c a1a1     wwccc......,,,..
  413ff8:	f9a1 f9f9 fefe fefe fefe fdfd 71fd 7171     .............qqq
  414008:	4444 fb44 fbfb 5959 5059 5050 fdfd fefd     DDD...YYYPPP....
  414018:	fefe 9797 0a97 0a0a f9f9 84f9 8484 5959     ..............YY
  414028:	fa59 fafa fefe fefe fefe 7979 2879 2828     Y.........yyy(((
  414038:	fefe fefe fefe fefe fffe ffff fefe fffe     ................
  414048:	ffff ffff ffff ffff ffff ffff ffff ffff     ................
  414058:	ffff ffff ffff ffff ffff ffff ffff ffff     ................
  414068:	ffff ffff ffff ffff ffff ffff ffff ffff     ................
  414078:	ffff ffff ffff ffff ffff ffff ffff ffff     ................
  414088:	ffff ffff ffff ffff ffff ffff ffff ffff     ................
  414098:	ffff ffff ffff ffff ffff ffff ffff ffff     ................
  4140a8:	ffff ffff ffff ffff ffff ffff ffff ffff     ................
  4140b8:	ffff ffff ffff ffff ffff ffff ffff ffff     ................
  4140c8:	ffff ffff ffff ffff ffff ffff ffff ffff     ................
  4140d8:	ffff ffff ffff ffff ffff ffff ffff ffff     ................
  4140e8:	ffff ffff ffff ffff ffff ffff ffff ffff     ................
  4140f8:	ffff ffff ffff ffff ffff ffff ffff ffff     ................
  414108:	ffff ffff acff acac 0000 0000 0000 0000     ................
  414118:	0000 0000 0000 1400 1414 a9a9 ffa9 ffff     ................
  414128:	ffff ffff ffff ffff ffff ffff ffff ffff     ................
  414138:	ffff ffff feff fefe ffff ffff ffff ffff     ................
  414148:	eaff eaea 0e0e 000e 0000 0101 0001 0000     ................
  414158:	0101 2d01 2d2d e1e1 fee1 fefe ffff ffff     ...---..........
  414168:	ffff ffff ffff ffff ffff ffff ffff ffff     ................
  414178:	ffff ffff fdfd 98fd 9898 0000 0000 0000     ................
  414188:	0000 0000 0000 0b0b b00b b0b0 fefe fffe     ................
  414198:	ffff ffff ffff ffff fdfd fffd ffff d3d3     ................
  4141a8:	32d3 3232 0101 0001 0000 0000 0500 0505     .222............
  4141b8:	b2b2 feb2 fefe fdfd fffd ffff fefe fffe     ................
  4141c8:	ffff fefe fefe fefe ffff fcff fcfc ffff     ................
  4141d8:	eeff eeee c3c3 d5c3 d5d5 ffff fdff fdfd     ................
  4141e8:	fefe fffe ffff fefe fefe fefe fcfc 22fc     ..............."
  4141f8:	2222 0000 0000 0000 0000 0000 0000 3f3f     ""............??
  414208:	e23f e2e2 fefe fffe ffff ffff ffff ffff     ?...............
  414218:	ffff ffff ffff ffff ffff ffff ffff feff     ................
  414228:	fefe f8f8 72f8 7272 0303 0003 0000 0000     .....rrr........
  414238:	0100 0101 0000 0b00 0b0b b8b8 fdb8 fdfd     ................
  414248:	fefe fffe ffff f4f4 68f4 6868 0202 0002     .........hhh....
	...
  414260:	2b2b fc2b fcfc ffff fdff fdfd fefe fefe     +++.............
  414270:	fefe ffff ffff ffff ffff ffff ffff ffff     ................
  414280:	ffff ffff ffff f3ff f3f3 1313 0113 0101     ................
	...
  414298:	3f00 3f3f dcdc fedc fefe ffff feff fefe     .???............
  4142a8:	fefe fffe ffff fefe a9fe a9a9 1414 0014     ................
	...
  4142c4:	0000 3f3f f53f f5f5 fefe fffe ffff ffff     ..???...........
  4142d4:	ffff ffff fefe fefe fefe d0d0 24d0 2424     .............$$$
  4142e4:	0000 0200 0202 0404 6904 6969 f0f0 fdf0     .........iii....
  4142f4:	fdfd ffff ffff ffff ffff ffff ffff ffff     ................
  414304:	ffff ffff ffff ffff fdff fefe fdff fffd     ................
  414314:	fffd feff ffff a6ee cbaf 2e0b 12cf d033     ..............3.
  414324:	3112 11ca eb31 afa3 fefe fefd fdff fefe     .1..1...........
  414334:	fefe fefe ffff ffff ffff fefe f8fe f8f8     ................
  414344:	6262 5d62 5d5d fbfb fdfb fdfd fdfd 49fd     bbb]]].........I
  414354:	4949 5757 e157 e1e1 4848 0048 0000 0101     IIWWW...HHH.....
  414364:	0001 0000 0202 0602 0606 c5c5 fec5 fefe     ................
  414374:	fefe fdfe fdfd ffff dfff dfdf 4444 b544     ............DDD.
  414384:	b5b5 fefe fdfe fdfd fefe fcfe fcfc fdfd     ................
  414394:	e9fd e9e9 5555 a055 a0a0 ffff fbff fbfb     ....UUU.........
  4143a4:	7575 6675 6666 fcfc f4fc f4f4 8888 0e88     uuufff..........
  4143b4:	0e0e 0d0d 8d0d 8d8d f1f1 fff1 ffff 7070     ..............pp
  4143c4:	4270 4242 fbfb 59fb 5959 5151 ff51 ffff     pBBB...YYYQQQ...
  4143d4:	fefe 98fe 9898 0606 f806 f8f8 7878 7678     ............xxxv
  4143e4:	7676 fbfb fefb fefe fdfd 98fd 9898 0f0f     vv..............
  4143f4:	fc0f fcfc ffff ffff ffff ffff ffff ffff     ................
  414404:	ffff ffff ffff ffff ffff ffff ffff ffff     ................
  414414:	ffff ffff ffff ffff ffff ffff ffff ffff     ................
  414424:	ffff ffff ffff ffff ffff ffff ffff ffff     ................
  414434:	ffff ffff ffff ffff ffff ffff ffff ffff     ................
  414444:	ffff ffff ffff ffff ffff ffff ffff ffff     ................
  414454:	ffff ffff ffff ffff ffff ffff ffff ffff     ................
  414464:	ffff ffff ffff ffff ffff ffff ffff ffff     ................
  414474:	ffff ffff ffff ffff ffff ffff ffff ffff     ................
  414484:	ffff ffff ffff ffff ffff ffff ffff ffff     ................
  414494:	ffff ffff ffff ffff ffff ffff ffff ffff     ................
  4144a4:	ffff ffff ffff ffff ffff ffff ffff ffff     ................
  4144b4:	ffff ffff ffff ffff ffff ffff ffff ffff     ................
  4144c4:	ffff ffff ffff acac 00ac 0000 0000 0000     ................
	...
  4144dc:	1414 a914 a9a9 ffff ffff ffff ffff ffff     ................
  4144ec:	ffff ffff ffff ffff ffff ffff ffff fefe     ................
  4144fc:	fffe ffff ffff ffff ffff eaea 0eea 0e0e     ................
	...
  414518:	3636 ec36 ecec fefe fefe fefe ffff ffff     666.............
  414528:	ffff ffff ffff ffff ffff ffff ffff ffff     ................
  414538:	ffff ffff 9d9d 009d 0000 0000 0000 0000     ................
  414548:	0000 0b00 0b0b b0b0 feb0 fefe ffff ffff     ................
  414558:	ffff fefe fefe fefe fefe dcfe dcdc 3b3b     ..............;;
  414568:	003b 0000 0000 0100 0101 0000 1300 1313     ;...............
  414578:	9e9e e69e e6e6 fafa fefa fefe fefe fdfe     ................
  414588:	fdfd fefe fefe fefe fefe fefe fefe fdfd     ................
  414598:	fefd fefe fcfc fefc fefe fefe fefe fefe     ................
  4145a8:	ffff feff fefe fefe fcfe fcfc 2222 0022     ............""".
	...
  4145c0:	0000 3f00 3f3f e2e2 fee2 fefe ffff ffff     ...???..........
  4145d0:	ffff ffff ffff ffff ffff ffff ffff ffff     ................
  4145e0:	ffff ffff fcfc fefc fefe b2b2 17b2 1717     ................
	...
  4145fc:	0404 9004 9090 fefe fffe ffff fefe d8fe     ................
  41460c:	d8d8 3939 0039 0000 0000 0000 0000 0000     ..999...........
  41461c:	6100 6161 fefe fefe fefe fefe fcfe fcfc     .aaa............
  41462c:	fefe fffe ffff ffff ffff ffff ffff ffff     ................
  41463c:	ffff ffff ffff ffff fefe 2dfe 2d2d 0000     ...........---..
	...
  414654:	0000 1b1b c51b c5c5 fefe fdfe fdfd fefe     ................
  414664:	fefe fefe fefe fefe fefe a9a9 14a9 1414     ................
	...
  414680:	0000 9800 9898 fefe fefe fefe fefe fdfe     ................
  414690:	fdfd fefe fefe fefe fefe fbfe fbfb d2d2     ................
  4146a0:	7cd2 7c7c 6161 9d61 9d9d eded feed fefe     .|||aaa.........
  4146b0:	fefe fffe ffff ffff ffff ffff ffff ffff     ................
  4146c0:	ffff ffff ffff ffff ffff fefd fffe fdfd     ................
  4146d0:	fdff ffff fffe eeff afa6 0bcb cf2e 3312     ...............3
  4146e0:	12d0 ca31 3111 a3eb feaf fdfe fffe fefd     ..1..1..........
  4146f0:	fefe fefe fffe ffff fefe fefe fefe fbfb     ................
  414700:	68fb 6868 5050 fe50 fefe fefe fdfe fdfd     .hhhPPP.........
  414710:	4545 5945 5959 e4e4 49e4 4949 9191 e391     EEEYYY...III....
  414720:	e3e3 e4e4 e4e4 e4e4 e4e4 f9e4 f9f9 fefe     ................
  414730:	fdfe fdfd fefe fefe fefe e0e0 44e0 4444     .............DDD
  414740:	afaf feaf fefe fefe fdfe fdfd fefe fefe     ................
  414750:	fefe e9e9 55e9 5555 a0a0 fda0 fdfd fbfb     .....UUU........
  414760:	75fb 7575 6565 fe65 fefe fdfd fefd fefe     .uuueee.........
  414770:	dfdf 92df 9292 2d2d 722d 7272 efef 70ef     ......---rrr...p
  414780:	7070 4343 fb43 fbfb 5959 4e59 4e4e fefe     ppCCC...YYYNNN..
  414790:	fdfe fdfd 9393 0b93 0b0b f9f9 7cf9 7c7c     .............|||
  4147a0:	6c6c fb6c fbfb fcfc fefc fefe 8d8d 198d     lll.............
  4147b0:	1919 fcfc fefc fefe fefe fffe ffff fefe     ................
  4147c0:	fefe fefe ffff ffff ffff ffff ffff ffff     ................
  4147d0:	ffff ffff ffff ffff ffff ffff ffff ffff     ................
  4147e0:	ffff ffff ffff ffff ffff ffff ffff ffff     ................
  4147f0:	ffff ffff ffff ffff ffff ffff ffff ffff     ................
  414800:	ffff ffff ffff ffff ffff ffff ffff ffff     ................
  414810:	ffff ffff ffff ffff ffff ffff ffff ffff     ................
  414820:	ffff ffff ffff ffff ffff ffff ffff ffff     ................
  414830:	ffff ffff ffff ffff ffff ffff ffff ffff     ................
  414840:	ffff ffff ffff ffff ffff ffff ffff ffff     ................
  414850:	ffff ffff ffff ffff ffff ffff ffff ffff     ................
  414860:	ffff ffff ffff ffff ffff ffff ffff ffff     ................
  414870:	ffff ffff ffff ffff ffff ffff ffff ffff     ................
  414880:	ffff ffff ffff acff acac 0000 0000 0000     ................
	...
  414898:	1400 1414 a9a9 ffa9 ffff ffff ffff ffff     ................
  4148a8:	ffff ffff ffff ffff ffff ffff ffff feff     ................
  4148b8:	fefe ffff ffff ffff ffff eaff eaea 0e0e     ................
  4148c8:	000e 0000 0000 0100 0101 0000 3500 3535     .............555
  4148d8:	eeee feee fefe fefe fffe ffff ffff ffff     ................
  4148e8:	ffff ffff ffff ffff ffff feff fefe fefe     ................
  4148f8:	a0fe a0a0 0000 0000 0000 0000 0000 0000     ................
  414908:	0b0b b00b b0b0 fefe fffe ffff ffff feff     ................
  414918:	fefe fefe fdfe fdfd f1f1 56f1 5656 0101     ...........VVV..
  414928:	0101 0101 0101 0101 0101 0101 0901 0909     ................
  414938:	5050 9650 9696 d0d0 f2d0 f2f2 fefe fefe     PPP.............
  414948:	fefe ffff feff fefe fefe fefe fefe fefe     ................
  414958:	fefe fefe fefe fdfe fdfd fefe fffe ffff     ................
  414968:	fefe fefe fefe fcfc 22fc 2222 0000 0000     ........."""....
	...
  414980:	3f3f e23f e2e2 fefe fffe ffff ffff ffff     ???.............
  414990:	ffff ffff ffff ffff ffff ffff ffff ffff     ................
  4149a0:	fdff fdfd fefe e8fe e8e8 3333 0033 0000     ..........333...
	...
  4149b8:	0200 0202 6e6e fd6e fdfd fefe fefe fefe     ....nnn.........
  4149c8:	b7b7 10b7 1010 0000 0000 0000 0000 0000     ................
  4149d8:	0000 6363 b763 b7b7 b8b8 b6b8 b6b6 b7b7     ..ccc...........
  4149e8:	b7b7 b7b7 b7b7 b7b7 b7b7 b7b7 b7b7 b7b7     ................
  4149f8:	b7b7 b7b7 b7b7 b7b7 b4b7 b4b4 2929 0129     ............))).
  414a08:	0101 0000 0000 0000 0000 0700 0707 a9a9     ................
  414a18:	fca9 fcfc fefe fefe fefe fefe fefe fefe     ................
  414a28:	fefe a9fe a9a9 1414 0014 0000 0000 0000     ................
  414a38:	0000 0000 0e00 0e0e e4e4 fee4 fefe fdfd     ................
  414a48:	fefd fefe ffff feff fefe fdfd fdfd fdfd     ................
  414a58:	fefe fefe fefe fdfd fefd fefe fefe fefe     ................
  414a68:	fefe fdfd fefd fefe fefe fffe ffff ffff     ................
  414a78:	ffff ffff ffff ffff ffff ffff ffff fdff     ................
  414a88:	fefe fdff fffd fffd feff ffff a6ee cbaf     ................
  414a98:	2e0b 12cf d033 3112 11ca eb31 afa3 fefe     ....3..1..1.....
  414aa8:	fefd fdff fefe fefe fefe ffff feff fefe     ................
  414ab8:	ffff feff fefe 8b8b 268b 2626 f1f1 fdf1     .........&&&....
  414ac8:	fdfd f0f0 39f0 3939 5c5c f25c f2f2 6161     .....999\\\...aa
  414ad8:	6b61 6b6b fcfc fefc fefe f5f5 baf5 baba     akkk............
  414ae8:	f2f2 fdf2 fdfd ffff feff fefe fefe defe     ................
  414af8:	dede 4444 b444 b4b4 fefe fefe fefe fdfd     ..DDD...........
  414b08:	fefd fefe fdfd e9fd e9e9 5656 a056 a0a0     ..........VVV...
  414b18:	fdfd fbfd fbfb 7575 6575 6565 fcfc ddfc     ......uuueee....
  414b28:	dddd dcdc fedc fefe fdfd affd afaf 4444     ..............DD
  414b38:	df44 dfdf 7070 4370 4343 fafa 5afa 5a5a     D...pppCCC...ZZZ
  414b48:	4e4e fe4e fefe fefe 95fe 9595 0909 f909     NNN.............
  414b58:	f9f9 9393 3e93 3e3e f7f7 fdf7 fdfd f8f8     .....>>>........
  414b68:	5cf8 5c5c 4f4f fc4f fcfc fefe fefe fefe     .\\\OOO.........
  414b78:	ffff feff fefe fefe fffe ffff ffff ffff     ................
  414b88:	ffff ffff ffff ffff ffff ffff ffff ffff     ................
  414b98:	ffff ffff ffff ffff ffff ffff ffff ffff     ................
  414ba8:	ffff ffff ffff ffff ffff ffff ffff ffff     ................
  414bb8:	ffff ffff ffff ffff ffff ffff ffff ffff     ................
  414bc8:	ffff ffff ffff ffff ffff ffff ffff ffff     ................
  414bd8:	ffff ffff ffff ffff ffff ffff ffff ffff     ................
  414be8:	ffff ffff ffff ffff ffff ffff ffff ffff     ................
  414bf8:	ffff ffff ffff ffff ffff ffff ffff ffff     ................
  414c08:	ffff ffff ffff ffff ffff ffff ffff ffff     ................
  414c18:	ffff ffff ffff ffff ffff ffff ffff ffff     ................
  414c28:	ffff ffff ffff ffff ffff ffff ffff ffff     ................
  414c38:	ffff ffff ffff ffff ffff ffff acac 00ac     ................
	...
  414c54:	0000 1414 a914 a9a9 ffff ffff ffff ffff     ................
  414c64:	ffff ffff ffff ffff ffff ffff ffff ffff     ................
  414c74:	fefe fffe ffff ffff ffff ffff eaea 0eea     ................
  414c84:	0e0e 0000 0000 0000 0000 0000 0000 3535     ..............55
  414c94:	ee35 eeee ffff ffff ffff ffff ffff ffff     5...............
  414ca4:	ffff ffff ffff ffff ffff ffff fefe fefe     ................
  414cb4:	fefe a1a1 00a1 0000 0000 0000 0000 0000     ................
  414cc4:	0b00 0b0b b0b0 feb0 fefe ffff ffff ffff     ................
  414cd4:	fefe fefe fefe fdfd fcfd fcfc a1a1 0aa1     ................
  414ce4:	0a0a 0000 0000 0000 0101 0001 0000 0000     ................
  414cf4:	0100 0101 0e0e 2a0e 2a2a 4f4f 904f 9090     .......***OOO...
  414d04:	d1d1 f9d1 f9f9 fefe fefe fefe fefe fefe     ................
  414d14:	fefe fefe fefe fefe fefe fefe fefe ffff     ................
  414d24:	feff fefe fefe fcfe fcfc 2222 0022 0000     .........."""...
	...
  414d3c:	3f00 3f3f e2e2 fee2 fefe ffff ffff ffff     .???............
  414d4c:	ffff ffff ffff ffff ffff ffff ffff feff     ................
  414d5c:	fefe fefe fdfe fdfd fbfb 5afb 5a5a 0000     ...........ZZZ..
	...
  414d74:	0000 0101 5701 5757 f9f9 fef9 fefe fbfb     .....WWW........
  414d84:	92fb 9292 0101 0001 0000 0000 0000 0000     ................
  414d94:	0000 1000 1010 1d1d 1d1d 1d1d 1c1c 1c1c     ................
  414da4:	1c1c 1e1e 1c1e 1c1c 1c1c 1c1c 1c1c 1c1c     ................
  414db4:	1c1c 1c1c 1c1c 1c1c 1c1c 1d1d 051d 0505     ................
  414dc4:	0101 0001 0000 0000 0000 0000 0101 8a01     ................
  414dd4:	8a8a fcfc fdfc fdfd fefe fefe fefe fefe     ................
  414de4:	fefe fefe a9a9 14a9 1414 0000 0000 0000     ................
  414df4:	0000 0000 0000 3b3b fd3b fdfd fdfd fefd     ......;;;.......
  414e04:	fefe fefe fefe fefe fdfd fefd fefe fefe     ................
  414e14:	fefe fefe fefe fefe fefe fefe fdfe fdfd     ................
  414e24:	fefe fefe fefe fcfc fefc fefe ffff ffff     ................
  414e34:	ffff ffff ffff ffff ffff ffff ffff ffff     ................
  414e44:	fefd fffe fdfd fdff ffff fffe eeff afa6     ................
  414e54:	0bcb cf2e 3312 12d0 ca31 3111 a3eb feaf     .....3..1..1....
  414e64:	fdfe fffe fefd fefe fefe fffe ffff fefe     ................
  414e74:	fefe fefe ffff d9ff d9d9 2828 5f28 5f5f     ..........(((___
  414e84:	c2c2 75c2 7575 0d0d 5f0d 5f5f fdfd aafd     ...uuu...___....
  414e94:	aaaa 2525 9425 9494 cdcd 7dcd 7d7d 3030     ..%%%......}}}00
  414ea4:	e330 e3e3 fdfd fdfd fdfd fefe fdfe fdfd     0...............
  414eb4:	dede 44de 4444 6565 9165 9191 9393 9293     ...DDDeee.......
  414ec4:	9292 9191 b891 b8b8 e9e9 53e9 5353 9d9d     ...........SSS..
  414ed4:	fe9d fefe fafa 75fa 7575 6262 fb62 fbfb     .......uuubbb...
  414ee4:	9898 4a98 4a4a b5b5 d4b5 d4d4 6363 6263     ...JJJ......cccb
  414ef4:	6262 eeee 66ee 6666 3f3f fb3f fbfb 5252     bb...fff???...RR
  414f04:	4a52 4a4a fefe fdfe fdfd 9292 0592 0505     RJJJ............
  414f14:	f8f8 d4f8 d4d4 3535 7735 7777 d3d3 97d3     ......555www....
  414f24:	9797 2323 bf23 bfbf fdfd fdfd fdfd fefe     ..###...........
  414f34:	fefe fefe fdfd fffd ffff ffff ffff ffff     ................
  414f44:	ffff ffff ffff ffff ffff ffff ffff ffff     ................
  414f54:	ffff ffff ffff ffff ffff ffff ffff ffff     ................
  414f64:	ffff ffff ffff ffff ffff ffff ffff ffff     ................
  414f74:	ffff ffff ffff ffff ffff ffff ffff ffff     ................
  414f84:	ffff ffff ffff ffff ffff ffff ffff ffff     ................
  414f94:	ffff ffff ffff ffff ffff ffff ffff ffff     ................
  414fa4:	ffff ffff ffff ffff ffff ffff ffff ffff     ................
  414fb4:	ffff ffff ffff ffff ffff ffff ffff ffff     ................
  414fc4:	ffff ffff ffff ffff ffff ffff ffff ffff     ................
  414fd4:	ffff ffff ffff ffff ffff ffff ffff ffff     ................
  414fe4:	ffff ffff ffff ffff ffff ffff ffff ffff     ................
  414ff4:	ffff ffff ffff ffff ffff ffff acff acac     ................
	...
  415010:	0000 1400 1414 a9a9 ffa9 ffff ffff ffff     ................
  415020:	ffff ffff ffff ffff ffff ffff ffff ffff     ................
  415030:	feff fefe ffff ffff ffff ffff eaff eaea     ................
  415040:	0e0e 000e 0000 0000 0000 0000 0101 3501     ...............5
  415050:	3535 eded feed fefe fefe fffe ffff ffff     55..............
  415060:	ffff ffff ffff ffff ffff fefe fefe fefe     ................
  415070:	fefe a2fe a2a2 0000 0000 0000 0000 0000     ................
  415080:	0000 0b0b b00b b0b0 fefe fffe ffff ffff     ................
  415090:	feff fefe fdfd fefd fefe fdfd fafd fafa     ................
  4150a0:	5050 0050 0000 0101 0101 0101 0202 0002     PPP.............
  4150b0:	0000 0202 0102 0101 0000 0000 0000 0101     ................
  4150c0:	0701 0707 3b3b 9f3b 9f9f ecec fdec fdfd     ....;;;.........
  4150d0:	fcfc fefc fefe ffff feff fefe fdfd fffd     ................
  4150e0:	ffff fefe fefe fefe fcfc 22fc 2222 0000     ..........."""..
	...
  4150f8:	0000 3f3f e23f e2e2 fefe fffe ffff ffff     ..???...........
  415108:	ffff ffff ffff ffff ffff ffff ffff ffff     ................
  415118:	fefe fffe ffff fefe fefe fefe 8686 0086     ................
	...
  415130:	0000 0200 0202 4747 f147 f1f1 ffff fbff     ......GGG.......
  415140:	fbfb 6e6e 006e 0000 0000 0000 0000 0000     ..nnn...........
  415150:	0200 0202 0000 0000 0000 0000 0100 0101     ................
	...
  41517c:	0000 0202 0102 0101 0000 0000 0000 0000     ................
  41518c:	0000 0000 7272 fb72 fbfb fdfd fcfd fcfc     ....rrr.........
  41519c:	fdfd fffd ffff fefe a9fe a9a9 1414 0014     ................
	...
  4151b4:	0000 6e00 6e6e fdfd fefd fefe fcfc fefc     ...nnn..........
  4151c4:	fefe fcfc fefc fefe fefe fdfe fdfd fdfd     ................
  4151d4:	fefd fefe fefe fefe fefe fefe fcfe fcfc     ................
  4151e4:	fefe fdfe fdfd fefe fffe ffff ffff ffff     ................
  4151f4:	ffff ffff ffff ffff ffff ffff fdff fefe     ................
  415204:	fdff fffd fffd feff ffff a6ee cbaf 2e0b     ................
  415214:	12cf d033 3112 11ca eb31 afa3 fefe fefd     ..3..1..1.......
  415224:	fdff fefe fefe fefe ffff feff fefe fefe     ................
  415234:	fffe ffff fdfd ccfd cccc 2c2c 072c 0707     ..........,,,...
  415244:	5b5b 645b 6464 7a7a fe7a fefe fdfd 9ffd     [[[dddzzz.......
  415254:	9f9f 1111 0611 0606 2e2e c32e c3c3 fefe     ................
  415264:	fefe fefe fefe fdfe fdfd fefe e3fe e3e3     ................
  415274:	6d6d 306d 3030 2323 1e23 1e1e 1f1f 1d1f     mmm000###.......
  415284:	1d1d 7171 ed71 eded 7a7a b27a b2b2 fefe     ..qqq...zzz.....
  415294:	f8fe f8f8 9696 8896 8888 fefe eafe eaea     ................
  4152a4:	7676 1176 1111 0606 4706 4747 d7d7 fed7     vvv......GGG....
  4152b4:	fefe 9696 6e96 6e6e fcfc 82fc 8282 7b7b     .....nnn......{{
  4152c4:	fa7b fafa fefe acfe acac 4848 f948 f9f9     {.........HHH...
  4152d4:	fdfd c4fd c4c4 2b2b 042b 0404 1b1b a61b     ......+++.......
  4152e4:	a6a6 fdfd fefd fefe fdfd fdfd fdfd fefe     ................
  4152f4:	fefe fefe ffff ffff ffff ffff ffff ffff     ................
  415304:	ffff ffff ffff ffff ffff ffff ffff ffff     ................
  415314:	ffff ffff ffff ffff ffff ffff ffff ffff     ................
  415324:	ffff ffff ffff ffff ffff ffff ffff ffff     ................
  415334:	ffff ffff ffff ffff ffff ffff ffff ffff     ................
  415344:	ffff ffff ffff ffff ffff ffff ffff ffff     ................
  415354:	ffff ffff ffff ffff ffff ffff ffff ffff     ................
  415364:	ffff ffff ffff ffff ffff ffff ffff ffff     ................
  415374:	ffff ffff ffff ffff ffff ffff ffff ffff     ................
  415384:	ffff ffff ffff ffff ffff ffff ffff ffff     ................
  415394:	ffff ffff ffff ffff ffff ffff ffff ffff     ................
  4153a4:	ffff ffff ffff ffff ffff ffff ffff ffff     ................
  4153b4:	ffff ffff ffff ffff ffff acac 00ac 0000     ................
	...
  4153d0:	1414 a914 a9a9 ffff ffff ffff ffff ffff     ................
  4153e0:	ffff ffff ffff ffff ffff ffff ffff fefe     ................
  4153f0:	fffe ffff ffff ffff ffff eaea 0eea 0e0e     ................
	...
  415408:	0200 0202 3434 ed34 eded fefe fefe fefe     ....444.........
  415418:	ffff ffff ffff ffff ffff ffff ffff feff     ................
  415428:	fefe fefe fefe fefe a1a1 00a1 0000 0000     ................
  415438:	0000 0000 0000 0b00 0b0b b0b0 feb0 fefe     ................
  415448:	ffff ffff ffff fefe fdfe fdfd fefe fefe     ................
  415458:	fefe fdfd edfd eded 5c5c 105c 1010 0000     ........\\\.....
  415468:	0100 0101 0000 0000 0000 0000 0000 0000     ................
	...
  415484:	0202 2702 2727 8383 d883 d8d8 fcfc fdfc     ...'''..........
  415494:	fdfd fefe fffe ffff ffff feff fefe fefe     ................
  4154a4:	fcfe fcfc 2222 0022 0000 0000 0000 0000     ....""".........
  4154b4:	0000 3f00 3f3f e2e2 fee2 fefe ffff ffff     ...???..........
  4154c4:	ffff ffff ffff ffff ffff ffff ffff ffff     ................
  4154d4:	ffff ffff fefe fefe fefe fefe a4fe a4a4     ................
	...
  4154f0:	0101 4301 4343 eeee feee fefe f9f9 58f9     ...CCC.........X
  415500:	5858 0101 0001 0000 0000 0000 0000 0000     XX..............
  415510:	3000 3030 4747 4747 4747 4545 4645 4646     .000GGGGGGEEEFFF
  415520:	4747 4547 4545 4545 4545 4545 4545 4545     GGGEEEEEEEEEEEEE
  415530:	4545 4545 4545 4545 4545 4645 4646 4545     EEEEEEEEEEEFFFEE
  415540:	4745 4747 4646 4446 4444 4747 9b47 9b9b     EGGGFFFDDDGGG...
  415550:	fbfb fefb fefe fefe fdfe fdfd fefe fefe     ................
  415560:	fefe a9a9 14a9 1414 0000 0000 0000 0000     ................
  415570:	0100 0101 8a8a fd8a fdfd fefe fefe fefe     ................
  415580:	fefe fefe fefe fdfd fffd ffff fefe fefe     ................
  415590:	fefe fefe fefe fefe fdfd fefd fefe fefe     ................
  4155a0:	fefe fefe fefe fdfe fdfd ffff ffff ffff     ................
  4155b0:	ffff ffff ffff ffff ffff ffff ffff fefd     ................
  4155c0:	fffe fdfd fdff ffff fffe eeff afa6 0bcb     ................
  4155d0:	cf2e 3312 12d0 ca31 3111 a3eb feaf fdfe     ...3..1..1......
  4155e0:	fffe fffd ffff ffff feff fefe fefe fffe     ................
  4155f0:	ffff ffff feff fefe fefe fbfe fbfb ebeb     ................
  415600:	f9eb f9f9 fefe fefe fefe fefe fdfe fdfd     ................
  415610:	fefe f7fe f7f7 e9e9 f7e9 f7f7 fefe fefe     ................
  415620:	fefe fdfd fcfd fcfc fefe fffe ffff fefe     ................
  415630:	fdfe fdfd fcfc fefc fefe fdfd fdfd fdfd     ................
  415640:	fefe fbfe fbfb fefe fdfe fdfd fdfd fcfd     ................
  415650:	fcfc fefe fcfe fcfc fdfd fefd fefe fefe     ................
  415660:	fdfe fdfd eeee e8ee e8e8 fdfd fdfd fdfd     ................
  415670:	fdfd fafd fafa fefe fefe fefe fcfc fdfc     ................
  415680:	fdfd fdfd fcfd fcfc fefe fafe fafa fefe     ................
  415690:	fefe fefe fefe fcfe fcfc e9e9 f4e9 f4f4     ................
  4156a0:	fcfc fcfc fcfc fdfd fefd fefe fdfd fefd     ................
  4156b0:	fefe fefe fefe fefe ffff ffff ffff ffff     ................
  4156c0:	ffff ffff ffff ffff ffff ffff ffff ffff     ................
  4156d0:	ffff ffff ffff ffff ffff ffff ffff ffff     ................
  4156e0:	ffff ffff ffff ffff ffff ffff ffff ffff     ................
  4156f0:	ffff ffff ffff ffff ffff ffff ffff ffff     ................
  415700:	ffff ffff ffff ffff ffff ffff ffff ffff     ................
  415710:	ffff ffff ffff ffff ffff ffff ffff ffff     ................
  415720:	ffff ffff ffff ffff ffff ffff ffff ffff     ................
  415730:	ffff ffff ffff ffff ffff ffff ffff ffff     ................
  415740:	ffff ffff ffff ffff ffff ffff ffff ffff     ................
  415750:	ffff ffff ffff ffff ffff ffff ffff ffff     ................
  415760:	ffff ffff ffff ffff ffff ffff ffff ffff     ................
  415770:	ffff ffff ffff ffff ffff acff acac 0000     ................
	...
  41578c:	1400 1414 a9a9 ffa9 ffff ffff ffff ffff     ................
  41579c:	ffff ffff ffff ffff ffff ffff ffff feff     ................
  4157ac:	fefe ffff ffff ffff ffff eaff eaea 0e0e     ................
  4157bc:	000e 0000 0000 0000 0000 0000 3400 3434     .............444
  4157cc:	eeee feee fefe fefe fffe ffff ffff ffff     ................
  4157dc:	ffff ffff ffff ffff ffff ffff ffff fefe     ................
  4157ec:	a1fe a1a1 0000 0000 0000 0000 0000 0000     ................
  4157fc:	0b0b b00b b0b0 fefe fffe ffff ffff feff     ................
  41580c:	fefe fefe fefe fefe fdfd fdfd fdfd fefe     ................
  41581c:	eefe eeee 9191 3b91 3b3b 0505 0005 0000     .......;;;......
  41582c:	0101 0001 0000 0000 0000 0000 0000 0000     ................
	...
  415844:	0000 0300 0303 3a3a a63a a6a6 f6f6 fdf6     ......:::.......
  415854:	fdfd fefe fffe ffff fefe fefe fefe fcfc     ................
  415864:	22fc 2222 0000 0000 0000 0000 0000 0000     ."""............
  415874:	4040 e240 e2e2 fefe fffe ffff ffff ffff     @@@.............
  415884:	ffff ffff ffff ffff ffff ffff ffff fefe     ................
  415894:	fefe fefe fefe fefe fefe b6b6 00b6 0000     ................
  4158a4:	0000 0100 0101 0000 0000 0000 4444 ee44     ............DDD.
  4158b4:	eeee fefe f8fe f8f8 4f4f 004f 0000 0101     ........OOO.....
  4158c4:	0001 0000 0000 0100 0101 9d9d f59d f5f5     ................
  4158d4:	f7f7 f6f7 f6f6 f5f5 f5f5 f5f5 f6f6 f6f6     ................
  4158e4:	f6f6 f6f6 f6f6 f6f6 f6f6 f6f6 f6f6 f6f6     ................
  4158f4:	f6f6 f6f6 f5f5 f6f5 f6f6 f6f6 f6f6 f6f6     ................
  415904:	f6f6 f4f6 f4f4 fbfb fefb fefe fefe fdfe     ................
  415914:	fdfd fefe fefe fefe fefe a9fe a9a9 1414     ................
  415924:	0014 0000 0000 0000 0000 0101 9401 9494     ................
  415934:	fefe fdfe fdfd fefe fefe fefe fefe fffe     ................
  415944:	ffff ffff feff fefe ffff feff fefe fefe     ................
  415954:	fefe fefe fefe fefe fefe fefe fefe fefe     ................
  415964:	ffff ffff ffff ffff ffff ffff ffff ffff     ................
  415974:	ffff ffff ffff fdff fefe fdff fffd fffd     ................
  415984:	feff ffff a6ee cbaf 2e0b 12cf d033 3112     ............3..1
  415994:	11ca eb31 afa3 fefe fefd fdff ffff ffff     ..1.............
  4159a4:	ffff fefe fefe fefe ffff ffff ffff fefe     ................
  4159b4:	fefe fefe fdfd fefd fefe fefe fdfe fdfd     ................
  4159c4:	fefe fefe fefe fefe fffe ffff fdfd fefd     ................
  4159d4:	fefe ffff fdff fdfd fefe fefe fefe fdfd     ................
  4159e4:	fefd fefe fefe fefe fefe fefe fefe fefe     ................
  4159f4:	fcfc fefc fefe fefe fefe fefe fefe fefe     ................
  415a04:	fefe fefe fefe fefe ffff feff fefe fefe     ................
  415a14:	fdfe fdfd fefe fefe fefe fefe fdfe fdfd     ................
  415a24:	fefe fffe ffff fefe fefe fefe fefe fefe     ................
  415a34:	fefe fefe fffe ffff fdfd fefd fefe fdfd     ................
  415a44:	fefd fefe fefe fffe ffff ffff feff fefe     ................
  415a54:	fefe fefe fefe fefe fffe ffff fefe fefe     ................
  415a64:	fefe fefe fdfe fdfd fefe fefe fefe fefe     ................
  415a74:	fffe ffff ffff ffff ffff ffff ffff ffff     ................
  415a84:	ffff ffff ffff ffff ffff ffff ffff ffff     ................
  415a94:	ffff ffff ffff ffff ffff ffff ffff ffff     ................
  415aa4:	ffff ffff ffff ffff ffff ffff ffff ffff     ................
  415ab4:	ffff ffff ffff ffff ffff ffff ffff ffff     ................
  415ac4:	ffff ffff ffff ffff ffff ffff ffff ffff     ................
  415ad4:	ffff ffff ffff ffff ffff ffff ffff ffff     ................
  415ae4:	ffff ffff ffff ffff ffff ffff ffff ffff     ................
  415af4:	ffff ffff ffff ffff ffff ffff ffff ffff     ................
  415b04:	ffff ffff ffff ffff ffff ffff ffff ffff     ................
  415b14:	ffff ffff ffff ffff ffff ffff ffff ffff     ................
  415b24:	ffff ffff ffff ffff ffff ffff ffff ffff     ................
  415b34:	ffff ffff acac 00ac 0000 0000 0000 0000     ................
  415b44:	0000 0000 0000 1414 a914 a9a9 ffff ffff     ................
  415b54:	ffff ffff ffff ffff ffff ffff ffff ffff     ................
  415b64:	ffff ffff fefe fffe ffff ffff ffff ffff     ................
  415b74:	eaea 0eea 0e0e 0000 0000 0000 0000 0000     ................
  415b84:	0000 3535 ed35 eded ffff ffff ffff ffff     ..555...........
  415b94:	ffff ffff ffff ffff ffff ffff ffff ffff     ................
  415ba4:	ffff ffff ffff a1a1 00a1 0000 0000 0000     ................
  415bb4:	0000 0000 0b00 0b0b b0b0 feb0 fefe ffff     ................
  415bc4:	ffff ffff ffff fcff fcfc fefe fdfe fdfd     ................
  415bd4:	fdfd fefd fefe fdfd f6fd f6f6 dada 9dda     ................
  415be4:	9d9d 4d4d 104d 1010 0101 0001 0000 0000     ..MMM...........
  415bf4:	0100 0101 0000 0000 0000 0000 0000 0000     ................
  415c04:	0000 0000 0000 1c1c 991c 9999 fafa fefa     ................
  415c14:	fefe ffff feff fefe fefe fcfe fcfc 2222     ..............""
  415c24:	0022 0000 0000 0000 0000 0000 4000 4040     "............@@@
  415c34:	e2e2 ffe2 ffff ffff ffff ffff ffff ffff     ................
  415c44:	ffff ffff ffff ffff ffff feff fefe fefe     ................
  415c54:	fefe fefe fefe bdfe bdbd 0101 0001 0000     ................
  415c64:	0101 0001 0000 0202 4c02 4c4c f3f3 fff3     .........LLL....
  415c74:	ffff f8f8 4ff8 4f4f 0101 0001 0000 0000     .....OOO........
  415c84:	0000 0000 0000 9500 9595 fefe fefe fefe     ................
  415c94:	ffff fdff fdfd ffff ffff ffff ffff ffff     ................
  415ca4:	ffff ffff ffff ffff ffff feff fefe fdfd     ................
  415cb4:	fefd fefe fefe fefe fefe fdfd fefd fefe     ................
  415cc4:	fefe fefe fefe fefe fefe fefe fdfd fefd     ................
  415cd4:	fefe fefe fefe fefe a9a9 14a9 1414 0000     ................
	...
  415cec:	0000 9797 fe97 fefe fefe fefe fefe fefe     ................
  415cfc:	fffe ffff ffff ffff ffff ffff ffff ffff     ................
  415d0c:	ffff ffff ffff ffff ffff ffff ffff ffff     ................
  415d1c:	ffff ffff ffff ffff ffff ffff ffff ffff     ................
  415d2c:	ffff ffff ffff ffff ffff ffff fefd fffe     ................
  415d3c:	fdfd fdff ffff fffe eeff afa6 0bcb cf2e     ................
  415d4c:	3312 12d0 ca31 3111 a3eb feaf fdfe fffe     .3..1..1........
  415d5c:	fffd ffff ffff ffff ffff ffff ffff ffff     ................
  415d6c:	ffff feff fefe fefe fefe fefe fefe fefe     ................
  415d7c:	fefe fefe fefe fefe fefe fdfe fdfd fefe     ................
  415d8c:	fefe fefe fefe fefe fefe fefe fefe fefe     ................
  415d9c:	fefe fdfe fdfd fcfc fefc fefe fefe fefe     ................
  415dac:	fefe fefe fefe fefe fefe fffe ffff fefe     ................
  415dbc:	fefe fefe fdfd fdfd fdfd fefe fefe fefe     ................
  415dcc:	fefe fdfe fdfd fdfd fefd fefe fefe fefe     ................
  415ddc:	fefe fefe fefe fefe ffff ffff ffff ffff     ................
  415dec:	ffff ffff ffff ffff ffff fdfd fefd fefe     ................
  415dfc:	fdfd fdfd fdfd fefe fcfe fcfc fdfd fefd     ................
  415e0c:	fefe fefe fefe fefe fefe fefe fefe ffff     ................
  415e1c:	feff fefe fdfd fefd fefe fefe fefe fefe     ................
  415e2c:	fefe fefe fefe ffff ffff ffff ffff ffff     ................
  415e3c:	ffff ffff ffff ffff ffff ffff ffff ffff     ................
  415e4c:	ffff ffff ffff ffff ffff ffff ffff ffff     ................
  415e5c:	ffff ffff ffff ffff ffff ffff ffff ffff     ................
  415e6c:	ffff ffff ffff ffff ffff ffff ffff ffff     ................
  415e7c:	ffff ffff ffff ffff ffff ffff ffff ffff     ................
  415e8c:	ffff ffff ffff ffff ffff ffff ffff ffff     ................
  415e9c:	ffff ffff ffff ffff ffff ffff ffff ffff     ................
  415eac:	ffff ffff ffff ffff ffff ffff ffff ffff     ................
  415ebc:	ffff ffff ffff ffff ffff ffff ffff ffff     ................
  415ecc:	ffff ffff ffff ffff ffff ffff ffff ffff     ................
  415edc:	ffff ffff ffff ffff ffff ffff ffff ffff     ................
  415eec:	ffff ffff ffff ffff acff acac 0000 0000     ................
	...
  415f04:	0000 1400 1414 a9a9 ffa9 ffff ffff ffff     ................
  415f14:	ffff ffff ffff ffff ffff ffff ffff ffff     ................
  415f24:	feff fefe ffff ffff ffff ffff eaff eaea     ................
  415f34:	0e0e 000e 0000 0000 0000 0000 0000 3500     ...............5
  415f44:	3535 eded ffed ffff ffff ffff ffff ffff     55..............
  415f54:	ffff ffff ffff ffff ffff ffff ffff ffff     ................
  415f64:	ffff a1ff a1a1 0000 0000 0000 0000 0000     ................
  415f74:	0000 0b0b b00b b0b0 fefe fffe ffff ffff     ................
  415f84:	ffff ffff fefe fefe fefe fefe fefe fefe     ................
  415f94:	fefe fefe fefe fefe fefe fefe fcfc fbfc     ................
  415fa4:	fbfb dada 84da 8484 2b2b 002b 0000 0101     ........+++.....
  415fb4:	0101 0101 0202 0002 0000 0000 0000 0000     ................
  415fc4:	0000 0000 0000 2828 c628 c6c6 fefe fffe     ......(((.......
  415fd4:	ffff fefe fefe fefe fcfc 22fc 2222 0000     ..........."""..
	...
  415fec:	0000 4040 e240 e2e2 ffff ffff ffff ffff     ..@@@...........
  415ffc:	ffff ffff ffff ffff ffff ffff ffff ffff     ................
  41600c:	ffff fdff fdfd fefe fefe fefe b9b9 00b9     ................
	...
  416024:	0000 0100 0101 5f5f fb5f fbfb fefe f9fe     ......___.......
  416034:	f9f9 5858 0158 0101 0000 0100 0101 0000     ..XXX...........
  416044:	0000 0000 7373 fe73 fefe fefe fefe fefe     ....sss.........
  416054:	fefe fefe fefe ffff ffff ffff ffff ffff     ................
  416064:	ffff ffff ffff ffff fefe fefe fefe fefe     ................
  416074:	fdfe fdfd fefe fefe fefe fdfd fdfd fdfd     ................
  416084:	fefe fefe fefe fefe fefe fefe fcfc fefc     ................
  416094:	fefe fefe a9fe a9a9 1414 0014 0000 0000     ................
  4160a4:	0000 0000 0000 9700 9797 fefe fefe fefe     ................
  4160b4:	fefe fefe fefe ffff ffff ffff ffff ffff     ................
  4160c4:	ffff ffff ffff ffff ffff ffff ffff ffff     ................
  4160d4:	ffff ffff ffff ffff ffff ffff ffff ffff     ................
  4160e4:	ffff ffff ffff ffff ffff ffff ffff ffff     ................
  4160f4:	fdff fefe fdff fffd fffd feff ffff a6ee     ................
  416104:	cbaf 2e0b 12cf d033 3112 11ca eb31 afa3     ......3..1..1...
  416114:	fefe fefd fdff ffff ffff ffff ffff ffff     ................
  416124:	ffff ffff ffff ffff fefe fefe fefe fefe     ................
  416134:	fefe fefe fefe fefe fefe fefe fefe fefe     ................
  416144:	fefe fdfe fdfd fefe fefe fefe fefe fefe     ................
  416154:	fefe fcfc fefc fefe fefe fefe fefe fefe     ................
  416164:	fcfe fcfc fefe fefe fefe fdfd fefd fefe     ................
  416174:	fcfc fefc fefe fefe fefe fefe fefe fefe     ................
  416184:	fefe fefe fefe fefe fefe fefe fefe fefe     ................
  416194:	fefe fefe fdfd fcfd fcfc ffff ffff ffff     ................
  4161a4:	ffff ffff ffff ffff ffff ffff ffff fdff     ................
  4161b4:	fdfd fefe fcfe fcfc fefe fefe fefe fdfd     ................
  4161c4:	fefd fefe fdfd fefd fefe fefe fdfe fdfd     ................
  4161d4:	fcfc fefc fefe fefe fefe fefe fefe fefe     ................
  4161e4:	fefe fefe fefe fefe ffff ffff ffff ffff     ................
  4161f4:	ffff ffff ffff ffff ffff ffff ffff ffff     ................
  416204:	ffff ffff ffff ffff ffff ffff ffff ffff     ................
  416214:	ffff ffff ffff ffff ffff ffff ffff ffff     ................
  416224:	ffff ffff ffff ffff ffff ffff ffff ffff     ................
  416234:	ffff ffff ffff ffff ffff ffff ffff ffff     ................
  416244:	ffff ffff ffff ffff ffff ffff ffff ffff     ................
  416254:	ffff ffff ffff ffff ffff ffff ffff ffff     ................
  416264:	ffff ffff ffff ffff ffff ffff ffff ffff     ................
  416274:	ffff ffff ffff ffff ffff ffff ffff ffff     ................
  416284:	ffff ffff ffff ffff ffff ffff ffff ffff     ................
  416294:	ffff ffff ffff ffff ffff ffff ffff ffff     ................
  4162a4:	ffff ffff ffff ffff ffff ffff ffff acac     ................
  4162b4:	00ac 0000 0000 0000 0000 0000 0000 0000     ................
  4162c4:	1414 a914 a9a9 ffff ffff ffff ffff ffff     ................
  4162d4:	ffff ffff ffff ffff ffff ffff ffff fefe     ................
  4162e4:	fffe ffff ffff ffff ffff eaea 0eea 0e0e     ................
	...
  416300:	3535 ed35 eded ffff ffff ffff ffff ffff     555.............
  416310:	ffff ffff ffff ffff ffff ffff ffff ffff     ................
  416320:	ffff ffff a1a1 00a1 0000 0000 0000 0000     ................
  416330:	0000 0b00 0b0b b0b0 feb0 fefe ffff ffff     ................
  416340:	ffff fdfd fefd fefe fdfd fefd fefe fefe     ................
  416350:	fefe fefe ffff feff fefe fefe fffe ffff     ................
  416360:	fefe fefe fefe fdfd fafd fafa c4c4 76c4     ...............v
  416370:	7676 3434 0f34 0f0f 0000 0000 0000 0000     vv444...........
  416380:	0000 0000 0000 0100 0101 7979 f679 f6f6     ..........yyy...
  416390:	ffff feff fefe fefe fcfe fcfc 2222 0022     ............""".
	...
  4163a8:	0000 4000 4040 e2e2 ffe2 ffff ffff ffff     ...@@@..........
  4163b8:	ffff ffff ffff ffff ffff ffff ffff ffff     ................
  4163c8:	feff fefe ffff feff fefe fefe a7fe a7a7     ................
  4163d8:	0000 0000 0000 0101 0001 0000 0404 7b04     ...............{
  4163e8:	7b7b fefe fefe fefe fafa 6ffa 6f6f 0101     {{.........ooo..
  4163f8:	0001 0000 0101 0001 0000 0101 4401 4444     .............DDD
  416408:	fdfd fdfd fdfd fefe fefe fefe ffff ffff     ................
  416418:	ffff ffff ffff ffff ffff ffff ffff ffff     ................
  416428:	fdff fdfd fefe fdfe fdfd ffff fbff fbfb     ................
  416438:	fefe fefe fefe fefe fefe fefe fefe fefe     ................
  416448:	fefe fefe fefe fefe fefe fefe fefe a9a9     ................
  416458:	14a9 1414 0000 0000 0000 0000 0000 0000     ................
  416468:	9797 fe97 fefe fefe fefe fefe fefe fffe     ................
  416478:	ffff ffff ffff ffff ffff ffff ffff ffff     ................
  416488:	ffff ffff ffff ffff ffff ffff ffff ffff     ................
  416498:	ffff ffff ffff ffff ffff ffff ffff ffff     ................
  4164a8:	ffff ffff ffff ffff ffff fefd fffe fdfd     ................
  4164b8:	fdff ffff fffe eeff afa6 0bcb cf2e 3312     ...............3
  4164c8:	12d0 ca31 3111 a3eb feaf fdfe fffe fffd     ..1..1..........
  4164d8:	ffff ffff ffff ffff ffff ffff ffff ffff     ................
  4164e8:	ffff ffff fefe fdfe fdfd fefe fdfe fdfd     ................
  4164f8:	fefe fefe fefe fdfd fefd fefe fcfc fefc     ................
  416508:	fefe fbfb dafb dada c3c3 c2c3 c2c2 bfbf     ................
  416518:	c8bf c8c8 e3e3 fee3 fefe ffff feff fefe     ................
  416528:	fefe fefe fefe fefe fefe fefe fefe fffe     ................
  416538:	ffff ffff ffff ffff fefe fefe fefe fefe     ................
  416548:	fefe fefe fefe fefe fefe fefe fefe fefe     ................
  416558:	fefe fefe fefe ffff ffff ffff ffff ffff     ................
  416568:	ffff ffff ffff ffff fefe fcfe fcfc fefe     ................
  416578:	fefe fefe f8f8 c1f8 c1c1 ebeb feeb fefe     ................
  416588:	fefe fefe fefe fefe fefe fefe fefe fefe     ................
  416598:	fefe fefe fefe fefe fefe fefe fefe fefe     ................
  4165a8:	fefe fefe ffff ffff ffff ffff ffff ffff     ................
  4165b8:	ffff ffff ffff ffff ffff ffff ffff ffff     ................
  4165c8:	ffff ffff ffff ffff ffff ffff ffff ffff     ................
  4165d8:	ffff ffff ffff ffff ffff ffff ffff ffff     ................
  4165e8:	ffff ffff ffff ffff ffff ffff ffff ffff     ................
  4165f8:	ffff ffff ffff ffff ffff ffff ffff ffff     ................
  416608:	ffff ffff ffff ffff ffff ffff ffff ffff     ................
  416618:	ffff ffff ffff ffff ffff ffff ffff ffff     ................
  416628:	ffff ffff ffff ffff ffff ffff ffff ffff     ................
  416638:	ffff ffff ffff ffff ffff ffff ffff ffff     ................
  416648:	ffff ffff ffff ffff ffff ffff ffff ffff     ................
  416658:	ffff ffff ffff ffff ffff ffff ffff ffff     ................
  416668:	ffff ffff ffff acff acac 0000 0000 0000     ................
	...
  416680:	1400 1414 a9a9 ffa9 ffff ffff ffff ffff     ................
  416690:	ffff ffff ffff ffff ffff ffff ffff feff     ................
  4166a0:	fefe ffff ffff ffff ffff eaff eaea 0e0e     ................
  4166b0:	000e 0000 0000 0000 0000 0000 3500 3535     .............555
  4166c0:	eded ffed ffff ffff ffff ffff ffff ffff     ................
  4166d0:	ffff ffff ffff ffff ffff ffff ffff ffff     ................
  4166e0:	a1ff a1a1 0000 0000 0000 0000 0000 0000     ................
  4166f0:	0b0b b00b b0b0 fefe fffe ffff ffff feff     ................
  416700:	fefe fefe fdfe fdfd f7f7 e3f7 e3e3 e2e2     ................
  416710:	f1e2 f1f1 fefe fefe fefe fefe fefe fefe     ................
  416720:	fdfd fefd fefe fdfd fefd fefe fbfb defb     ................
  416730:	dede 9797 3b97 3b3b 0101 0101 0101 0000     .....;;;........
  416740:	0100 0101 0000 3d00 3d3d e8e8 ffe8 ffff     .......===......
  416750:	fefe fefe fefe fcfc 22fc 2222 0000 0000     ........."""....
	...
  416768:	4040 e240 e2e2 ffff ffff ffff ffff ffff     @@@.............
  416778:	ffff ffff ffff ffff ffff ffff ffff fefe     ................
  416788:	fefe fefe fdfd fefd fefe 8989 0089 0000     ................
	...
  4167a0:	0700 0707 a6a6 fea6 fefe fefe fcfe fcfc     ................
  4167b0:	8e8e 008e 0000 0101 0001 0000 0101 0001     ................
  4167c0:	0000 1414 e314 e3e3 fefe fefe fefe fdfd     ................
  4167d0:	fffd ffff ffff ffff ffff ffff ffff ffff     ................
  4167e0:	ffff ffff ffff ffff feff fefe fefe fefe     ................
  4167f0:	fefe fdfd fefd fefe fdfd fefd fefe fefe     ................
  416800:	fefe fefe fefe fefe fefe fefe fefe fefe     ................
  416810:	fefe a9fe a9a9 1414 0014 0000 0000 0000     ................
  416820:	0000 0000 9700 9797 fefe fefe fefe fefe     ................
  416830:	fefe fefe ffff ffff ffff ffff ffff ffff     ................
  416840:	ffff ffff ffff ffff ffff ffff ffff ffff     ................
  416850:	ffff ffff ffff ffff ffff ffff ffff ffff     ................
  416860:	ffff ffff ffff ffff ffff ffff ffff fdff     ................
  416870:	fefe fdff fffd fffd feff ffff a6ee cbaf     ................
  416880:	2e0b 12cf d033 3112 11ca eb31 afa3 fefe     ....3..1..1.....
  416890:	fefd fdff ffff ffff ffff ffff ffff ffff     ................
  4168a0:	ffff ffff ffff ffff feff fefe fdfd fdfd     ................
  4168b0:	fdfd fdfd fefd fefe fefe fefe fefe fcfc     ................
  4168c0:	fefc fefe fefe f5fe f5f5 6d6d 296d 2929     ..........mmm)))
  4168d0:	4f4f 4a4f 4a4a 3f3f 4f3f 4f4f bdbd febd     OOOJJJ???OOO....
  4168e0:	fefe fefe fefe fefe fdfd fdfd fdfd fdfd     ................
  4168f0:	fefd fefe fdfd fffd ffff fefe fefe fefe     ................
  416900:	fefe fefe fefe fefe fefe fefe fefe fefe     ................
  416910:	fefe fdfd fefd fefe fdfd fffd ffff ffff     ................
  416920:	ffff ffff ffff ffff ffff ffff ffff ffff     ................
  416930:	fdfd fefd fefe fdfd e7fd e7e7 3737 c237     ............777.
  416940:	c2c2 fefe fdfe fdfd fefe fefe fefe fefe     ................
  416950:	fefe fefe fefe fefe fefe ffff feff fefe     ................
  416960:	fefe fefe fefe fefe fffe ffff ffff ffff     ................
  416970:	ffff ffff ffff ffff ffff ffff ffff ffff     ................
  416980:	ffff ffff ffff ffff ffff ffff ffff ffff     ................
  416990:	ffff ffff ffff ffff ffff ffff ffff ffff     ................
  4169a0:	ffff ffff ffff ffff ffff ffff ffff ffff     ................
  4169b0:	ffff ffff ffff ffff ffff ffff ffff ffff     ................
  4169c0:	ffff ffff ffff ffff ffff ffff ffff ffff     ................
  4169d0:	ffff ffff ffff ffff ffff ffff ffff ffff     ................
  4169e0:	ffff ffff ffff ffff ffff ffff ffff ffff     ................
  4169f0:	ffff ffff ffff ffff ffff ffff ffff ffff     ................
  416a00:	ffff ffff ffff ffff ffff ffff ffff ffff     ................
  416a10:	ffff ffff ffff ffff ffff ffff ffff ffff     ................
  416a20:	ffff ffff ffff ffff ffff ffff acac 00ac     ................
	...
  416a3c:	0000 1414 a914 a9a9 ffff ffff ffff ffff     ................
  416a4c:	ffff ffff ffff ffff ffff ffff ffff ffff     ................
  416a5c:	fefe fffe ffff ffff ffff ffff eaea 0eea     ................
  416a6c:	0e0e 0000 0000 0000 0000 0000 0000 3535     ..............55
  416a7c:	ed35 eded ffff ffff ffff ffff ffff ffff     5...............
  416a8c:	ffff ffff ffff ffff ffff ffff ffff ffff     ................
  416a9c:	ffff a1a1 00a1 0000 0000 0000 0000 0000     ................
  416aac:	0b00 0b0b b0b0 feb0 fefe ffff ffff ffff     ................
  416abc:	fefe fefe fefe fdfd befd bebe 4545 3745     ............EEE7
  416acc:	3737 7979 fe79 fefe fefe fefe fefe ffff     77yyy...........
  416adc:	feff fefe fefe fefe fefe fefe fdfe fdfd     ................
  416aec:	fdfd fdfd fdfd d0d0 53d0 5353 0202 0002     .........SSS....
  416afc:	0000 0000 0100 0101 1c1c e01c e0e0 ffff     ................
  416b0c:	feff fefe fefe fcfe fcfc 2222 0022 0000     .........."""...
	...
  416b24:	4000 4040 e2e2 ffe2 ffff ffff ffff ffff     .@@@............
  416b34:	ffff ffff ffff ffff ffff ffff ffff feff     ................
  416b44:	fefe fefe fefe fefe fcfc 5efc 5e5e 0202     ...........^^^..
  416b54:	0002 0000 0000 0000 0000 1414 db14 dbdb     ................
  416b64:	fefe fdfe fdfd fefe b2fe b2b2 0f0f 000f     ................
  416b74:	0000 0000 0100 0101 0101 0101 0101 8787     ................
  416b84:	fb87 fbfb fefe fdfe fdfd ffff ffff ffff     ................
  416b94:	ffff ffff ffff ffff ffff ffff ffff ffff     ................
  416ba4:	ffff fdfd fefd fefe fefe fdfe fdfd fefe     ................
  416bb4:	f0fe f0f0 dfdf fbdf fbfb fdfd fffd ffff     ................
  416bc4:	fdfd fdfd fdfd fefe fefe fefe a9a9 14a9     ................
  416bd4:	1414 0000 0000 0000 0000 0000 0000 9797     ................
  416be4:	fe97 fefe fefe fefe fefe fefe fffe ffff     ................
  416bf4:	ffff ffff ffff ffff ffff ffff ffff ffff     ................
  416c04:	ffff ffff ffff ffff ffff ffff ffff ffff     ................
  416c14:	ffff ffff ffff ffff ffff ffff ffff ffff     ................
  416c24:	ffff ffff ffff ffff fefd fffe fdfd fdff     ................
  416c34:	ffff fffe eeff afa6 0bcb cf2e 3312 12d0     .............3..
  416c44:	ca31 3111 a3eb feaf fdfe fffe fffd ffff     1..1............
  416c54:	ffff ffff ffff ffff ffff ffff ffff feff     ................
  416c64:	fefe fefe fefe fefe fbfb fdfb fdfd fefe     ................
  416c74:	fefe fefe fefe fdfe fdfd fefe fefe fefe     ................
  416c84:	f4f4 61f4 6161 6868 e368 e3e3 e1e1 d1e1     ...aaahhh.......
  416c94:	d1d1 7171 2b71 2b2b e4e4 fee4 fefe fefe     ..qqq+++........
  416ca4:	fefe fefe fbfb fefb fefe fdfd fdfd fdfd     ................
  416cb4:	ffff feff fefe fefe fcfe fcfc fdfd fefd     ................
  416cc4:	fefe fefe fefe fefe fefe fefe fefe fafa     ................
  416cd4:	fffa ffff ffff ffff ffff ffff ffff ffff     ................
  416ce4:	ffff ffff ffff fdfd fefd fefe fefe fefe     ................
  416cf4:	fefe f9f9 d1f9 d1d1 f2f2 fef2 fefe fefe     ................
  416d04:	fefe fefe fcfc fdfc fdfd fefe fefe fefe     ................
  416d14:	fefe fdfe fdfd fefe fcfe fcfc fcfc fffc     ................
  416d24:	ffff ffff ffff ffff ffff ffff ffff ffff     ................
  416d34:	ffff ffff ffff ffff ffff ffff ffff ffff     ................
  416d44:	ffff ffff ffff ffff ffff ffff ffff ffff     ................
  416d54:	ffff ffff ffff ffff ffff ffff ffff ffff     ................
  416d64:	ffff ffff ffff ffff ffff ffff ffff ffff     ................
  416d74:	ffff ffff ffff ffff ffff ffff ffff ffff     ................
  416d84:	ffff ffff ffff ffff ffff ffff ffff ffff     ................
  416d94:	ffff ffff ffff ffff ffff ffff ffff ffff     ................
  416da4:	ffff ffff ffff ffff ffff ffff ffff ffff     ................
  416db4:	ffff ffff ffff ffff ffff ffff ffff ffff     ................
  416dc4:	ffff ffff ffff ffff ffff ffff ffff ffff     ................
  416dd4:	ffff ffff ffff ffff ffff ffff ffff ffff     ................
  416de4:	ffff ffff acff acac 0000 0000 0000 0000     ................
  416df4:	0000 0000 0000 1400 1414 a9a9 ffa9 ffff     ................
  416e04:	ffff ffff ffff ffff ffff ffff ffff ffff     ................
  416e14:	ffff ffff feff fefe ffff ffff ffff ffff     ................
  416e24:	eaff eaea 0e0e 000e 0000 0000 0000 0000     ................
  416e34:	0000 3500 3535 eded ffed ffff ffff ffff     ...555..........
  416e44:	ffff ffff ffff ffff ffff ffff ffff ffff     ................
  416e54:	ffff ffff ffff a1ff a1a1 0000 0000 0000     ................
  416e64:	0000 0000 0000 0b0b b00b b0b0 fefe fffe     ................
  416e74:	ffff ffff feff fefe fcfc fefc fefe a9a9     ................
  416e84:	11a9 1111 0000 2f00 2f2f f2f2 fef2 fefe     .......///......
  416e94:	fdfd fffd ffff fefe fefe fefe fefe fefe     ................
  416ea4:	fefe fefe fcfe fcfc fefe fefe fefe c8c8     ................
  416eb4:	2ac8 2a2a 0202 0002 0000 0000 1000 1010     .***............
  416ec4:	dada ffda ffff fefe fefe fefe fcfc 22fc     ..............."
  416ed4:	2222 0000 0000 0000 0000 0000 0000 4040     ""............@@
  416ee4:	e240 e2e2 ffff ffff ffff ffff ffff ffff     @...............
  416ef4:	ffff ffff ffff ffff ffff ffff fefe fefe     ................
  416f04:	fefe fdfd effd efef 2f2f 002f 0000 0000     ........///.....
  416f14:	0000 0000 0101 4101 4141 fefe fdfe fdfd     .......AAA......
  416f24:	fefe fefe fefe cfcf 2acf 2a2a 0101 0101     .........***....
  416f34:	0101 0000 0000 0000 0000 1500 1515 ebeb     ................
  416f44:	feeb fefe fefe fefe fefe ffff ffff ffff     ................
  416f54:	ffff ffff ffff ffff ffff ffff fefe fefe     ................
  416f64:	fefe fefe fdfe fdfd fefe f8fe f8f8 7676     ..............vv
  416f74:	1876 1818 7f7f f87f f8f8 fdfd fcfd fcfc     v...............
  416f84:	fefe fefe fefe fefe a9fe a9a9 1414 0014     ................
	...
  416f9c:	0000 9700 9797 fefe fefe fefe fefe fefe     ................
  416fac:	fefe ffff ffff ffff ffff ffff ffff ffff     ................
  416fbc:	ffff ffff ffff ffff ffff ffff ffff ffff     ................
  416fcc:	ffff ffff ffff ffff ffff ffff ffff ffff     ................
  416fdc:	ffff ffff ffff ffff ffff ffff fdff fefe     ................
  416fec:	fdff fffd fffd feff ffff a6ee cbaf 2e0b     ................
  416ffc:	12cf d033 3112 11ca eb31 afa3 fefe fefd     ..3..1..1.......
  41700c:	fdff ffff ffff ffff ffff ffff ffff ffff     ................
  41701c:	ffff ffff fefe fefe fefe f5f5 d3f5 d3d3     ................
  41702c:	e9e9 fde9 fdfd fefe fefe fefe fefe fffe     ................
  41703c:	ffff fefe f3fe f3f3 6262 7162 7171 fcfc     ........bbbqqq..
  41704c:	fdfc fdfd fdfd e5fd e5e5 0909 ad09 adad     ................
  41705c:	fdfd fefd fefe f1f1 d4f1 d4d4 eaea fdea     ................
  41706c:	fdfd fefe fdfe fdfd fefe f1fe f1f1 d1d1     ................
  41707c:	e2d1 e2e2 fdfd fefd fefe fefe fdfe fdfd     ................
  41708c:	f9f9 def9 dede e2e2 ffe2 ffff ffff ffff     ................
  41709c:	ffff ffff ffff ffff ffff feff fefe fefe     ................
  4170ac:	fefe fefe fefe fdfe fdfd fefe fefe fefe     ................
  4170bc:	fefe fefe fefe f4f4 d3f4 d3d3 e5e5 fde5     ................
  4170cc:	fdfd fefe fefe fefe fefe f6fe f6f6 d5d5     ................
  4170dc:	ded5 dede fdfd fffd ffff ffff ffff ffff     ................
  4170ec:	ffff ffff ffff ffff ffff ffff ffff ffff     ................
  4170fc:	ffff ffff ffff ffff ffff ffff ffff ffff     ................
  41710c:	ffff ffff ffff ffff ffff ffff ffff ffff     ................
  41711c:	ffff ffff ffff ffff ffff ffff ffff ffff     ................
  41712c:	ffff ffff ffff ffff ffff ffff ffff ffff     ................
  41713c:	ffff ffff ffff ffff ffff ffff ffff ffff     ................
  41714c:	ffff ffff ffff ffff ffff ffff ffff ffff     ................
  41715c:	ffff ffff ffff ffff ffff ffff ffff ffff     ................
  41716c:	ffff ffff ffff ffff ffff ffff ffff ffff     ................
  41717c:	ffff ffff ffff ffff ffff ffff fefe fefe     ................
  41718c:	fefe fdfd fefd fefe fefe fefe fefe fefe     ................
  41719c:	fefe fefe fdfd fdfd fdfd adad 00ad 0000     ................
  4171ac:	0101 0001 0000 0000 0000 0000 1414 a814     ................
  4171bc:	a8a8 fefe fefe fefe fefe fffe ffff fefe     ................
  4171cc:	fefe fefe fefe fefe fefe fefe fefe fefe     ................
  4171dc:	ffff fdff fdfd eaea 10ea 1010 0000 0000     ................
	...
  4171f4:	3636 ec36 ecec fefe fefe fefe fefe fffe     666.............
  417204:	ffff ffff feff fefe fdfd fefd fefe fefe     ................
  417214:	fefe fefe a1a1 00a1 0000 0202 0002 0000     ................
  417224:	0000 0b00 0b0b b0b0 fdb0 fdfd fefe fefe     ................
  417234:	fefe fefe fefe fefe fefe abfe abab 1212     ................
  417244:	0012 0000 1717 ba17 baba fdfd fefd fefe     ................
  417254:	fdfd fdfd fdfd fefe fefe fefe fefe fefe     ................
  417264:	fefe fefe fefe fefe fefe f2fe f2f2 5b5b     ..............[[
  417274:	025b 0202 0101 0001 0000 1717 de17 dede     [...............
  417284:	ffff feff fefe fefe fcfe fcfc 2222 0022     ............""".
	...
  41729c:	0000 3f00 3f3f e1e1 fee1 fefe fefe fefe     ...???..........
  4172ac:	fefe fefe fffe ffff ffff ffff ffff fefe     ................
  4172bc:	fefe fefe fefe fefe fefe b7b7 18b7 1818     ................
	...
  4172d4:	0500 0505 b5b5 feb5 fefe fdfd fefd fefe     ................
  4172e4:	fefe edfe eded 5f5f 015f 0101 0000 0000     ......___.......
	...
  4172fc:	0101 6e01 6e6e f1f1 fdf1 fdfd ffff feff     ...nnn..........
  41730c:	fefe fefe fefe fefe ffff feff fefe fefe     ................
  41731c:	fefe fefe fdfd fefd fefe fefe f5fe f5f5     ................
  41732c:	9696 0196 0101 0000 3400 3434 f6f6 fef6     .........444....
  41733c:	fefe fefe fefe fefe fdfd fefd fefe a8a8     ................
  41734c:	14a8 1414 0202 0002 0000 0000 0000 0000     ................
  41735c:	9898 fd98 fdfd fefe fefe fefe fdfd fefd     ................
  41736c:	fefe fefe fefe fefe fefe fefe fefe fefe     ................
  41737c:	fefe fefe ffff ffff ffff ffff ffff ffff     ................
  41738c:	ffff ffff ffff ffff ffff ffff ffff ffff     ................
  41739c:	ffff ffff ffff ffff ffff fefd fffe fdfd     ................
  4173ac:	fdff ffff fffe eeff afa6 0bcb cf2e 3312     ...............3
  4173bc:	12d0 ca31 3111 a3eb feaf fdfe fffe fffd     ..1..1..........
  4173cc:	ffff ffff ffff ffff ffff feff fefe fefe     ................
  4173dc:	f8fe f8f8 9d9d 259d 2525 2e2e 272e 2727     .......%%%...'''
  4173ec:	9797 fd97 fdfd ffff ffff ffff ffff ffff     ................
  4173fc:	ffff f4f4 61f4 6161 7373 fd73 fdfd fcfc     .....aaasss.....
  41740c:	fdfc fdfd cccc 09cc 0909 bcbc f5bc f5f5     ................
  41741c:	9393 2093 2020 2e2e 2b2e 2b2b a1a1 fda1     ...   ...+++....
  41742c:	fdfd fcfc b5fc b5b5 3737 3137 3131 2d2d     ........777111--
  41743c:	692d 6969 e7e7 fee7 fefe dcdc 57dc 5757     -iii.........WWW
  41744c:	2b2b 322b 3232 5e5e 525e 5252 d8d8 e0d8     +++222^^^RRR....
  41745c:	e0e0 3e3e d33e d3d3 fefe fefe fefe 4040     ..>>>.........@@
  41746c:	ac40 acac e6e6 1ee6 1e1e bebe fcbe fcfc     @...............
  41747c:	acac 27ac 2727 2f2f 2c2f 2c2c 7373 f773     ...'''///,,,sss.
  41748c:	f7f7 fafa bdfa bdbd 4343 2f43 2f2f 2d2d     ........CCC///--
  41749c:	632d 6363 e0e0 fde0 fdfd fdfd fdfd fdfd     -ccc............
  4174ac:	fefe fefe fefe ffff ffff ffff ffff ffff     ................
  4174bc:	ffff ffff ffff ffff ffff ffff ffff ffff     ................
  4174cc:	ffff ffff ffff ffff ffff ffff ffff ffff     ................
  4174dc:	ffff ffff ffff ffff ffff ffff ffff ffff     ................
  4174ec:	ffff ffff ffff ffff ffff ffff ffff ffff     ................
  4174fc:	ffff ffff ffff ffff ffff ffff ffff ffff     ................
  41750c:	ffff ffff ffff ffff ffff ffff ffff ffff     ................
  41751c:	ffff ffff ffff ffff ffff ffff ffff ffff     ................
  41752c:	ffff ffff ffff ffff ffff ffff ffff ffff     ................
  41753c:	ffff ffff ffff ffff ffff ffff fdfd fefd     ................
  41754c:	fefe fdfd fdfd fdfd fefe fefe fefe fdfd     ................
  41755c:	fefd fefe fefe abfe abab 0101 0001 0000     ................
	...
  417574:	1400 1414 a7a7 fea7 fefe fefe fdfe fdfd     ................
  417584:	fefe fdfe fdfd fefe fdfe fdfd fefe fdfe     ................
  417594:	fdfd fefe fefe fefe fefe eafe eaea 0c0c     ................
  4175a4:	010c 0101 0000 0100 0101 0101 3101 3131     .............111
  4175b4:	eaea feea fefe fefe fdfe fdfd fdfd fefd     ................
  4175c4:	fefe fdfd fffd ffff fefe fefe fefe fefe     ................
  4175d4:	9ffe 9f9f 0101 0001 0000 0000 0000 0000     ................
  4175e4:	0a0a b00a b0b0 fcfc fdfc fdfd fdfd fefd     ................
  4175f4:	fefe fefe fefe fefe abab 12ab 1212 0000     ................
  417604:	0500 0505 6d6d f36d f3f3 fefe fefe fefe     ....mmm.........
  417614:	fcfc fefc fefe fefe fefe fefe fefe fefe     ................
  417624:	fefe fefe fdfe fdfd fbfb 6afb 6a6a 0404     ...........jjj..
  417634:	0004 0000 0000 2f00 2f2f e7e7 ffe7 ffff     .......///......
  417644:	fefe fefe fefe fcfc 22fc 2222 0000 0000     ........."""....
  417654:	0000 0000 0100 0101 3b3b dc3b dcdc fefe     ........;;;.....
  417664:	fefe fefe fdfd fefd fefe ffff ffff ffff     ................
  417674:	fefe fefe fefe fefe fefe fefe f4f4 70f4     ...............p
  417684:	7070 0606 0006 0000 0101 0001 0000 4747     pp............GG
  417694:	f747 f7f7 fefe fdfe fdfd fdfd fefd fefe     G...............
  4176a4:	fcfc a2fc a2a2 1414 0114 0101 0000 0000     ................
	...
  4176bc:	1616 9016 9090 f3f3 fef3 fefe fdfd fdfd     ................
  4176cc:	fdfd fefe fefe fefe fefe fefe fefe fefe     ................
  4176dc:	fefe fefe fefe eefe eeee 8f8f 098f 0909     ................
  4176ec:	0000 1900 1919 adad fdad fdfd fdfd fdfd     ................
  4176fc:	fdfd fefe fdfe fdfd fdfd a6fd a6a6 1313     ................
  41770c:	0113 0101 0000 0000 0000 0101 9101 9191     ................
  41771c:	fdfd fefd fefe fcfc fefc fefe fefe fefe     ................
  41772c:	fefe fefe fefe fefe fefe fefe fefe fefe     ................
  41773c:	fffe ffff ffff ffff ffff ffff ffff ffff     ................
  41774c:	ffff ffff ffff ffff ffff ffff ffff ffff     ................
  41775c:	ffff ffff ffff fdff fefe fdff fffd fffd     ................
  41776c:	feff ffff a6ee cbaf 2e0b 12cf d033 3112     ............3..1
  41777c:	11ca eb31 afa3 fefe fefd fdff fefe fefe     ..1.............
  41778c:	fefe ffff ffff ffff fefe fffe ffff c2c2     ................
  41779c:	1cc2 1c1c a2a2 e4a2 e4e4 9393 2193 2121     .............!!!
  4177ac:	dbdb fedb fefe fefe fefe fefe ffff f5ff     ................
  4177bc:	f5f5 6363 5563 5555 b7b7 b4b7 b4b4 9a9a     ..cccUUU........
  4177cc:	439a 4343 4d4d f04d f0f0 b5b5 27b5 2727     .CCCMMM......'''
  4177dc:	aaaa e4aa e4e4 8888 2a88 2a2a ebeb eaeb     .........***....
  4177ec:	eaea 5b5b 865b 8686 ecec ccec cccc 8383     ..[[[...........
  4177fc:	db83 dbdb fbfb 7afb 7a7a 4b4b d04b d0d0     .......zzzKKK...
  41780c:	dddd 6edd 6e6e 3030 d430 d4d4 d8d8 27d8     ...nnn000......'
  41781c:	2727 cdcd fecd fefe fcfc 28fc 2828 9f9f     ''.........(((..
  41782c:	e39f e3e3 0606 b306 b3b3 eaea 41ea 4141     .............AAA
  41783c:	8f8f e98f e9e9 c4c4 7bc4 7b7b f0f0 f1f0     .........{{{....
  41784c:	f1f1 8e8e 908e 9090 e9e9 d0e9 d0d0 4b4b     ..............KK
  41785c:	9b4b 9b9b fcfc fdfc fdfd fdfd fefd fefe     K...............
  41786c:	fefe fffe ffff ffff ffff ffff ffff ffff     ................
  41787c:	ffff ffff ffff ffff ffff ffff ffff ffff     ................
  41788c:	ffff ffff ffff ffff ffff ffff ffff ffff     ................
  41789c:	ffff ffff ffff ffff ffff ffff ffff ffff     ................
  4178ac:	ffff ffff ffff ffff ffff ffff ffff ffff     ................
  4178bc:	ffff ffff ffff ffff ffff ffff ffff ffff     ................
  4178cc:	ffff ffff ffff ffff ffff ffff ffff ffff     ................
  4178dc:	ffff ffff ffff ffff ffff ffff ffff ffff     ................
  4178ec:	ffff ffff ffff ffff ffff ffff ffff ffff     ................
  4178fc:	ffff ffff ffff fefe fdfe fdfd fefe fffe     ................
  41790c:	ffff fefe fefe fefe fefe fefe fefe fdfd     ................
  41791c:	fefd fefe 9494 0094 0000 0000 0000 0000     ................
  41792c:	0000 0000 0000 0c0c 9a0c 9a9a fdfd fdfd     ................
  41793c:	fdfd fdfd fdfd fdfd fefe fefe fefe fefe     ................
  41794c:	fefe fefe fcfc fefc fefe fefe fefe fefe     ................
  41795c:	e1e1 07e1 0707 0000 0000 0000 0101 0001     ................
  41796c:	0000 3030 e230 e2e2 fdfd fefd fefe fefe     ..000...........
  41797c:	fdfe fdfd fefe fefe fefe fefe fefe fefe     ................
  41798c:	fefe fcfe fcfc 9393 0193 0101 0101 0001     ................
  41799c:	0000 0000 0500 0505 a1a1 fba1 fbfb fdfd     ................
  4179ac:	fefd fefe fefe fefe fefe fefe abfe abab     ................
  4179bc:	1212 0012 0000 0000 2100 2121 bdbd febd     .........!!!....
  4179cc:	fefe fefe fdfe fdfd fefe fdfe fdfd fefe     ................
  4179dc:	fefe fefe fefe fefe fefe fefe f0fe f0f0     ................
  4179ec:	5555 0255 0202 0000 0000 0000 6060 f160     UUU.........```.
  4179fc:	f1f1 ffff feff fefe fefe fcfe fcfc 2222     ..............""
  417a0c:	0022 0000 0000 0000 0000 0000 2900 2929     "............)))
  417a1c:	c6c6 fec6 fefe fefe fefe fefe fefe fdfe     ................
  417a2c:	fdfd fefe fefe fefe fefe fdfe fdfd fefe     ................
  417a3c:	c5fe c5c5 2525 0025 0000 0202 0002 0000     ....%%%.........
  417a4c:	1717 ba17 baba fefe fdfe fdfd fefe fdfe     ................
  417a5c:	fdfd fefe fefe fefe eaea 47ea 4747 0000     ...........GGG..
  417a6c:	0000 0000 0000 0200 0202 0000 0000 0000     ................
  417a7c:	1818 8018 8080 f7f7 fdf7 fdfd fefe fdfe     ................
  417a8c:	fdfd fefe fefe fefe fefe fefe fefe fefe     ................
  417a9c:	e2fe e2e2 6d6d 116d 1111 0000 0800 0808     ....mmm.........
  417aac:	7575 f175 f1f1 fefe fefe fefe fefe fefe     uuu.............
  417abc:	fefe fdfd fefd fefe 9c9c 0d9c 0d0d 0202     ................
  417acc:	0002 0000 0000 0100 0101 7b7b fe7b fefe     ..........{{{...
  417adc:	fdfd fdfd fdfd fefe fefe fefe ffff feff     ................
  417aec:	fefe fefe fefe fefe fefe fefe fefe ffff     ................
  417afc:	ffff ffff ffff ffff ffff ffff ffff ffff     ................
  417b0c:	ffff ffff ffff ffff ffff ffff ffff ffff     ................
  417b1c:	ffff ffff fefd fffe fdfd fdff ffff fffe     ................
  417b2c:	eeff afa6 0bcb cf2e 3312 12d0 ca31 3111     .........3..1..1
  417b3c:	a3eb feaf fdfe fffe fefd fefe fefe fefe     ................
  417b4c:	fefe ffff ffff ffff fefe 7dfe 7d7d 3c3c     ...........}}}<<
  417b5c:	fc3c fcfc fdfd eafd eaea 2828 9128 9191     <.........(((...
  417b6c:	fefe fefe fefe fefe fefe fefe f5f5 64f5     ...............d
  417b7c:	6464 1a1a 3c1a 3c3c 3a3a 473a 4747 8383     dd...<<<:::GGG..
  417b8c:	e083 e0e0 fafa 76fa 7676 4f4f fc4f fcfc     .......vvvOOO...
  417b9c:	fcfc defc dede 2c2c ab2c abab ebeb 58eb     ......,,,......X
  417bac:	5858 7878 f578 f5f5 fdfd f7fd f7f7 fcfc     XXxxx...........
  417bbc:	f9fc f9f9 2d2d 942d 9494 fdfd fdfd fdfd     ....---.........
  417bcc:	c4c4 3ac4 3a3a d1d1 dbd1 dbdb 2727 ce27     ...:::......'''.
  417bdc:	cece fefe fdfe fdfd 2b2b a32b a3a3 e2e2     ........+++.....
  417bec:	06e2 0606 b5b5 eab5 eaea 3d3d 7b3d 7b7b     ..........==={{{
  417bfc:	f3f3 fef3 fefe f5f5 fdf5 fdfd fdfd edfd     ................
  417c0c:	eded f6f6 eaf6 eaea a7a7 3da7 3d3d 8585     ...........===..
  417c1c:	fa85 fafa fefe fefe fefe fefe fefe fefe     ................
  417c2c:	ffff ffff ffff ffff ffff ffff ffff ffff     ................
  417c3c:	ffff ffff ffff ffff ffff ffff ffff ffff     ................
  417c4c:	ffff ffff ffff ffff ffff ffff ffff ffff     ................
  417c5c:	ffff ffff ffff ffff ffff ffff ffff ffff     ................
  417c6c:	ffff ffff ffff ffff ffff ffff ffff ffff     ................
  417c7c:	ffff ffff ffff ffff ffff ffff ffff ffff     ................
  417c8c:	ffff ffff ffff ffff ffff ffff ffff ffff     ................
  417c9c:	ffff ffff ffff ffff ffff ffff ffff ffff     ................
  417cac:	ffff ffff ffff ffff ffff ffff ffff ffff     ................
  417cbc:	ffff feff fefe fefe fffe ffff fdfd fefd     ................
  417ccc:	fefe fefe fefe fefe fefe fefe fefe f6f6     ................
  417cdc:	4ff6 4f4f 0000 0000 0000 0101 0001 0000     .OOO............
  417cec:	0000 0100 0101 6060 ed60 eded fefe fdfe     ......```.......
  417cfc:	fdfd fefe fdfe fdfd fefe fefe fefe fefe     ................
  417d0c:	fefe fefe ffff fcff fcfc fefe bdfe bdbd     ................
  417d1c:	0606 0006 0000 0101 0101 0101 0000 2000     ............... 
  417d2c:	2020 c5c5 fec5 fefe fefe fefe fefe fdfd       ..............
  417d3c:	fcfd fcfc fefe fefe fefe fcfc fdfc fdfd     ................
  417d4c:	fefe 62fe 6262 0000 0000 0000 0000 0000     ...bbb..........
  417d5c:	0000 0101 7e01 7e7e f9f9 fef9 fefe fdfd     .....~~~........
  417d6c:	fefd fefe fefe fefe fefe abab 12ab 1212     ................
	...
  417d84:	3b00 3b3b eded feed fefe fdfd fdfd fdfd     .;;;............
  417d94:	fefe fdfe fdfd fcfc fefc fefe fefe fefe     ................
  417da4:	fefe c7c7 2ac7 2a2a 0000 0000 0000 0d0d     .....***........
  417db4:	a60d a6a6 fefe fffe ffff fefe fefe fefe     ................
  417dc4:	fcfc 22fc 2222 0000 0000 0000 0101 0001     ..."""..........
  417dd4:	0000 0707 9307 9393 fbfb fcfb fcfc fdfd     ................
  417de4:	fdfd fdfd fefe fefe fefe fefe fefe fefe     ................
  417df4:	fefe f4fe f4f4 4a4a 004a 0000 0000 0000     ......JJJ.......
  417e04:	0000 0505 7a05 7a7a f5f5 fdf5 fdfd fdfd     .....zzz........
  417e14:	fcfd fcfc fefe fffe ffff fefe fefe fefe     ................
  417e24:	c5c5 03c5 0303 0000 0100 0101 0000 0000     ................
	...
  417e3c:	0505 2f05 2f2f acac ecac ecec fefe fffe     ...///..........
  417e4c:	ffff fefe fdfe fdfd e7e7 95e7 9595 2323     ..............##
  417e5c:	0423 0404 0000 0000 0000 3c3c e83c e8e8     #.........<<<...
  417e6c:	fdfd fefd fefe fefe fcfe fcfc fdfd fefd     ................
  417e7c:	fefe f8f8 7ef8 7e7e 0404 0004 0000 0000     .....~~~........
  417e8c:	0000 0000 0000 3b00 3b3b f8f8 fef8 fefe     .......;;;......
  417e9c:	fefe fefe fefe fcfc fdfc fdfd fefe fefe     ................
  417eac:	fefe ffff feff fefe fefe fffe ffff ffff     ................
  417ebc:	ffff ffff ffff ffff ffff ffff ffff ffff     ................
  417ecc:	ffff ffff ffff ffff ffff ffff ffff ffff     ................
  417edc:	fdff fefe fdff fffd fffd feff ffff a6ee     ................
  417eec:	cbaf 2e0b 12cf d033 3112 11ca eb31 afa3     ......3..1..1...
  417efc:	fefe fefd fdff fefe fefe fefe fefe fefe     ................
  417f0c:	fefe fefe f9fe f9f9 6d6d 0c6d 0c0c 2424     ........mmm...$$
  417f1c:	2124 2121 1f1f 051f 0505 6f6f fe6f fefe     $!!!......ooo...
  417f2c:	fefe fefe fefe fefe f5fe f5f5 6363 7163     ............cccq
  417f3c:	7171 f7f7 f6f7 f6f6 f9f9 fbf9 fbfb fcfc     qq..............
  417f4c:	f4fc f4f4 6363 0e63 0e0e 2020 2220 2222     ....ccc...   """
  417f5c:	1f1f 061f 0606 8383 fd83 fdfd b8b8 1fb8     ................
  417f6c:	1f1f 1818 8518 8585 e3e3 fee3 fefe ebeb     ................
  417f7c:	1eeb 1e1e b5b5 feb5 fefe fefe c6fe c6c6     ................
  417f8c:	3939 d339 d3d3 dada 27da 2727 cfcf fecf     999......'''....
  417f9c:	fefe fefe 29fe 2929 a1a1 e4a1 e4e4 0505     .....)))........
  417fac:	b405 b4b4 fcfc adfc adad 0909 1f09 1f1f     ................
  417fbc:	8c8c ec8c ecec fefe fefe fefe ebeb 72eb     ...............r
  417fcc:	7272 0d0d 290d 2929 2323 8623 8686 fbfb     rr...)))###.....
  417fdc:	fefb fefe fdfd fefd fefe fefe fffe ffff     ................
  417fec:	ffff ffff ffff ffff ffff ffff ffff ffff     ................
  417ffc:	ffff ffff ffff ffff ffff ffff ffff ffff     ................
  41800c:	ffff ffff ffff ffff ffff ffff ffff ffff     ................
  41801c:	ffff ffff ffff ffff ffff ffff ffff ffff     ................
  41802c:	ffff ffff ffff ffff ffff ffff ffff ffff     ................
  41803c:	ffff ffff ffff ffff ffff ffff ffff ffff     ................
  41804c:	ffff ffff ffff ffff ffff ffff ffff ffff     ................
  41805c:	ffff ffff ffff ffff ffff ffff ffff ffff     ................
  41806c:	ffff ffff ffff ffff ffff ffff ffff ffff     ................
  41807c:	ffff fdff fdfd fefe fdfe fdfd fdfd fafd     ................
  41808c:	fafa f6f6 edf6 eded d5d5 7bd5 7b7b 0f0f     ...........{{{..
  41809c:	000f 0000 0101 0001 0000 0000 0100 0101     ................
  4180ac:	0101 0f01 0f0f 7e7e d97e d9d9 eded f6ed     ......~~~.......
  4180bc:	f6f6 fafa fdfa fdfd fdfd fefd fefe fefe     ................
  4180cc:	fdfe fdfd f6f6 e2f6 e2e2 5656 0056 0000     ..........VVV...
	...
  4180e4:	0300 0303 0707 7207 7272 e5e5 fae5 fafa     .......rrr......
  4180f4:	fdfd fefd fefe fefe fdfe fdfd fdfd fbfd     ................
  418104:	fbfb efef c6ef c6c6 1313 0013 0000 0000     ................
  418114:	0000 0000 0000 0100 0101 2727 ce27 cece     ..........'''...
  418124:	f3f3 fbf3 fbfb fefe fefe fefe fefe abfe     ................
  418134:	abab 1212 0012 0000 0000 0100 0101 0101     ................
  418144:	3d01 3d3d cccc f4cc f4f4 fefe fefe fefe     .===............
  418154:	fefe fefe fefe fbfb fdfb fdfd dddd 60dd     ...............`
  418164:	6060 0202 0002 0000 0303 5303 5353 e5e5     ``.........SSS..
  418174:	fee5 fefe ffff feff fefe fefe fcfe fcfc     ................
  418184:	2222 0022 0000 0101 0001 0000 0202 0002     """.............
  418194:	0000 2727 bd27 bdbd f8f8 fef8 fefe fdfd     ..'''...........
  4181a4:	fefd fefe fefe fdfe fdfd fafa ddfa dddd     ................
  4181b4:	5b5b 015b 0101 0101 0001 0000 0202 5202     [[[............R
  4181c4:	5252 e2e2 fce2 fcfc fefe fffe ffff fdfd     RR..............
  4181d4:	fdfd fdfd fefe fdfe fdfd fdfd fefd fefe     ................
  4181e4:	9797 1297 1212 0000 0000 0000 0000 0200     ................
  4181f4:	0202 0000 0000 0000 0000 0300 0303 1b1b     ................
  418204:	3f1b 3f3f 5656 5156 5151 3636 0f36 0f0f     .???VVVQQQ666...
  418214:	0000 0200 0202 0000 0100 0101 2d2d d52d     ............---.
  418224:	d5d5 fefe fdfe fdfd fdfd fffd ffff fdfd     ................
  418234:	fafd fafa f2f2 bef2 bebe 2c2c 002c 0000     ..........,,,...
	...
  418250:	0101 8f01 8f8f e1e1 f4e1 f4f4 fafa fbfa     ................
  418260:	fbfb fdfd fdfd fdfd fefe fefe fefe fdfd     ................
  418270:	fffd ffff ffff ffff ffff ffff ffff ffff     ................
  418280:	ffff ffff ffff ffff ffff ffff ffff ffff     ................
  418290:	ffff ffff ffff ffff ffff fefd fffe fdfd     ................
  4182a0:	fdff ffff fffe eeff afa6 0bcb cf2e 3312     ...............3
  4182b0:	12d0 ca31 3111 a3eb feaf fdfe fffe fefd     ..1..1..........
  4182c0:	fefe fefe fefe fefe fefe fefe fefe fafa     ................
  4182d0:	67fa 6767 4040 ab40 abab acac acac acac     .ggg@@@.........
  4182e0:	b3b3 d7b3 d7d7 ffff ffff ffff ffff ffff     ................
  4182f0:	ffff f5f5 63f5 6363 7272 fe72 fefe ffff     .....cccrrr.....
  418300:	feff fefe fefe fefe fefe f3f3 65f3 6565     .............eee
  418310:	4e4e ae4e aeae abab abab abab b3b3 dfb3     NNN.............
  418320:	dfdf fdfd fdfd fdfd e2e2 8de2 8d8d 3939     ..............99
  418330:	3d39 3d3d d1d1 edd1 eded 1e1e b81e b8b8     9===............
  418340:	fdfd fefd fefe c7c7 3cc7 3c3c d3d3 d7d3     .........<<<....
  418350:	d7d7 2828 cf28 cfcf fefe fefe fefe 2b2b     ..(((.........++
  418360:	a22b a2a2 e2e2 06e2 0606 b5b5 fdb5 fdfd     +...............
  418370:	fefe e6fe e6e6 8686 3886 3838 3f3f e33f     .........888???.
  418380:	e3e3 ecec 62ec 6262 4a4a c24a c2c2 f3f3     .....bbbJJJ.....
  418390:	75f3 7575 8585 fa85 fafa fefe fefe fefe     .uuu............
  4183a0:	fefe fefe fefe ffff ffff ffff ffff ffff     ................
  4183b0:	ffff ffff ffff ffff ffff ffff ffff ffff     ................
  4183c0:	ffff ffff ffff ffff ffff ffff ffff ffff     ................
  4183d0:	ffff ffff ffff ffff ffff ffff ffff ffff     ................
  4183e0:	ffff ffff ffff ffff ffff ffff ffff ffff     ................
  4183f0:	ffff ffff ffff ffff ffff ffff ffff ffff     ................
  418400:	ffff ffff ffff ffff ffff ffff ffff ffff     ................
  418410:	ffff ffff ffff ffff ffff ffff ffff ffff     ................
  418420:	ffff ffff ffff ffff ffff ffff ffff ffff     ................
  418430:	ffff ffff ffff ffff feff fefe fefe fdfe     ................
  418440:	fdfd fafa bdfa bdbd 8787 7687 7676 5d5d     ...........vvv]]
  418450:	2f5d 2f2f 0707 0007 0000 0000 0000 0000     ]///............
	...
  418468:	0100 0101 0000 0100 0101 2e2e 5b2e 5b5b     .............[[[
  418478:	7575 8775 8787 b1b1 fdb1 fdfd fefe fefe     uuu.............
  418488:	fefe b2b2 7fb2 7f7f 4949 0b49 0b0b 0000     ........III.....
	...
  4184a8:	1111 5211 5252 8484 bd84 bdbd fdfd fdfd     ...RRR..........
  4184b8:	fdfd fefe eafe eaea 9494 6a94 6a6a 2020     ...........jjj  
  4184c8:	0020 0000 0000 0100 0101 0000 0000 0000      ...............
  4184d8:	0101 0001 0000 2c2c 702c 7070 9d9d e99d     ......,,,ppp....
  4184e8:	e9e9 fefe fefe fefe abab 12ab 1212 0000     ................
	...
  418500:	0000 0101 2301 2323 7a7a b97a b9b9 dcdc     .....###zzz.....
  418510:	e9dc e9e9 e7e7 d3e7 d3d3 a8a8 4ea8 4e4e     .............NNN
  418520:	0606 0006 0000 0101 3901 3939 c8c8 fdc8     .........999....
  418530:	fdfd fefe fffe ffff fefe fefe fefe fcfc     ................
  418540:	22fc 2222 0000 0000 0000 0202 0002 0000     ."""............
  418550:	0101 0001 0000 2626 8426 8484 c2c2 e0c2     ......&&&.......
  418560:	e0e0 ebeb e6eb e6e6 c9c9 93c9 9393 3a3a     ..............::
  418570:	013a 0101 0101 0001 0000 0a0a 5c0a 5c5c     :............\\\
  418580:	dcdc fedc fefe fefe fdfe fdfd ffff fdff     ................
  418590:	fdfd fefe fefe fefe fefe fdfe fdfd fefe     ................
  4185a0:	fbfe fbfb 9191 1e91 1e1e 0101 0001 0000     ................
	...
  4185b8:	0100 0101 0000 0000 0000 0000 0000 0000     ................
	...
  4185d4:	0101 0801 0808 4d4d d54d d5d5 fefe fefe     ......MMM.......
  4185e4:	fefe fdfd fefd fefe fafa c2fa c2c2 8888     ................
  4185f4:	6b88 6b6b 2929 0129 0101 0000 0000 0000     .kkk))).........
  418604:	0000 0000 0000 0101 0001 0000 0c0c 450c     ...............E
  418614:	4545 7070 8570 8585 9a9a e59a e5e5 fdfd     EEppp...........
  418624:	fdfd fdfd fefe fefe fefe ffff ffff ffff     ................
  418634:	ffff ffff ffff ffff ffff ffff ffff ffff     ................
  418644:	ffff ffff ffff ffff ffff ffff ffff ffff     ................
  418654:	ffff fdff fefe fdff fffd fffd feff ffff     ................
  418664:	a6ee cbaf 2e0b 12cf d033 3112 11ca eb31     ........3..1..1.
  418674:	afa3 fefe fefd fdff fefe fefe fefe ffff     ................
  418684:	ffff ffff ffff feff fefe 7d7d 397d 3939     ..........}}}999
  418694:	fdfd fefd fefe fdfd e0fd e0e0 ebeb ffeb     ................
  4186a4:	ffff fefe fefe fefe ffff f5ff f5f5 6262     ..............bb
  4186b4:	7062 7070 fdfd fefd fefe fefe fefe fefe     bppp............
  4186c4:	fefe fbfe fbfb 7878 4e78 4e4e fdfd fefd     ......xxxNNN....
  4186d4:	fefe fefe defe dede f0f0 f9f0 f9f9 e9e9     ................
  4186e4:	f8e9 f8f8 fefe e4fe e4e4 5353 9453 9494     ..........SSS...
  4186f4:	f9f9 28f9 2828 9d9d fe9d fefe fefe c1fe     ...(((..........
  418704:	c1c1 3838 d438 d4d4 dcdc 26dc 2626 cdcd     ..888......&&&..
  418714:	fecd fefe fdfd 29fd 2929 a2a2 e3a2 e3e3     .......)))......
  418724:	0606 b506 b5b5 f9f9 e7f9 e7e7 fdfd fefd     ................
  418734:	fefe e1e1 37e1 3737 9e9e d09e d0d0 3838     .....777......88
  418744:	c938 c9c9 fefe eefe eeee 6363 8763 8787     8.........ccc...
  418754:	fafa fefa fefe fdfd fefd fefe fefe fffe     ................
  418764:	ffff ffff ffff ffff ffff ffff ffff ffff     ................
  418774:	ffff ffff ffff ffff ffff ffff ffff ffff     ................
  418784:	ffff ffff ffff ffff ffff ffff ffff ffff     ................
  418794:	ffff ffff ffff ffff ffff ffff ffff ffff     ................
  4187a4:	ffff ffff ffff ffff ffff ffff ffff ffff     ................
  4187b4:	ffff ffff ffff ffff ffff ffff ffff ffff     ................
  4187c4:	ffff ffff ffff ffff ffff ffff ffff ffff     ................
  4187d4:	ffff ffff ffff ffff ffff ffff ffff ffff     ................
  4187e4:	ffff ffff ffff ffff ffff ffff ffff ffff     ................
  4187f4:	ffff fefe fefe fefe ffff f5ff f5f5 6161     ..............aa
  418804:	0561 0505 0101 0001 0000 0000 0000 0000     a...............
	...
  418834:	0100 0101 0505 4005 4040 fdfd fefd fefe     .......@@@......
  418844:	fdfd 42fd 4242 0303 0103 0101 0000 0000     ...BBB..........
	...
  418868:	0000 0400 0404 5e5e fd5e fdfd ffff feff     ......^^^.......
  418878:	fefe cccc 14cc 1414 0101 0001 0000 0000     ................
	...
  418894:	0100 0101 0000 0100 0101 0101 2501 2525     .............%%%
  4188a4:	c5c5 fcc5 fcfc fefe aafe aaaa 1212 0012     ................
  4188b4:	0000 0101 0001 0000 0000 0000 0000 0000     ................
  4188c4:	0700 0707 1e1e 341e 3434 3d3d 3c3d 3c3c     .......444===<<<
  4188d4:	2e2e 142e 1414 0101 0001 0000 0505 5305     ...............S
  4188e4:	5353 d3d3 fcd3 fcfc fdfd fffd ffff ffff     SS..............
  4188f4:	feff fefe fefe fcfe fcfc 2222 0022 0000     .........."""...
  418904:	0000 0100 0101 0202 0602 0606 0707 0107     ................
  418914:	0101 0707 2407 2424 3636 3f36 3f3f 3b3b     .....$$$666???;;
  418924:	283b 2828 0e0e 010e 0101 0000 0000 0000     ;(((............
  418934:	2525 9225 9292 ebeb feeb fefe fefe fefe     %%%.............
  418944:	fefe fefe fffe ffff ffff feff fefe fefe     ................
  418954:	fefe fefe fefe fffe ffff fefe f4fe f4f4     ................
  418964:	aeae 3dae 3d3d 0000 0100 0101 0000 0000     ...===..........
  418974:	0000 0202 0002 0000 0000 0000 0000 0101     ................
  418984:	0001 0000 0000 0000 0000 0000 1600 1616     ................
  418994:	7d7d de7d dede fdfd fefd fefe fefe fefe     }}}.............
  4189a4:	fefe fefe f2fe f2f2 6f6f 056f 0505 0000     ........ooo.....
	...
  4189d4:	0000 0404 1f04 1f1f baba fdba fdfd fefe     ................
  4189e4:	fefe fefe fefe fffe ffff ffff ffff ffff     ................
  4189f4:	ffff ffff ffff ffff ffff ffff ffff ffff     ................
  418a04:	ffff ffff ffff ffff ffff ffff ffff ffff     ................
  418a14:	fefd fffe fdfd fdff ffff fffe eeff afa6     ................
  418a24:	0bcb cf2e 3312 12d0 ca31 3111 a3eb feaf     .....3..1..1....
  418a34:	fdfe fffe fffd ffff ffff ffff ffff ffff     ................
  418a44:	ffff ffff ffff c2ff c2c2 1e1e 9f1e 9f9f     ................
  418a54:	f7f7 d1f7 d1d1 4a4a a74a a7a7 fefe fefe     ......JJJ.......
  418a64:	fefe fefe fdfe fdfd f5f5 63f5 6363 6e6e     ...........cccnn
  418a74:	fe6e fefe fefe fefe fefe fdfd fffd ffff     n...............
  418a84:	fefe b6fe b6b6 2727 a927 a9a9 fafa cbfa     ......'''.......
  418a94:	cbcb 4a4a be4a bebe dfdf 65df 6565 a3a3     ..JJJ......eee..
  418aa4:	fda3 fdfd dddd 4add 4a4a a0a0 fda0 fdfd     .......JJJ......
  418ab4:	7373 4d73 4d4d dcdc e8dc e8e8 5454 3254     sssMMM......TTT2
  418ac4:	3232 d5d5 eed5 eeee 1b1b aa1b aaaa eded     22..............
  418ad4:	7ded 7d7d 1a1a a61a a6a6 e1e1 05e1 0505     .}}}............
  418ae4:	b4b4 d8b4 d8d8 5c5c b05c b0b0 fafa d8fa     ......\\\.......
  418af4:	d8d8 3333 ba33 baba d2d2 32d2 3232 acac     ..333......222..
  418b04:	e8ac e8e8 8383 1983 1919 8383 fa83 fafa     ................
  418b14:	fcfc fefc fefe fefe fefe fefe ffff ffff     ................
  418b24:	ffff ffff ffff ffff ffff ffff ffff ffff     ................
  418b34:	ffff ffff ffff ffff ffff ffff ffff ffff     ................
  418b44:	ffff ffff ffff ffff ffff ffff ffff ffff     ................
  418b54:	ffff ffff ffff ffff ffff ffff ffff ffff     ................
  418b64:	ffff ffff ffff ffff ffff ffff ffff ffff     ................
  418b74:	ffff ffff ffff ffff ffff ffff ffff ffff     ................
  418b84:	ffff ffff ffff ffff ffff ffff ffff ffff     ................
  418b94:	ffff ffff ffff ffff ffff ffff ffff ffff     ................
  418ba4:	ffff ffff ffff ffff ffff ffff ffff feff     ................
  418bb4:	fefe fefe fffe ffff f6f6 64f6 6464 0505     ...........ddd..
  418bc4:	0605 0606 0404 0404 0404 0404 0404 0404     ................
  418bd4:	0404 0404 0404 0404 0404 0404 0404 0404     ................
  418be4:	0404 0404 0404 0404 0404 0404 0404 0505     ................
  418bf4:	0505 0505 4a4a f94a f9f9 fefe fbfe fbfb     ....JJJ.........
  418c04:	4d4d 024d 0202 0505 0505 0505 0303 0403     MMM.............
  418c14:	0404 0404 0404 0404 0404 0404 0404 0404     ................
  418c24:	0404 0404 0505 6505 6565 fcfc fefc fefe     .......eee......
  418c34:	fefe cefe cece 1b1b 041b 0404 0404 0404     ................
  418c44:	0404 0404 0404 0404 0404 0504 0505 0303     ................
  418c54:	0503 0505 0606 0306 0303 2929 c529 c5c5     ..........)))...
  418c64:	fefe fcfe fcfc aeae 18ae 1818 0c0c 5f0c     ..............._
  418c74:	5f5f a1a1 76a1 7676 3030 0530 0505 0000     __...vvv000.....
  418c84:	0000 0000 0202 0002 0000 0000 0100 0101     ................
  418c94:	0000 0500 0505 2d2d 9d2d 9d9d f3f3 fcf3     ......---.......
  418ca4:	fcfc fefe fcfe fcfc fefe fffe ffff fefe     ................
  418cb4:	fefe fefe fcfc 22fc 2222 0000 0000 0000     ......."""......
  418cc4:	0000 0000 0000 3d3d a33d a3a3 4343 0243     ......===...CCC.
  418cd4:	0202 0101 0001 0000 0000 0000 0000 0000     ................
  418ce4:	0000 0000 0000 1200 1212 7272 da72 dada     ..........rrr...
  418cf4:	fcfc fcfc fcfc fefe fffe ffff ffff ffff     ................
  418d04:	ffff ffff ffff ffff ffff ffff ffff ffff     ................
  418d14:	ffff ffff ffff ffff ffff ffff fdff fdfd     ................
  418d24:	f3f3 9df3 9d9d 2a2a 012a 0101 0202 0002     ......***.......
	...
  418d48:	0f0f 650f 6565 cece fbce fbfb fbfb fefb     ...eee..........
  418d58:	fefe fefe fdfe fdfd fefe fafe fafa f3f3     ................
  418d68:	71f3 7171 0808 0408 0404 0404 0404 0404     .qqq............
  418d78:	0404 0404 0404 0404 0404 0404 0404 0404     ................
  418d88:	0404 0404 0404 0404 0404 0404 0404 2222     ..............""
  418d98:	be22 bebe fefe fbfe fbfb fdfd fefd fefe     "...............
  418da8:	ffff ffff ffff ffff ffff ffff ffff ffff     ................
  418db8:	ffff ffff ffff ffff ffff ffff ffff ffff     ................
  418dc8:	ffff ffff ffff ffff fdff fefe fdff fffd     ................
  418dd8:	fffd feff ffff a6ee cbaf 2e0b 12cf d033     ..............3.
  418de8:	3112 11ca eb31 afa3 fefe fefd fdff ffff     .1..1...........
  418df8:	ffff ffff ffff ffff ffff ffff ffff ffff     ................
  418e08:	fdfd 96fd 9696 0606 1506 1515 0f0f 5a0f     ...............Z
  418e18:	5a5a fafa fefa fefe fefe fefe fefe fdfd     ZZ..............
  418e28:	f2fd f2f2 6565 7965 7979 f8f8 fef8 fefe     ....eeeyyy......
  418e38:	fefe fefe fefe fefe fcfe fcfc fcfc 8bfc     ................
  418e48:	8b8b 0505 1705 1717 1010 6510 6565 fafa     ...........eee..
  418e58:	f9fa f9f9 9d9d 1b9d 1b1b 1a1a 121a 1212     ................
  418e68:	5050 e550 e5e5 fefe ddfe dddd 4646 0e46     PPP.........FFF.
  418e78:	0e0e 0f0f 460f 4646 3b3b d43b d4d4 fdfd     .....FFF;;;.....
  418e88:	66fd 6666 1313 1713 1717 5a5a 305a 3030     .fff......ZZZ000
  418e98:	a4a4 e2a4 e2e2 0a0a b50a b5b5 f8f8 90f8     ................
  418ea8:	9090 0c0c 180c 1818 1111 5d11 5d5d f5f5     ...........]]]..
  418eb8:	f4f5 f4f4 7c7c 0d7c 0d0d 0a0a 3e0a 3e3e     ....|||......>>>
  418ec8:	5959 7459 7474 f7f7 fef7 fefe fdfd fdfd     YYYttt..........
  418ed8:	fdfd ffff ffff ffff ffff ffff ffff ffff     ................
  418ee8:	ffff ffff ffff ffff ffff ffff ffff ffff     ................
  418ef8:	ffff ffff ffff ffff ffff ffff ffff ffff     ................
  418f08:	ffff ffff ffff ffff ffff ffff ffff ffff     ................
  418f18:	ffff ffff ffff ffff ffff ffff ffff ffff     ................
  418f28:	ffff ffff ffff ffff ffff ffff ffff ffff     ................
  418f38:	ffff ffff ffff ffff ffff ffff ffff ffff     ................
  418f48:	ffff ffff ffff ffff ffff ffff ffff ffff     ................
  418f58:	ffff ffff ffff ffff ffff ffff ffff ffff     ................
  418f68:	ffff ffff ffff ffff fefe fefe fefe fafa     ................
  418f78:	fefa fefe efef e2ef e2e2 e2e2 e3e2 e3e3     ................
  418f88:	e3e3 e3e3 e3e3 e3e3 e3e3 e3e3 e3e3 e3e3     ................
  418f98:	e3e3 e3e3 e3e3 e3e3 e3e3 e3e3 e3e3 e3e3     ................
  418fa8:	e3e3 e3e3 e4e4 e2e4 e2e2 e2e2 ebe2 ebeb     ................
  418fb8:	fefe fdfe fdfd ffff ebff ebeb e3e3 e2e3     ................
  418fc8:	e2e2 e3e3 e5e3 e5e5 e3e3 e3e3 e3e3 e3e3     ................
  418fd8:	e3e3 e3e3 e3e3 e3e3 e3e3 e3e3 e4e3 e4e4     ................
  418fe8:	eeee feee fefe fefe fefe fefe fafa e8fa     ................
  418ff8:	e8e8 e3e3 e3e3 e3e3 e3e3 e3e3 e3e3 e3e3     ................
  419008:	e3e3 e3e3 e5e5 e3e5 e3e3 e3e3 e5e3 e5e5     ................
  419018:	e2e2 eae2 eaea fcfc fefc fefe fefe f7fe     ................
  419028:	f7f7 e4e4 e9e4 e9e9 fefe fefe fefe ffff     ................
  419038:	faff fafa dada a3da a3a3 7777 5877 5858     ..........wwwXXX
  419048:	4d4d 4f4d 4f4f 5f5f 825f 8282 c0c0 eec0     MMMOOO___.......
  419058:	eeee fefe fefe fefe fefe fcfe fcfc fefe     ................
  419068:	fefe fefe ffff feff fefe fefe fcfe fcfc     ................
  419078:	2222 0022 0000 0000 0200 0202 0000 4100     """............A
  419088:	4141 e4e4 fee4 fefe cbcb 8acb 8a8a 6464     AA............dd
  419098:	4e64 4e4e 4b4b 5b4b 5b5b 7a7a af7a afaf     dNNNKKK[[[zzz...
  4190a8:	e5e5 fde5 fdfd fefe fdfe fdfd fefe fdfe     ................
  4190b8:	fdfd ffff ffff ffff ffff ffff ffff ffff     ................
  4190c8:	ffff ffff ffff ffff ffff ffff ffff ffff     ................
  4190d8:	ffff ffff ffff fefe fefe fefe fefe f5fe     ................
  4190e8:	f5f5 c4c4 8ec4 8e8e 6767 5367 5353 4b4b     ........gggSSSKK
  4190f8:	504b 5050 5e5e 7c5e 7c7c acac e3ac e3e3     KPPP^^^|||......
  419108:	fcfc fefc fefe fdfd fdfd fdfd fdfd fefd     ................
  419118:	fefe fefe fcfe fcfc fefe fefe fefe f1f1     ................
  419128:	e3f1 e3e3 e3e3 e3e3 e3e3 e3e3 e3e3 e3e3     ................
  419138:	e3e3 e3e3 e3e3 e3e3 e3e3 e3e3 e3e3 e3e3     ................
  419148:	e3e3 e3e3 e3e3 e3e3 e3e3 e4e3 e4e4 fafa     ................
  419158:	fdfa fdfd fefe fefe fefe fdfd fefd fefe     ................
  419168:	ffff ffff ffff ffff ffff ffff ffff ffff     ................
  419178:	ffff ffff ffff ffff ffff ffff ffff ffff     ................
  419188:	ffff ffff ffff fefd fffe fdfd fdff ffff     ................
  419198:	fffe eeff afa6 0bcb cf2e 3312 12d0 ca31     ...........3..1.
  4191a8:	3111 a3eb feaf fdfe fffe fffd ffff ffff     .1..............
  4191b8:	ffff ffff ffff ffff ffff ffff ffff ffff     ................
  4191c8:	fefe ddfe dddd b2b2 cbb2 cbcb f8f8 fef8     ................
  4191d8:	fefe fefe fefe fefe fefe fefe fefe fdfd     ................
  4191e8:	edfd eded ecec feec fefe fdfd fdfd fdfd     ................
  4191f8:	fdfd fdfd fdfd fefe fefe fefe fefe dbfe     ................
  419208:	dbdb b1b1 ceb1 cece f9f9 fef9 fefe fefe     ................
  419218:	fefe fefe e1e1 ade1 adad c0c0 f2c0 f2f2     ................
  419228:	fefe fbfe fbfb fefe edfe eded bcbc c8bc     ................
  419238:	c8c8 c7c7 3bc7 3b3b d2d2 fed2 fefe f2f2     .....;;;........
  419248:	bef2 bebe c9c9 fbc9 fbfb eaea f4ea f4f4     ................
  419258:	fcfc e0fc e0e0 f8f8 fef8 fefe fefe e3fe     ................
  419268:	e3e3 aeae c4ae c4c4 f6f6 fff6 ffff fefe     ................
  419278:	f7fe f7f7 c8c8 bbc8 bbbb fafa effa efef     ................
  419288:	ebeb fdeb fdfd fefe fefe fefe fdfd fefd     ................
  419298:	fefe ffff ffff ffff ffff ffff ffff ffff     ................
  4192a8:	ffff ffff ffff ffff ffff ffff ffff ffff     ................
  4192b8:	ffff ffff ffff ffff ffff ffff ffff ffff     ................
  4192c8:	ffff ffff ffff ffff ffff ffff ffff ffff     ................
  4192d8:	ffff ffff ffff ffff ffff ffff ffff ffff     ................
  4192e8:	ffff ffff ffff ffff ffff ffff ffff ffff     ................
  4192f8:	ffff ffff ffff ffff ffff ffff ffff ffff     ................
  419308:	ffff ffff ffff ffff ffff ffff ffff ffff     ................
  419318:	ffff ffff ffff ffff ffff ffff ffff ffff     ................
  419328:	ffff ffff feff fefe fefe fffe ffff fefe     ................
  419338:	fefe fefe fefe fefe fefe fefe fefe fefe     ................
  419348:	fefe fefe fefe fefe fefe fefe fefe fefe     ................
  419358:	fefe fefe fefe fefe fefe fefe fefe fefe     ................
  419368:	fefe fefe fdfd fdfd fdfd fefe fdfe fdfd     ................
  419378:	fefe fdfe fdfd ffff fdff fdfd fefe fefe     ................
  419388:	fefe fdfd fefd fefe fefe fefe fefe fefe     ................
  419398:	fefe fefe fefe fefe fefe fdfd fefd fefe     ................
  4193a8:	fefe fdfe fdfd fefe fefe fefe fefe fefe     ................
  4193b8:	fefe fefe fefe fefe fefe fefe fefe fefe     ................
  4193c8:	fdfe fdfd ffff feff fefe fdfd fefd fefe     ................
  4193d8:	fefe fefe fefe fefe fcfe fcfc fdfd fefd     ................
  4193e8:	fefe fefe fefe fefe fefe fffe ffff fefe     ................
  4193f8:	fefe fefe fefe fdfe fdfd fefe fbfe fbfb     ................
  419408:	fcfc fefc fefe fefe fefe fefe fefe fefe     ................
  419418:	fefe fdfd fefd fefe fefe fdfe fdfd fefe     ................
  419428:	fffe ffff fefe fefe fefe fcfc 22fc 2222     ............."""
	...
  419440:	0100 0101 4040 e240 e2e2 fefe fffe ffff     ....@@@.........
  419450:	fefe fefe fefe fbfb fbfb fbfb fefe fefe     ................
  419460:	fefe fefe fdfe fdfd ffff feff fefe fefe     ................
  419470:	fefe fefe fefe fffe ffff ffff ffff ffff     ................
  419480:	ffff ffff ffff ffff ffff ffff ffff ffff     ................
  419490:	ffff ffff ffff ffff ffff feff fefe fdfd     ................
  4194a0:	fefd fefe fefe fefe fefe fefe fdfe fdfd     ................
  4194b0:	fdfd fafd fafa fcfc fffc ffff fdfd fdfd     ................
  4194c0:	fdfd fefe fefe fefe fefe fdfe fdfd fefe     ................
  4194d0:	fdfe fdfd fdfd fefd fefe fefe fcfe fcfc     ................
  4194e0:	fdfd fefd fefe fefe fefe fefe fefe fefe     ................
  4194f0:	fefe fefe fefe fefe fefe fefe fefe fefe     ................
  419500:	fefe fefe fefe fefe fefe fefe fefe fefe     ................
  419510:	fefe fefe fefe fefe fefe fefe fefe fffe     ................
  419520:	ffff ffff ffff ffff ffff ffff ffff ffff     ................
  419530:	ffff ffff ffff ffff ffff ffff ffff ffff     ................
  419540:	ffff ffff ffff ffff ffff fdff fefe fdff     ................
  419550:	fffd fffd feff ffff a6ee cbaf 2e0b 12cf     ................
  419560:	d033 3112 11ca eb31 afa3 fefe fefd fdff     3..1..1.........
  419570:	ffff ffff ffff ffff ffff ffff ffff ffff     ................
  419580:	ffff ffff feff fefe fefe fdfe fdfd fdfd     ................
  419590:	fdfd fdfd fdfd fefd fefe fefe fefe fefe     ................
  4195a0:	fdfd fffd ffff fefe fefe fefe fdfd fefd     ................
  4195b0:	fefe fefe fefe fefe fefe fefe fefe ffff     ................
  4195c0:	feff fefe fefe fefe fefe fefe fefe fefe     ................
  4195d0:	fefe fdfe fdfd fdfd fdfd fdfd fdfd fdfd     ................
  4195e0:	fdfd ffff feff fefe fcfc fefc fefe fefe     ................
  4195f0:	fdfe fdfd fdfd cffd cfcf 5656 d956 d9d9     ..........VVV...
  419600:	fefe fdfe fdfd fefe fefe fefe fdfd fefd     ................
  419610:	fefe fefe fdfe fdfd fefe fefe fefe fefe     ................
  419620:	fefe fefe fefe fefe fefe fefe fefe fefe     ................
  419630:	fefe fefe fefe fefe fefe fefe fcfc fefc     ................
  419640:	fefe ffff fcff fcfc fefe fefe fefe fdfd     ................
  419650:	fefd fefe fefe fffe ffff ffff ffff ffff     ................
  419660:	ffff ffff ffff ffff ffff ffff ffff ffff     ................
  419670:	ffff ffff ffff ffff ffff ffff ffff ffff     ................
  419680:	ffff ffff ffff ffff ffff ffff ffff ffff     ................
  419690:	ffff ffff ffff ffff ffff ffff ffff ffff     ................
  4196a0:	ffff ffff ffff ffff ffff ffff ffff ffff     ................
  4196b0:	ffff ffff ffff ffff ffff ffff ffff ffff     ................
  4196c0:	ffff ffff ffff ffff ffff ffff ffff ffff     ................
  4196d0:	ffff ffff ffff ffff ffff ffff ffff ffff     ................
  4196e0:	ffff ffff ffff ffff ffff fefe fefe fefe     ................
  4196f0:	fefe fefe fefe fefe fefe fefe fefe fefe     ................
  419700:	fefe fefe fefe fefe fefe fefe fefe fefe     ................
  419710:	fefe fefe fefe fefe fefe fefe fefe fefe     ................
  419720:	fefe fefe fefe fdfd fefd fefe fefe fefe     ................
  419730:	fefe fdfd fefd fefe fdfd fdfd fdfd fefe     ................
  419740:	fefe fefe fefe fdfe fdfd fefe fefe fefe     ................
  419750:	fefe fefe fefe fefe fefe fefe fefe fefe     ................
  419760:	fefe fdfd fdfd fdfd fdfd fefd fefe fefe     ................
  419770:	fefe fefe fefe fefe fefe fefe fefe fefe     ................
  419780:	fefe fefe fefe fefe fefe fefe fefe fefe     ................
  419790:	fefe ffff feff fefe fefe fffe ffff fdfd     ................
  4197a0:	fdfd fdfd fefe fefe fefe fdfd fefd fefe     ................
  4197b0:	fdfd fefd fefe fefe fdfe fdfd fdfd fefd     ................
  4197c0:	fefe fefe fefe fefe fefe fefe fefe fefe     ................
  4197d0:	fefe fefe fefe fefe fefe fdfd fdfd fdfd     ................
  4197e0:	fefe fefe fefe ffff feff fefe fefe fcfe     ................
  4197f0:	fcfc 2222 0022 0000 0000 0000 0000 0000     .."""...........
  419800:	3f00 3f3f e1e1 fee1 fefe fefe fefe fefe     .???............
  419810:	ffff ffff ffff fefe fdfe fdfd fefe fefe     ................
  419820:	fefe fefe fdfe fdfd fefe fefe fefe fefe     ................
  419830:	fefe fefe ffff ffff ffff ffff ffff ffff     ................
  419840:	ffff ffff ffff ffff ffff ffff ffff ffff     ................
  419850:	ffff ffff ffff ffff ffff feff fefe ffff     ................
  419860:	feff fefe fefe fffe ffff fcfc fefc fefe     ................
  419870:	fdfd fefd fefe ffff feff fefe fefe fefe     ................
  419880:	fefe fefe fefe fefe fefe fdfe fdfd fefe     ................
  419890:	fefe fefe fefe fefe fefe fdfd fefd fefe     ................
  4198a0:	fcfc fefc fefe fefe fefe fefe fefe fefe     ................
  4198b0:	fefe fefe fefe fefe fefe fefe fefe fefe     ................
  4198c0:	fefe fefe fefe fefe fefe fefe fefe fefe     ................
  4198d0:	fdfd fefd fefe fefe fefe fefe fefe fffe     ................
  4198e0:	ffff ffff ffff ffff ffff ffff ffff ffff     ................
  4198f0:	ffff ffff ffff ffff ffff ffff ffff ffff     ................
  419900:	ffff ffff ffff ffff fefd fffe fdfd fdff     ................
  419910:	ffff fffe eeff afa6 0bcb cf2e 3312 12d0     .............3..
  419920:	ca31 3111 a3eb feaf fdfe fffe fffd ffff     1..1............
  419930:	ffff ffff ffff ffff ffff ffff ffff ffff     ................
  419940:	ffff ffff feff fefe fdfd fefd fefe fefe     ................
  419950:	fdfe fdfd fdfd fefd fefe fefe fdfe fdfd     ................
  419960:	fefe fefe fefe fefe fdfe fdfd fefe fefe     ................
  419970:	fefe fdfd fefd fefe fefe fefe fefe fefe     ................
  419980:	fcfe fcfc fefe fdfe fdfd fdfd fdfd fdfd     ................
  419990:	fefe fefe fefe fefe fdfe fdfd fefe fefe     ................
  4199a0:	fefe fefe fefe fefe fefe fdfe fdfd fdfd     ................
  4199b0:	fefd fefe f4f4 d9f4 d9d9 f6f6 fdf6 fdfd     ................
  4199c0:	fefe fefe fefe fdfd fefd fefe fefe fefe     ................
  4199d0:	fefe fdfd fefd fefe fefe fefe fefe ffff     ................
  4199e0:	ffff ffff fefe fdfe fdfd fefe fefe fefe     ................
  4199f0:	fefe fefe fefe fcfc fdfc fdfd fefe fffe     ................
  419a00:	ffff fefe fdfe fdfd fefe fefe fefe fefe     ................
  419a10:	fefe fefe ffff ffff ffff ffff ffff ffff     ................
  419a20:	ffff ffff ffff ffff ffff ffff ffff ffff     ................
  419a30:	ffff ffff ffff ffff ffff ffff ffff ffff     ................
  419a40:	ffff ffff ffff ffff ffff ffff ffff ffff     ................
  419a50:	ffff ffff ffff ffff ffff ffff ffff ffff     ................
  419a60:	ffff ffff ffff ffff ffff ffff ffff ffff     ................
  419a70:	ffff ffff ffff ffff ffff ffff ffff ffff     ................
  419a80:	ffff ffff ffff ffff ffff ffff ffff ffff     ................
  419a90:	ffff ffff ffff ffff ffff ffff ffff ffff     ................
  419aa0:	ffff ffff ffff feff fefe fdfd fdfd fdfd     ................
  419ab0:	fefe fefe fefe fefe fefe fefe ffff ffff     ................
  419ac0:	ffff ffff ffff ffff ffff ffff ffff ffff     ................
  419ad0:	ffff ffff ffff ffff ffff ffff ffff ffff     ................
  419ae0:	fefe fefe fefe fefe fefe fefe fefe fefe     ................
  419af0:	fefe fefe fefe fefe fdfd fffd ffff fefe     ................
  419b00:	fefe fefe fefe fffe ffff ffff ffff ffff     ................
  419b10:	ffff ffff ffff ffff ffff ffff ffff feff     ................
  419b20:	fefe fefe fefe fefe fefe fefe fefe ffff     ................
  419b30:	ffff ffff ffff ffff ffff ffff ffff ffff     ................
  419b40:	ffff feff fefe fefe fefe fefe fdfd fefd     ................
  419b50:	fefe fefe fefe fefe fefe fefe fefe fefe     ................
  419b60:	fffe ffff ffff feff fefe fdfd fefd fefe     ................
  419b70:	fefe fdfe fdfd fdfd fefd fefe fefe fefe     ................
  419b80:	fefe fefe fffe ffff fefe fefe fefe fefe     ................
  419b90:	fdfe fdfd fefe fefe fefe fefe fefe fefe     ................
  419ba0:	fefe fffe ffff fefe fefe fefe fcfc 22fc     ..............."
  419bb0:	2222 0000 0000 0000 0202 0102 0101 4040     ""............@@
  419bc0:	e040 e0e0 fefe fefe fefe fefe fefe fefe     @...............
  419bd0:	fdfd fdfd fdfd fefe fefe fefe fefe fefe     ................
  419be0:	fefe fefe fefe fefe fefe fefe fefe fcfc     ................
  419bf0:	fffc ffff ffff ffff ffff ffff ffff ffff     ................
  419c00:	ffff ffff ffff ffff ffff ffff ffff ffff     ................
  419c10:	ffff ffff ffff ffff ffff ffff ffff fefe     ................
  419c20:	fefe fefe fefe fefe fefe fdfd fefd fefe     ................
  419c30:	fcfc fbfc fbfb ffff fdff fdfd fdfd fefd     ................
  419c40:	fefe fefe fefe fefe fefe fefe fefe fdfd     ................
  419c50:	fefd fefe fefe fefe fefe fefe fefe fefe     ................
  419c60:	ffff ffff ffff ffff ffff ffff ffff ffff     ................
  419c70:	ffff ffff ffff ffff ffff ffff ffff ffff     ................
  419c80:	ffff ffff ffff ffff ffff fefe fefe fefe     ................
  419c90:	fefe fdfe fdfd fefe fefe fefe ffff ffff     ................
  419ca0:	ffff ffff ffff ffff ffff ffff ffff ffff     ................
  419cb0:	ffff ffff ffff ffff ffff ffff ffff ffff     ................
  419cc0:	ffff ffff fdff fefe fdff fffd fffd feff     ................
  419cd0:	ffff a6ee cbaf 2e0b 12cf d033 3112 11ca     ..........3..1..
  419ce0:	eb31 afa3 fefe fefd fdff ffff ffff ffff     1...............
  419cf0:	ffff ffff ffff ffff ffff ffff fefe fefe     ................
  419d00:	fefe fbfb fefb fefe fdfd fefd fefe fefe     ................
  419d10:	fdfe fdfd fcfc fefc fefe fefe fdfe fdfd     ................
  419d20:	fefe fdfe fdfd fefe fefe fefe fefe fefe     ................
  419d30:	fefe fefe fefe fefe fefe fefe fefe fefe     ................
  419d40:	fdfe fdfd fdfd fefd fefe fefe fefe fefe     ................
  419d50:	fefe fffe ffff fefe fcfe fcfc fefe fffe     ................
  419d60:	ffff fcfc fffc ffff fefe fefe fefe fbfb     ................
  419d70:	fefb fefe fefe fdfe fdfd fdfd fefd fefe     ................
  419d80:	fefe fefe fefe fbfb fefb fefe fdfd fdfd     ................
  419d90:	fdfd fcfc fffc ffff fefe fefe fefe fdfd     ................
  419da0:	fefd fefe fdfd fefd fefe fefe fdfe fdfd     ................
  419db0:	fefe fdfe fdfd fdfd fefd fefe fefe fefe     ................
  419dc0:	fefe fefe fefe fefe fefe fefe fefe fefe     ................
  419dd0:	fffe ffff ffff ffff ffff ffff ffff ffff     ................
  419de0:	ffff ffff ffff ffff ffff ffff ffff ffff     ................
  419df0:	ffff ffff ffff ffff ffff ffff ffff ffff     ................
  419e00:	ffff ffff ffff ffff ffff ffff ffff ffff     ................
  419e10:	ffff ffff ffff ffff ffff ffff ffff ffff     ................
  419e20:	ffff ffff ffff ffff ffff ffff ffff ffff     ................
  419e30:	ffff ffff ffff ffff ffff ffff ffff ffff     ................
  419e40:	ffff ffff ffff ffff ffff ffff ffff ffff     ................
  419e50:	ffff ffff ffff ffff ffff ffff ffff ffff     ................
  419e60:	ffff ffff fefe fefe fefe ffff feff fefe     ................
  419e70:	fdfd fefd fefe ffff ffff ffff ffff ffff     ................
  419e80:	ffff ffff ffff ffff ffff ffff ffff ffff     ................
  419e90:	ffff ffff ffff ffff ffff ffff feff fefe     ................
  419ea0:	fefe fefe fefe fefe fefe fefe fefe fefe     ................
  419eb0:	fefe ffff feff fefe fefe fefe fefe fdfd     ................
  419ec0:	fefd fefe ffff ffff ffff ffff ffff ffff     ................
  419ed0:	ffff ffff ffff ffff feff fefe fefe fdfe     ................
  419ee0:	fdfd fefe fffe ffff fefe fefe fefe ffff     ................
  419ef0:	ffff ffff ffff ffff ffff ffff ffff ffff     ................
  419f00:	ffff ffff ffff fefe fefe fefe fefe fefe     ................
  419f10:	fefe ffff feff fefe fefe fefe fefe fefe     ................
  419f20:	fffe ffff ffff ffff ffff fefe fefe fefe     ................
  419f30:	ffff ffff ffff ffff ffff ffff ffff ffff     ................
  419f40:	ffff ffff ffff ffff ffff ffff ffff ffff     ................
  419f50:	ffff ffff fdfd fefd fefe fefe fffe ffff     ................
  419f60:	fefe fefe fefe fefe fbfe fbfb 2222 0022     ............""".
	...
  419f78:	0000 4000 4040 e2e2 fee2 fefe ffff feff     ...@@@..........
  419f88:	fefe fefe fefe fefe ffff feff fefe fdfd     ................
  419f98:	fffd ffff ffff feff fefe fefe fffe ffff     ................
  419fa8:	fefe fffe ffff ffff ffff ffff ffff ffff     ................
  419fb8:	ffff ffff ffff ffff ffff ffff ffff ffff     ................
  419fc8:	ffff ffff ffff ffff ffff fefe fefe fefe     ................
  419fd8:	fefe fefe fefe ffff fdff fdfd ffff feff     ................
  419fe8:	fefe fefe fefe fefe ffff feff fefe fefe     ................
  419ff8:	fffe ffff fefe fefe fefe fdfd fefd fefe     ................
  41a008:	fdfd fffd ffff ffff feff fefe fefe fdfe     ................
  41a018:	fdfd fefe fefe fefe fefe fffe ffff ffff     ................
  41a028:	ffff ffff ffff ffff ffff ffff ffff ffff     ................
  41a038:	ffff ffff ffff ffff ffff ffff ffff feff     ................
  41a048:	fefe fefe fffe ffff ffff fdff fdfd ffff     ................
  41a058:	ffff ffff ffff ffff ffff ffff ffff ffff     ................
  41a068:	ffff ffff ffff ffff ffff ffff ffff ffff     ................
  41a078:	ffff ffff ffff ffff ffff fefd fffe fdfd     ................
  41a088:	fdff fefe fefd eefe aea5 0ccb ce2e 3312     ...............3
  41a098:	12d0 cb31 3110 a3ea feaf fdfe fefe fefd     ..1..1..........
  41a0a8:	ffff fffe ffff fffe feff feff feff fffe     ................
  41a0b8:	fefe feff fcfc fffc ffff fefe fefe fefe     ................
  41a0c8:	fdfd fefd fefe fefe fefe fefe ffff fdff     ................
  41a0d8:	fdfd ffff feff fefe fefe fffe ffff fefe     ................
  41a0e8:	fefe fefe ffff feff fefe ffff ffff ffff     ................
  41a0f8:	fdfd fefd fefe ffff feff fefe fefe fefe     ................
  41a108:	fefe fdfd fefd fefe fdfd fffd ffff fefe     ................
  41a118:	fefe fefe fefe fffe ffff fefe fdfe fdfd     ................
  41a128:	fdfd fffd ffff fefe fefe fefe ffff ffff     ................
  41a138:	ffff fefe fffe ffff fefe fefe fefe fdfd     ................
  41a148:	fefd fefe fefe fffe ffff fefe fefe fefe     ................
  41a158:	ffff ffff ffff fdfd fffd ffff fefe fefe     ................
  41a168:	fefe fefe fefe fefe fdfd fefd fefe fefe     ................
  41a178:	fefe fefe fefe fefe fefe ffff ffff ffff     ................
  41a188:	fefe fefe fefe ffff ffff ffff ffff ffff     ................
  41a198:	ffff ffff ffff ffff ffff ffff ffff ffff     ................
  41a1a8:	ffff ffff ffff ffff ffff ffff ffff ffff     ................
  41a1b8:	ffff ffff ffff ffff ffff ffff ffff ffff     ................
  41a1c8:	ffff ffff ffff ffff ffff ffff ffff ffff     ................
  41a1d8:	ffff ffff ffff ffff ffff ffff ffff ffff     ................
  41a1e8:	ffff ffff ffff ffff ffff ffff ffff ffff     ................
  41a1f8:	ffff ffff ffff ffff ffff ffff ffff ffff     ................
  41a208:	ffff ffff ffff ffff ffff ffff ffff ffff     ................
  41a218:	ffff ffff ffff ffff ffff ffff ffff ffff     ................
  41a228:	ffff ffff ffff ffff ffff ffff ffff ffff     ................
  41a238:	ffff ffff ffff ffff ffff ffff ffff ffff     ................
  41a248:	ffff ffff ffff ffff ffff ffff ffff ffff     ................
  41a258:	ffff ffff ffff ffff ffff ffff ffff ffff     ................
  41a268:	ffff ffff ffff ffff ffff ffff ffff ffff     ................
  41a278:	ffff ffff ffff ffff ffff ffff ffff ffff     ................
  41a288:	ffff ffff ffff ffff ffff ffff ffff ffff     ................
  41a298:	ffff ffff ffff ffff ffff ffff ffff ffff     ................
  41a2a8:	ffff ffff ffff ffff ffff ffff ffff ffff     ................
  41a2b8:	ffff ffff ffff ffff ffff ffff ffff ffff     ................
  41a2c8:	ffff ffff ffff ffff ffff ffff ffff ffff     ................
  41a2d8:	ffff ffff ffff ffff ffff ffff ffff ffff     ................
  41a2e8:	ffff ffff ffff ffff ffff ffff ffff ffff     ................
  41a2f8:	ffff ffff ffff ffff ffff ffff ffff ffff     ................
  41a308:	ffff ffff ffff ffff ffff ffff ffff ffff     ................
  41a318:	ffff ffff feff fefe fdfd fefd fefe fbfb     ................
  41a328:	23fb 2323 0000 0000 0000 0000 0100 0101     .###............
  41a338:	4040 e240 e2e2 fefe fffe ffff ffff ffff     @@@.............
  41a348:	ffff ffff ffff ffff ffff ffff ffff ffff     ................
  41a358:	ffff ffff ffff ffff ffff ffff ffff ffff     ................
  41a368:	ffff ffff ffff ffff ffff ffff ffff ffff     ................
  41a378:	ffff ffff ffff ffff ffff ffff ffff ffff     ................
  41a388:	ffff ffff ffff ffff ffff ffff ffff ffff     ................
  41a398:	ffff ffff ffff ffff ffff ffff ffff ffff     ................
  41a3a8:	ffff ffff ffff ffff ffff ffff ffff ffff     ................
  41a3b8:	ffff ffff ffff ffff ffff ffff ffff ffff     ................
  41a3c8:	ffff ffff ffff ffff ffff ffff ffff ffff     ................
  41a3d8:	ffff ffff ffff ffff ffff ffff ffff ffff     ................
  41a3e8:	ffff ffff ffff ffff ffff ffff ffff ffff     ................
  41a3f8:	ffff ffff ffff ffff ffff ffff ffff ffff     ................
  41a408:	ffff ffff ffff ffff ffff ffff ffff ffff     ................
  41a418:	ffff ffff ffff ffff ffff ffff ffff ffff     ................
  41a428:	ffff ffff ffff ffff ffff ffff ffff ffff     ................
  41a438:	ffff ffff ffff ffff fdfe fcff fefe fefe     ................
  41a448:	fbfe fefe a8ed cdb0 300c 11cf cf32 3114     .........0..2..1
  41a458:	0ecc e830 ada3 fdfd fcfa fefe fdfd feff     ..0.............
  41a468:	fffe fefe fefe fefe fffe fdfe fcff fffd     ................
  41a478:	fffd ffff ffff ffff ffff ffff ffff ffff     ................
  41a488:	ffff ffff ffff ffff ffff ffff ffff ffff     ................
  41a498:	ffff ffff ffff ffff ffff ffff ffff ffff     ................
  41a4a8:	ffff ffff ffff ffff ffff ffff ffff ffff     ................
  41a4b8:	ffff ffff ffff ffff ffff ffff ffff ffff     ................
  41a4c8:	ffff ffff ffff ffff ffff ffff ffff ffff     ................
  41a4d8:	ffff ffff ffff ffff ffff ffff ffff ffff     ................
  41a4e8:	ffff ffff ffff ffff ffff ffff ffff ffff     ................
  41a4f8:	ffff ffff ffff ffff ffff ffff ffff ffff     ................
  41a508:	ffff ffff ffff ffff ffff ffff ffff ffff     ................
  41a518:	ffff ffff ffff ffff ffff ffff ffff ffff     ................
  41a528:	ffff ffff ffff ffff ffff ffff ffff ffff     ................
  41a538:	ffff ffff ffff ffff ffff ffff ffff ffff     ................
  41a548:	ffff ffff ffff ffff ffff ffff ffff ffff     ................
  41a558:	ffff ffff ffff ffff ffff ffff ffff ffff     ................
  41a568:	ffff ffff ffff ffff ffff ffff ffff ffff     ................
  41a578:	ffff ffff ffff ffff ffff ffff ffff ffff     ................
  41a588:	ffff ffff ffff ffff ffff ffff ffff ffff     ................
  41a598:	ffff ffff ffff ffff ffff ffff ffff ffff     ................
  41a5a8:	ffff ffff ffff ffff ffff ffff ffff ffff     ................
  41a5b8:	ffff ffff ffff ffff ffff ffff ffff ffff     ................
  41a5c8:	ffff ffff ffff ffff ffff ffff ffff ffff     ................
  41a5d8:	ffff ffff ffff ffff ffff ffff ffff ffff     ................
  41a5e8:	ffff ffff ffff ffff ffff ffff ffff ffff     ................
  41a5f8:	ffff ffff ffff ffff ffff ffff ffff ffff     ................
  41a608:	ffff ffff ffff ffff ffff ffff ffff ffff     ................
  41a618:	ffff ffff ffff ffff ffff ffff ffff ffff     ................
  41a628:	ffff ffff ffff ffff ffff ffff ffff ffff     ................
  41a638:	ffff ffff ffff ffff ffff ffff ffff ffff     ................
  41a648:	ffff ffff ffff ffff ffff ffff ffff ffff     ................
  41a658:	ffff ffff ffff ffff ffff ffff ffff ffff     ................
  41a668:	ffff ffff ffff ffff ffff ffff ffff ffff     ................
  41a678:	ffff ffff ffff ffff ffff ffff ffff ffff     ................
  41a688:	ffff ffff ffff ffff ffff ffff ffff ffff     ................
  41a698:	ffff ffff ffff ffff ffff ffff ffff ffff     ................
  41a6a8:	ffff ffff ffff ffff ffff ffff ffff ffff     ................
  41a6b8:	ffff ffff ffff ffff ffff ffff ffff ffff     ................
  41a6c8:	ffff ffff ffff ffff ffff ffff ffff ffff     ................
  41a6d8:	ffff fefe fdfe fdfd fcfc fdfc fdfd 2222     ..............""
  41a6e8:	0022 0000 0000 0000 0000 0101 4001 4040     "............@@@
  41a6f8:	e2e2 fee2 fefe fdfd fffd ffff ffff ffff     ................
  41a708:	ffff ffff ffff ffff ffff ffff ffff ffff     ................
  41a718:	ffff ffff ffff ffff ffff ffff ffff ffff     ................
  41a728:	ffff ffff ffff ffff ffff ffff ffff ffff     ................
  41a738:	ffff ffff ffff ffff ffff ffff ffff ffff     ................
  41a748:	ffff ffff ffff ffff ffff ffff ffff ffff     ................
  41a758:	ffff ffff ffff ffff ffff ffff ffff ffff     ................
  41a768:	ffff ffff ffff ffff ffff ffff ffff ffff     ................
  41a778:	ffff ffff ffff ffff ffff ffff ffff ffff     ................
  41a788:	ffff ffff ffff ffff ffff ffff ffff ffff     ................
  41a798:	ffff ffff ffff ffff ffff ffff ffff ffff     ................
  41a7a8:	ffff ffff ffff ffff ffff ffff ffff ffff     ................
  41a7b8:	ffff ffff ffff ffff ffff ffff ffff ffff     ................
  41a7c8:	ffff ffff ffff ffff ffff ffff ffff ffff     ................
  41a7d8:	ffff ffff ffff ffff ffff ffff ffff ffff     ................
  41a7e8:	ffff ffff ffff ffff ffff ffff ffff ffff     ................
  41a7f8:	ffff fdff fefe fffe fefd fefe feff fffc     ................
  41a808:	f1fe bfb8 0dcd cf31 3214 12cd cd2d 3310     ......1..2..-..3
  41a818:	96e9 ffa5 fbfb fefc fefe fefd fefe fdfe     ................
  41a828:	fefe fefd fefe fefe fcff fffd fefd ffff     ................
  41a838:	ffff ffff ffff ffff ffff ffff ffff ffff     ................
  41a848:	ffff ffff ffff ffff ffff ffff ffff ffff     ................
  41a858:	ffff ffff ffff ffff ffff ffff ffff ffff     ................
  41a868:	ffff ffff ffff ffff ffff ffff ffff ffff     ................
  41a878:	ffff ffff ffff ffff ffff ffff ffff ffff     ................
  41a888:	ffff ffff ffff ffff ffff ffff ffff ffff     ................
  41a898:	ffff ffff ffff ffff ffff ffff ffff ffff     ................
  41a8a8:	ffff ffff ffff ffff ffff ffff ffff ffff     ................
  41a8b8:	ffff ffff ffff ffff ffff ffff ffff ffff     ................
  41a8c8:	ffff ffff ffff ffff ffff ffff ffff ffff     ................
  41a8d8:	ffff ffff ffff ffff ffff ffff ffff ffff     ................
  41a8e8:	ffff ffff ffff ffff ffff ffff ffff ffff     ................
  41a8f8:	ffff ffff ffff ffff ffff ffff ffff ffff     ................
  41a908:	ffff ffff ffff ffff ffff ffff ffff ffff     ................
  41a918:	ffff ffff ffff ffff ffff ffff ffff ffff     ................
  41a928:	ffff ffff ffff ffff ffff ffff ffff ffff     ................
  41a938:	ffff ffff ffff ffff ffff ffff ffff ffff     ................
  41a948:	ffff ffff ffff ffff ffff ffff ffff ffff     ................
  41a958:	ffff ffff ffff ffff ffff ffff ffff ffff     ................
  41a968:	ffff ffff ffff ffff ffff ffff ffff ffff     ................
  41a978:	ffff ffff ffff ffff ffff ffff ffff ffff     ................
  41a988:	ffff ffff ffff ffff ffff ffff ffff ffff     ................
  41a998:	ffff ffff ffff ffff ffff ffff ffff ffff     ................
  41a9a8:	ffff ffff ffff ffff ffff ffff ffff ffff     ................
  41a9b8:	ffff ffff ffff ffff ffff ffff ffff ffff     ................
  41a9c8:	ffff ffff ffff ffff ffff ffff ffff ffff     ................
  41a9d8:	ffff ffff ffff ffff ffff ffff ffff ffff     ................
  41a9e8:	ffff ffff ffff ffff ffff ffff ffff ffff     ................
  41a9f8:	ffff ffff ffff ffff ffff ffff ffff ffff     ................
  41aa08:	ffff ffff ffff ffff ffff ffff ffff ffff     ................
  41aa18:	ffff ffff ffff ffff ffff ffff ffff ffff     ................
  41aa28:	ffff ffff ffff ffff ffff ffff ffff ffff     ................
  41aa38:	ffff ffff ffff ffff ffff ffff ffff ffff     ................
  41aa48:	ffff ffff ffff ffff ffff ffff ffff ffff     ................
  41aa58:	ffff ffff ffff ffff ffff ffff ffff ffff     ................
  41aa68:	ffff ffff ffff ffff ffff ffff ffff ffff     ................
  41aa78:	ffff ffff ffff ffff ffff ffff ffff ffff     ................
  41aa88:	ffff ffff ffff ffff ffff ffff ffff feff     ................
  41aa98:	fefe fefe fefe fefe fefe 22fe 2222 0000     ..........."""..
	...
  41aab0:	0000 4040 e340 e3e3 fefe fefe fefe ffff     ..@@@...........
  41aac0:	ffff ffff ffff ffff ffff ffff ffff ffff     ................
  41aad0:	ffff ffff ffff ffff ffff ffff ffff ffff     ................
  41aae0:	ffff ffff ffff ffff ffff ffff ffff ffff     ................
  41aaf0:	ffff ffff ffff ffff ffff ffff ffff ffff     ................
  41ab00:	ffff ffff ffff ffff ffff ffff ffff ffff     ................
  41ab10:	ffff ffff ffff ffff ffff ffff ffff ffff     ................
  41ab20:	ffff ffff ffff ffff ffff ffff ffff ffff     ................
  41ab30:	ffff ffff ffff ffff ffff ffff ffff ffff     ................
  41ab40:	ffff ffff ffff ffff ffff ffff ffff ffff     ................
  41ab50:	ffff ffff ffff ffff ffff ffff ffff ffff     ................
  41ab60:	ffff ffff ffff ffff ffff ffff ffff ffff     ................
  41ab70:	ffff ffff ffff ffff ffff ffff ffff ffff     ................
  41ab80:	ffff ffff ffff ffff ffff ffff ffff ffff     ................
  41ab90:	ffff ffff ffff ffff ffff ffff ffff ffff     ................
  41aba0:	ffff ffff ffff ffff ffff ffff ffff ffff     ................
  41abb0:	ffff ffff ffff ffff fefd fefe fdfe fdfd     ................
  41abc0:	fefd fdfd fefe cff7 cfd3 3b19 14cd cc2f     ...........;../.
  41abd0:	2e10 10c8 e431 9584 fefe fbfc fffe fefe     ....1...........
  41abe0:	fefe fefe fffd fdfe ffff feff fffe fefe     ................
  41abf0:	feff fffe ffff ffff ffff ffff ffff ffff     ................
  41ac00:	ffff ffff ffff ffff ffff ffff ffff ffff     ................
  41ac10:	ffff ffff ffff ffff ffff ffff ffff ffff     ................
  41ac20:	ffff ffff ffff ffff ffff ffff ffff ffff     ................
  41ac30:	ffff ffff ffff ffff ffff ffff ffff ffff     ................
  41ac40:	ffff ffff ffff ffff ffff ffff ffff ffff     ................
  41ac50:	ffff ffff ffff ffff ffff ffff ffff ffff     ................
  41ac60:	ffff ffff ffff ffff ffff ffff ffff ffff     ................
  41ac70:	ffff ffff ffff ffff ffff ffff ffff ffff     ................
  41ac80:	ffff ffff ffff ffff ffff ffff ffff ffff     ................
  41ac90:	ffff ffff ffff ffff ffff ffff ffff ffff     ................
  41aca0:	ffff ffff ffff ffff ffff ffff ffff ffff     ................
  41acb0:	ffff ffff ffff ffff ffff ffff ffff ffff     ................
  41acc0:	ffff ffff ffff ffff ffff ffff ffff ffff     ................
  41acd0:	ffff ffff ffff ffff ffff ffff ffff ffff     ................
  41ace0:	ffff ffff ffff ffff ffff ffff ffff ffff     ................
  41acf0:	ffff ffff ffff ffff ffff ffff ffff ffff     ................
  41ad00:	ffff ffff ffff ffff ffff ffff ffff ffff     ................
  41ad10:	ffff ffff ffff ffff ffff ffff ffff ffff     ................
  41ad20:	ffff ffff ffff ffff ffff ffff ffff ffff     ................
  41ad30:	ffff ffff ffff ffff ffff ffff ffff ffff     ................
  41ad40:	ffff ffff ffff ffff ffff ffff ffff ffff     ................
  41ad50:	ffff ffff ffff ffff ffff ffff ffff ffff     ................
  41ad60:	ffff ffff ffff ffff ffff ffff ffff ffff     ................
  41ad70:	ffff ffff ffff ffff ffff ffff ffff ffff     ................
  41ad80:	ffff ffff ffff ffff ffff ffff ffff ffff     ................
  41ad90:	ffff ffff ffff ffff ffff ffff ffff ffff     ................
  41ada0:	ffff ffff ffff ffff ffff ffff ffff ffff     ................
  41adb0:	ffff ffff ffff ffff ffff ffff ffff ffff     ................
  41adc0:	ffff ffff ffff ffff ffff ffff ffff ffff     ................
  41add0:	ffff ffff ffff ffff ffff ffff ffff ffff     ................
  41ade0:	ffff ffff ffff ffff ffff ffff ffff ffff     ................
  41adf0:	ffff ffff ffff ffff ffff ffff ffff ffff     ................
  41ae00:	ffff ffff ffff ffff ffff ffff ffff ffff     ................
  41ae10:	ffff ffff ffff ffff ffff ffff ffff ffff     ................
  41ae20:	ffff ffff ffff ffff ffff ffff ffff ffff     ................
  41ae30:	ffff ffff ffff ffff ffff ffff ffff ffff     ................
  41ae40:	ffff ffff ffff ffff ffff ffff ffff ffff     ................
  41ae50:	ffff ffff fefe fdfe fdfd fefe f8fe f8f8     ................
  41ae60:	2222 0022 0000 0000 0000 0000 0000 3d00     """............=
  41ae70:	3d3d dfdf fedf fefe fefe fffe ffff ffff     ==..............
  41ae80:	ffff ffff ffff ffff ffff ffff ffff ffff     ................
  41ae90:	ffff ffff ffff ffff ffff ffff ffff ffff     ................
  41aea0:	ffff ffff ffff ffff ffff ffff ffff ffff     ................
  41aeb0:	ffff ffff ffff ffff ffff ffff ffff ffff     ................
  41aec0:	ffff ffff ffff ffff ffff ffff ffff ffff     ................
  41aed0:	ffff ffff ffff ffff ffff ffff ffff ffff     ................
  41aee0:	ffff ffff ffff ffff ffff ffff ffff ffff     ................
  41aef0:	ffff ffff ffff ffff ffff ffff ffff ffff     ................
  41af00:	ffff ffff ffff ffff ffff ffff ffff ffff     ................
  41af10:	ffff ffff ffff ffff ffff ffff ffff ffff     ................
  41af20:	ffff ffff ffff ffff ffff ffff ffff ffff     ................
  41af30:	ffff ffff ffff ffff ffff ffff ffff ffff     ................
  41af40:	ffff ffff ffff ffff ffff ffff ffff ffff     ................
  41af50:	ffff ffff ffff ffff ffff ffff ffff ffff     ................
  41af60:	ffff ffff ffff ffff ffff ffff ffff ffff     ................
  41af70:	ffff ffff feff feff fffe fefd fcfe fefd     ................
  41af80:	fdfe f9ff e6e5 37d0 cd51 2a0d 17d1 c834     .......7Q..*..4.
  41af90:	3111 5dd7 fc71 eaee fcfb fefd fefd fefe     .1.]q...........
  41afa0:	fefe fefd fefe fcfe fffe fef9 fcfe fefe     ................
  41afb0:	ffff ffff ffff ffff ffff ffff ffff ffff     ................
  41afc0:	ffff ffff ffff ffff ffff ffff ffff ffff     ................
  41afd0:	ffff ffff ffff ffff ffff ffff ffff ffff     ................
  41afe0:	ffff ffff ffff ffff ffff ffff ffff ffff     ................
  41aff0:	ffff ffff ffff ffff ffff ffff ffff ffff     ................
  41b000:	ffff ffff ffff ffff ffff ffff ffff ffff     ................
  41b010:	ffff ffff ffff ffff ffff ffff ffff ffff     ................
  41b020:	ffff ffff ffff ffff ffff ffff ffff ffff     ................
  41b030:	ffff ffff ffff ffff ffff ffff ffff ffff     ................
  41b040:	ffff ffff ffff ffff ffff ffff ffff ffff     ................
  41b050:	ffff ffff ffff ffff ffff ffff ffff ffff     ................
  41b060:	ffff ffff ffff ffff ffff ffff ffff ffff     ................
  41b070:	ffff ffff ffff ffff ffff ffff ffff ffff     ................
  41b080:	ffff ffff ffff ffff ffff ffff ffff ffff     ................
  41b090:	ffff ffff ffff ffff ffff ffff ffff ffff     ................
  41b0a0:	ffff ffff ffff ffff ffff ffff ffff ffff     ................
  41b0b0:	ffff ffff ffff ffff ffff ffff ffff ffff     ................
  41b0c0:	ffff ffff ffff ffff ffff ffff ffff ffff     ................
  41b0d0:	ffff ffff ffff ffff ffff ffff ffff ffff     ................
  41b0e0:	ffff ffff ffff ffff ffff ffff ffff ffff     ................
  41b0f0:	ffff ffff ffff ffff ffff ffff ffff ffff     ................
  41b100:	ffff ffff ffff ffff ffff ffff ffff ffff     ................
  41b110:	ffff ffff ffff ffff ffff ffff ffff ffff     ................
  41b120:	ffff ffff ffff ffff ffff ffff ffff ffff     ................
  41b130:	ffff ffff ffff ffff ffff ffff ffff ffff     ................
  41b140:	ffff ffff ffff ffff ffff ffff ffff ffff     ................
  41b150:	ffff ffff ffff ffff ffff ffff ffff ffff     ................
  41b160:	ffff ffff ffff ffff ffff ffff ffff ffff     ................
  41b170:	ffff ffff ffff ffff ffff ffff ffff ffff     ................
  41b180:	ffff ffff ffff ffff ffff ffff ffff ffff     ................
  41b190:	ffff ffff ffff ffff ffff ffff ffff ffff     ................
  41b1a0:	ffff ffff ffff ffff ffff ffff ffff ffff     ................
  41b1b0:	ffff ffff ffff ffff ffff ffff ffff ffff     ................
  41b1c0:	ffff ffff ffff ffff ffff ffff ffff ffff     ................
  41b1d0:	ffff ffff ffff ffff ffff ffff ffff ffff     ................
  41b1e0:	ffff ffff ffff ffff ffff ffff ffff ffff     ................
  41b1f0:	ffff ffff ffff ffff ffff ffff ffff ffff     ................
  41b200:	ffff ffff ffff ffff ffff ffff ffff ffff     ................
  41b210:	fdff fdfd fefe fefe fefe e7e7 0de7 0d0d     ................
  41b220:	0000 0000 0000 0101 0001 0000 2f2f ca2f     ............///.
  41b230:	caca fdfd fefd fefe ffff ffff ffff ffff     ................
  41b240:	ffff ffff ffff ffff ffff ffff ffff ffff     ................
  41b250:	ffff ffff ffff ffff ffff ffff ffff ffff     ................
  41b260:	ffff ffff ffff ffff ffff ffff ffff ffff     ................
  41b270:	ffff ffff ffff ffff ffff ffff ffff ffff     ................
  41b280:	ffff ffff ffff ffff ffff ffff ffff ffff     ................
  41b290:	ffff ffff ffff ffff ffff ffff ffff ffff     ................
  41b2a0:	ffff ffff ffff ffff ffff ffff ffff ffff     ................
  41b2b0:	ffff ffff ffff ffff ffff ffff ffff ffff     ................
  41b2c0:	ffff ffff ffff ffff ffff ffff ffff ffff     ................
  41b2d0:	ffff ffff ffff ffff ffff ffff ffff ffff     ................
  41b2e0:	ffff ffff ffff ffff ffff ffff ffff ffff     ................
  41b2f0:	ffff ffff ffff ffff ffff ffff ffff ffff     ................
  41b300:	ffff ffff ffff ffff ffff ffff ffff ffff     ................
  41b310:	ffff ffff ffff ffff ffff ffff ffff ffff     ................
  41b320:	ffff ffff ffff ffff ffff ffff ffff ffff     ................
  41b330:	feff fefe fefe fefe fdfe fefe fefe fffd     ................
  41b340:	f4fb e0f3 7e6c 0dcf d22f 3210 10cf d232     ....l~../..2..2.
  41b350:	4526 a4ee fbad f4f6 fbfd fefc fefd fdfd     &E..............
  41b360:	fefd fefd fdff feff fefc fdfe fffe ffff     ................
  41b370:	ffff ffff ffff ffff ffff ffff ffff ffff     ................
  41b380:	ffff ffff ffff ffff ffff ffff ffff ffff     ................
  41b390:	ffff ffff ffff ffff ffff ffff ffff ffff     ................
  41b3a0:	ffff ffff ffff ffff ffff ffff ffff ffff     ................
  41b3b0:	ffff ffff ffff ffff ffff ffff ffff ffff     ................
  41b3c0:	ffff ffff ffff ffff ffff ffff ffff ffff     ................
  41b3d0:	ffff ffff ffff ffff ffff ffff ffff ffff     ................
  41b3e0:	ffff ffff ffff ffff ffff ffff ffff ffff     ................
  41b3f0:	ffff ffff ffff ffff ffff ffff ffff ffff     ................
  41b400:	ffff ffff ffff ffff ffff ffff ffff ffff     ................
  41b410:	ffff ffff ffff ffff ffff ffff ffff ffff     ................
  41b420:	ffff ffff ffff ffff ffff ffff ffff ffff     ................
  41b430:	ffff ffff ffff ffff ffff ffff ffff ffff     ................
  41b440:	ffff ffff ffff ffff ffff ffff ffff ffff     ................
  41b450:	ffff ffff ffff ffff ffff ffff ffff ffff     ................
  41b460:	ffff ffff ffff ffff ffff ffff ffff ffff     ................
  41b470:	ffff ffff ffff ffff ffff ffff ffff ffff     ................
  41b480:	ffff ffff ffff ffff ffff ffff ffff ffff     ................
  41b490:	ffff ffff ffff ffff ffff ffff ffff ffff     ................
  41b4a0:	ffff ffff ffff ffff ffff ffff ffff ffff     ................
  41b4b0:	ffff ffff ffff ffff ffff ffff ffff ffff     ................
  41b4c0:	ffff ffff ffff ffff ffff ffff ffff ffff     ................
  41b4d0:	ffff ffff ffff ffff ffff ffff ffff ffff     ................
  41b4e0:	ffff ffff ffff ffff ffff ffff ffff ffff     ................
  41b4f0:	ffff ffff ffff ffff ffff ffff ffff ffff     ................
  41b500:	ffff ffff ffff ffff ffff ffff ffff ffff     ................
  41b510:	ffff ffff ffff ffff ffff ffff ffff ffff     ................
  41b520:	ffff ffff ffff ffff ffff ffff ffff ffff     ................
  41b530:	ffff ffff ffff ffff ffff ffff ffff ffff     ................
  41b540:	ffff ffff ffff ffff ffff ffff ffff ffff     ................
  41b550:	ffff ffff ffff ffff ffff ffff ffff ffff     ................
  41b560:	ffff ffff ffff ffff ffff ffff ffff ffff     ................
  41b570:	ffff ffff ffff ffff ffff ffff ffff ffff     ................
  41b580:	ffff ffff ffff ffff ffff ffff ffff ffff     ................
  41b590:	ffff ffff ffff ffff ffff ffff ffff ffff     ................
  41b5a0:	ffff ffff ffff ffff ffff ffff ffff ffff     ................
  41b5b0:	ffff ffff ffff ffff ffff ffff ffff ffff     ................
  41b5c0:	ffff ffff ffff ffff ffff ffff ffff fefe     ................
  41b5d0:	fdfe fdfd fdfd 94fd 9494 0000 0000 0000     ................
	...
  41b5e8:	0d00 0d0d 9090 f790 f7f7 fefe fffe ffff     ................
  41b5f8:	ffff ffff ffff ffff ffff ffff ffff ffff     ................
  41b608:	ffff ffff ffff ffff ffff ffff ffff ffff     ................
  41b618:	ffff ffff ffff ffff ffff ffff ffff ffff     ................
  41b628:	ffff ffff ffff ffff ffff ffff ffff ffff     ................
  41b638:	ffff ffff ffff ffff ffff ffff ffff ffff     ................
  41b648:	ffff ffff ffff ffff ffff ffff ffff ffff     ................
  41b658:	ffff ffff ffff ffff ffff ffff ffff ffff     ................
  41b668:	ffff ffff ffff ffff ffff ffff ffff ffff     ................
  41b678:	ffff ffff ffff ffff ffff ffff ffff ffff     ................
  41b688:	ffff ffff ffff ffff ffff ffff ffff ffff     ................
  41b698:	ffff ffff ffff ffff ffff ffff ffff ffff     ................
  41b6a8:	ffff ffff ffff ffff ffff ffff ffff ffff     ................
  41b6b8:	ffff ffff ffff ffff ffff ffff ffff ffff     ................
  41b6c8:	ffff ffff ffff ffff ffff ffff ffff ffff     ................
  41b6d8:	ffff ffff ffff ffff ffff ffff ffff ffff     ................
  41b6e8:	ffff ffff ffff fefe fefe fefe fdfd fffc     ................
  41b6f8:	fcfd fafd faff fbfd b2f0 cdb5 3e22 12cf     ............">..
  41b708:	d335 3210 12cb d331 4d2c 83e3 e997 cfc5     5..2..1.,M......
  41b718:	e2f8 fee9 fbfa fffa f9ff fdfe fdfd ffff     ................
  41b728:	fffe ffff ffff ffff ffff ffff ffff ffff     ................
  41b738:	ffff ffff ffff ffff ffff ffff ffff ffff     ................
  41b748:	ffff ffff ffff ffff ffff ffff ffff ffff     ................
  41b758:	ffff ffff ffff ffff ffff ffff ffff ffff     ................
  41b768:	ffff ffff ffff ffff ffff ffff ffff ffff     ................
  41b778:	ffff ffff ffff ffff ffff ffff ffff ffff     ................
  41b788:	ffff ffff ffff ffff ffff ffff ffff ffff     ................
  41b798:	ffff ffff ffff ffff ffff ffff ffff ffff     ................
  41b7a8:	ffff ffff ffff ffff ffff ffff ffff ffff     ................
  41b7b8:	ffff ffff ffff ffff ffff ffff ffff ffff     ................
  41b7c8:	ffff ffff ffff ffff ffff ffff ffff ffff     ................
  41b7d8:	ffff ffff ffff ffff ffff ffff ffff ffff     ................
  41b7e8:	ffff ffff ffff ffff ffff ffff ffff ffff     ................
  41b7f8:	ffff ffff ffff ffff ffff ffff ffff ffff     ................
  41b808:	ffff ffff ffff ffff ffff ffff ffff ffff     ................
  41b818:	ffff ffff ffff ffff ffff ffff ffff ffff     ................
  41b828:	ffff ffff ffff ffff ffff ffff ffff ffff     ................
  41b838:	ffff ffff ffff ffff ffff ffff ffff ffff     ................
  41b848:	ffff ffff ffff ffff ffff ffff ffff ffff     ................
  41b858:	ffff ffff ffff ffff ffff ffff ffff ffff     ................
  41b868:	ffff ffff ffff ffff ffff ffff ffff ffff     ................
  41b878:	ffff ffff ffff ffff ffff ffff ffff ffff     ................
  41b888:	ffff ffff ffff ffff ffff ffff ffff ffff     ................
  41b898:	ffff ffff ffff ffff ffff ffff ffff ffff     ................
  41b8a8:	ffff ffff ffff ffff ffff ffff ffff ffff     ................
  41b8b8:	ffff ffff ffff ffff ffff ffff ffff ffff     ................
  41b8c8:	ffff ffff ffff ffff ffff ffff ffff ffff     ................
  41b8d8:	ffff ffff ffff ffff ffff ffff ffff ffff     ................
  41b8e8:	ffff ffff ffff ffff ffff ffff ffff ffff     ................
  41b8f8:	ffff ffff ffff ffff ffff ffff ffff ffff     ................
  41b908:	ffff ffff ffff ffff ffff ffff ffff ffff     ................
  41b918:	ffff ffff ffff ffff ffff ffff ffff ffff     ................
  41b928:	ffff ffff ffff ffff ffff ffff ffff ffff     ................
  41b938:	ffff ffff ffff ffff ffff ffff ffff ffff     ................
  41b948:	ffff ffff ffff ffff ffff ffff ffff ffff     ................
  41b958:	ffff ffff ffff ffff ffff ffff ffff ffff     ................
  41b968:	ffff ffff ffff ffff ffff ffff ffff ffff     ................
  41b978:	fdff fdfd fefe fffe ffff fefe fefe fefe     ................
  41b988:	ffff feff fefe f7f7 a5f7 a5a5 1c1c 001c     ................
  41b998:	0000 0101 0001 0000 0202 0002 0000 0000     ................
  41b9a8:	1500 1515 8383 ec83 ecec fefe fdfe fdfd     ................
  41b9b8:	fefe fcfe fcfc fefe fefe fefe ffff ffff     ................
  41b9c8:	ffff ffff ffff ffff ffff ffff ffff ffff     ................
  41b9d8:	ffff ffff ffff ffff ffff ffff ffff ffff     ................
  41b9e8:	ffff ffff ffff ffff ffff ffff ffff ffff     ................
  41b9f8:	ffff ffff ffff ffff ffff ffff ffff ffff     ................
  41ba08:	ffff ffff ffff ffff ffff ffff ffff ffff     ................
  41ba18:	ffff ffff ffff ffff ffff ffff ffff ffff     ................
  41ba28:	ffff ffff ffff ffff ffff ffff ffff ffff     ................
  41ba38:	ffff ffff ffff ffff ffff ffff ffff ffff     ................
  41ba48:	ffff ffff ffff ffff ffff ffff ffff ffff     ................
  41ba58:	ffff ffff ffff ffff ffff ffff ffff ffff     ................
  41ba68:	ffff ffff ffff ffff ffff ffff ffff ffff     ................
  41ba78:	ffff ffff ffff ffff ffff ffff ffff ffff     ................
  41ba88:	ffff ffff ffff ffff ffff ffff ffff ffff     ................
  41ba98:	ffff ffff ffff ffff ffff ffff ffff ffff     ................
  41baa8:	ffff feff fefe fffe fefe fefe feff fefe     ................
  41bab8:	fffe fefe fcfe f1f3 73dc c488 2e07 16d2     .........s......
  41bac8:	d033 2f16 12d1 c732 300a 0bcd d62c 5a3d     3../..2..0..,.=Z
  41bad8:	d6f6 fcd8 feff fefb fefe fdfd ffff fffe     ................
  41bae8:	ffff ffff ffff ffff ffff ffff ffff ffff     ................
  41baf8:	ffff ffff ffff ffff ffff ffff ffff ffff     ................
  41bb08:	ffff ffff ffff ffff ffff ffff ffff ffff     ................
  41bb18:	ffff ffff ffff ffff ffff ffff ffff ffff     ................
  41bb28:	ffff ffff ffff ffff ffff ffff ffff ffff     ................
  41bb38:	ffff ffff ffff ffff ffff ffff ffff ffff     ................
  41bb48:	ffff ffff ffff ffff ffff ffff ffff ffff     ................
  41bb58:	ffff ffff ffff ffff ffff ffff ffff ffff     ................
  41bb68:	ffff ffff ffff ffff ffff ffff ffff ffff     ................
  41bb78:	ffff ffff ffff ffff ffff ffff ffff ffff     ................
  41bb88:	ffff ffff ffff ffff ffff ffff ffff ffff     ................
  41bb98:	ffff ffff ffff ffff ffff ffff ffff ffff     ................
  41bba8:	ffff ffff ffff ffff ffff ffff ffff ffff     ................
  41bbb8:	ffff ffff ffff ffff ffff ffff ffff ffff     ................
  41bbc8:	ffff ffff ffff ffff ffff ffff ffff ffff     ................
  41bbd8:	ffff ffff ffff ffff ffff ffff ffff ffff     ................
  41bbe8:	ffff ffff ffff ffff ffff ffff ffff ffff     ................
  41bbf8:	ffff ffff ffff ffff ffff ffff ffff ffff     ................
  41bc08:	ffff ffff ffff ffff ffff ffff ffff ffff     ................
  41bc18:	ffff ffff ffff ffff ffff ffff ffff ffff     ................
  41bc28:	ffff ffff ffff ffff ffff ffff ffff ffff     ................
  41bc38:	ffff ffff ffff ffff ffff ffff ffff ffff     ................
  41bc48:	ffff ffff ffff ffff ffff ffff ffff ffff     ................
  41bc58:	ffff ffff ffff ffff ffff ffff ffff ffff     ................
  41bc68:	ffff ffff ffff ffff ffff ffff ffff ffff     ................
  41bc78:	ffff ffff ffff ffff ffff ffff ffff ffff     ................
  41bc88:	ffff ffff ffff ffff ffff ffff ffff ffff     ................
  41bc98:	ffff ffff ffff ffff ffff ffff ffff ffff     ................
  41bca8:	ffff ffff ffff ffff ffff ffff ffff ffff     ................
  41bcb8:	ffff ffff ffff ffff ffff ffff ffff ffff     ................
  41bcc8:	ffff ffff ffff ffff ffff ffff ffff ffff     ................
  41bcd8:	ffff ffff ffff ffff ffff ffff ffff ffff     ................
  41bce8:	ffff ffff ffff ffff ffff ffff ffff ffff     ................
  41bcf8:	ffff ffff ffff ffff ffff ffff ffff ffff     ................
  41bd08:	ffff ffff ffff ffff ffff ffff ffff ffff     ................
  41bd18:	ffff ffff ffff ffff ffff ffff ffff ffff     ................
  41bd28:	ffff ffff ffff ffff ffff feff fefe fdfd     ................
  41bd38:	fefd fefe fefe fefe fefe fefe ecfe ecec     ................
  41bd48:	5b5b 2e5b 2e2e 0808 0008 0000 0000 0000     [[[.............
	...
  41bd64:	0000 0101 0501 0505 1010 3b10 3b3b 5757     ...........;;;WW
  41bd74:	b857 b8b8 fefe fdfe fdfd fefe fefe fefe     W...............
  41bd84:	ffff ffff ffff ffff ffff ffff ffff ffff     ................
  41bd94:	ffff ffff ffff ffff ffff ffff ffff ffff     ................
  41bda4:	ffff ffff ffff ffff ffff ffff ffff ffff     ................
  41bdb4:	ffff ffff ffff ffff ffff ffff ffff ffff     ................
  41bdc4:	ffff ffff ffff ffff ffff ffff ffff ffff     ................
  41bdd4:	ffff ffff ffff ffff ffff ffff ffff ffff     ................
  41bde4:	ffff ffff ffff ffff ffff ffff ffff ffff     ................
  41bdf4:	ffff ffff ffff ffff ffff ffff ffff ffff     ................
  41be04:	ffff ffff ffff ffff ffff ffff ffff ffff     ................
  41be14:	ffff ffff ffff ffff ffff ffff ffff ffff     ................
  41be24:	ffff ffff ffff ffff ffff ffff ffff ffff     ................
  41be34:	ffff ffff ffff ffff ffff ffff ffff ffff     ................
  41be44:	ffff ffff ffff ffff ffff ffff ffff ffff     ................
  41be54:	ffff ffff ffff ffff ffff ffff ffff ffff     ................
  41be64:	ffff ffff ffff ffff ffff ffff ffff ffff     ................
  41be74:	ffff ffff ffff feff f8fd e5e6 61da cf78     .............ax.
  41be84:	320f 0fd1 d02f 2d0e 13d0 d333 2c11 30d4     .2../..-..3..,.0
  41be94:	f34b cecf fdfe fefc fffd fefe feff ffff     K...............
  41bea4:	ffff ffff ffff ffff ffff ffff ffff ffff     ................
  41beb4:	ffff ffff ffff ffff ffff ffff ffff ffff     ................
  41bec4:	ffff ffff ffff ffff ffff ffff ffff ffff     ................
  41bed4:	ffff ffff ffff ffff ffff ffff ffff ffff     ................
  41bee4:	ffff ffff ffff ffff ffff ffff ffff ffff     ................
  41bef4:	ffff ffff ffff ffff ffff ffff ffff ffff     ................
  41bf04:	ffff ffff ffff ffff ffff ffff ffff ffff     ................
  41bf14:	ffff ffff ffff ffff ffff ffff ffff ffff     ................
  41bf24:	ffff ffff ffff ffff ffff ffff ffff ffff     ................
  41bf34:	ffff ffff ffff ffff ffff ffff ffff ffff     ................
  41bf44:	ffff ffff ffff ffff ffff ffff ffff ffff     ................
  41bf54:	ffff ffff ffff ffff ffff ffff ffff ffff     ................
  41bf64:	ffff ffff ffff ffff ffff ffff ffff ffff     ................
  41bf74:	ffff ffff ffff ffff ffff ffff ffff ffff     ................
  41bf84:	ffff ffff ffff ffff ffff ffff ffff ffff     ................
  41bf94:	ffff ffff ffff ffff ffff ffff ffff ffff     ................
  41bfa4:	ffff ffff ffff ffff ffff ffff ffff ffff     ................
  41bfb4:	ffff ffff ffff ffff ffff ffff ffff ffff     ................
  41bfc4:	ffff ffff ffff ffff ffff ffff ffff ffff     ................
  41bfd4:	ffff ffff ffff ffff ffff ffff ffff ffff     ................
  41bfe4:	ffff ffff ffff ffff ffff ffff ffff ffff     ................
  41bff4:	ffff ffff ffff ffff ffff ffff ffff ffff     ................
  41c004:	ffff ffff ffff ffff ffff ffff ffff ffff     ................
  41c014:	ffff ffff ffff ffff ffff ffff ffff ffff     ................
  41c024:	ffff ffff ffff ffff ffff ffff ffff ffff     ................
  41c034:	ffff ffff ffff ffff ffff ffff ffff ffff     ................
  41c044:	ffff ffff ffff ffff ffff ffff ffff ffff     ................
  41c054:	ffff ffff ffff ffff ffff ffff ffff ffff     ................
  41c064:	ffff ffff ffff ffff ffff ffff ffff ffff     ................
  41c074:	ffff ffff ffff ffff ffff ffff ffff ffff     ................
  41c084:	ffff ffff ffff ffff ffff ffff ffff ffff     ................
  41c094:	ffff ffff ffff ffff ffff ffff ffff ffff     ................
  41c0a4:	ffff ffff ffff ffff ffff ffff ffff ffff     ................
  41c0b4:	ffff ffff ffff ffff ffff ffff ffff ffff     ................
  41c0c4:	ffff ffff ffff ffff ffff ffff ffff ffff     ................
  41c0d4:	ffff ffff ffff ffff ffff ffff ffff ffff     ................
  41c0e4:	ffff ffff ffff ffff ffff ffff fefe fefe     ................
  41c0f4:	fefe fdfd fefd fefe fefe fdfe fdfd d9d9     ................
  41c104:	00d9 0000 0101 0001 0000 0101 0001 0000     ................
  41c114:	0101 0001 0000 0000 0100 0101 0000 0100     ................
  41c124:	0101 0000 0100 0101 0101 0001 0000 8080     ................
  41c134:	fe80 fefe fdfd fdfd fdfd fefe fffe ffff     ................
  41c144:	ffff ffff ffff ffff ffff ffff ffff ffff     ................
  41c154:	ffff ffff ffff ffff ffff ffff ffff ffff     ................
  41c164:	ffff ffff ffff ffff ffff ffff ffff ffff     ................
  41c174:	ffff ffff ffff ffff ffff ffff ffff ffff     ................
  41c184:	ffff ffff ffff ffff ffff ffff ffff ffff     ................
  41c194:	ffff ffff ffff ffff ffff ffff ffff ffff     ................
  41c1a4:	ffff ffff ffff ffff ffff ffff ffff ffff     ................
  41c1b4:	ffff ffff ffff ffff ffff ffff ffff ffff     ................
  41c1c4:	ffff ffff ffff ffff ffff ffff ffff ffff     ................
  41c1d4:	ffff ffff ffff ffff ffff ffff ffff ffff     ................
  41c1e4:	ffff ffff ffff ffff ffff ffff ffff ffff     ................
  41c1f4:	ffff ffff ffff ffff ffff ffff ffff ffff     ................
  41c204:	ffff ffff ffff ffff ffff ffff ffff ffff     ................
  41c214:	ffff ffff ffff ffff ffff ffff ffff ffff     ................
  41c224:	ffff ffff ffff ffff ffff ffff ffff ffff     ................
  41c234:	ffff feff fefe fdfe fcfd eef0 95e3 d5a2     ................
  41c244:	6146 22d0 c942 3517 0fc7 d12c 5135 cff4     Fa."B..5..,.5Q..
  41c254:	fed0 fcfe fdfd faff feff fffd fffe ffff     ................
  41c264:	ffff ffff ffff ffff ffff ffff ffff ffff     ................
  41c274:	ffff ffff ffff ffff ffff ffff ffff ffff     ................
  41c284:	ffff ffff ffff ffff ffff ffff ffff ffff     ................
  41c294:	ffff ffff ffff ffff ffff ffff ffff ffff     ................
  41c2a4:	ffff ffff ffff ffff ffff ffff ffff ffff     ................
  41c2b4:	ffff ffff ffff ffff ffff ffff ffff ffff     ................
  41c2c4:	ffff ffff ffff ffff ffff ffff ffff ffff     ................
  41c2d4:	ffff ffff ffff ffff ffff ffff ffff ffff     ................
  41c2e4:	ffff ffff ffff ffff ffff ffff ffff ffff     ................
  41c2f4:	ffff ffff ffff ffff ffff ffff ffff ffff     ................
  41c304:	ffff ffff ffff ffff ffff ffff ffff ffff     ................
  41c314:	ffff ffff ffff ffff ffff ffff ffff ffff     ................
  41c324:	ffff ffff ffff ffff ffff ffff ffff ffff     ................
  41c334:	ffff ffff ffff ffff ffff ffff ffff ffff     ................
  41c344:	ffff ffff ffff ffff ffff ffff ffff ffff     ................
  41c354:	ffff ffff ffff ffff ffff ffff ffff ffff     ................
  41c364:	ffff ffff ffff ffff ffff ffff ffff ffff     ................
  41c374:	ffff ffff ffff ffff ffff ffff ffff ffff     ................
  41c384:	ffff ffff ffff ffff ffff ffff ffff ffff     ................
  41c394:	ffff ffff ffff ffff ffff ffff ffff ffff     ................
  41c3a4:	ffff ffff ffff ffff ffff ffff ffff ffff     ................
  41c3b4:	ffff ffff ffff ffff ffff ffff ffff ffff     ................
  41c3c4:	ffff ffff ffff ffff ffff ffff ffff ffff     ................
  41c3d4:	ffff ffff ffff ffff ffff ffff ffff ffff     ................
  41c3e4:	ffff ffff ffff ffff ffff ffff ffff ffff     ................
  41c3f4:	ffff ffff ffff ffff ffff ffff ffff ffff     ................
  41c404:	ffff ffff ffff ffff ffff ffff ffff ffff     ................
  41c414:	ffff ffff ffff ffff ffff ffff ffff ffff     ................
  41c424:	ffff ffff ffff ffff ffff ffff ffff ffff     ................
  41c434:	ffff ffff ffff ffff ffff ffff ffff ffff     ................
  41c444:	ffff ffff ffff ffff ffff ffff ffff ffff     ................
  41c454:	ffff ffff ffff ffff ffff ffff ffff ffff     ................
  41c464:	ffff ffff ffff ffff ffff ffff ffff ffff     ................
  41c474:	ffff ffff ffff ffff ffff ffff ffff ffff     ................
  41c484:	ffff ffff ffff ffff ffff ffff ffff ffff     ................
  41c494:	ffff ffff ffff ffff ffff ffff ffff ffff     ................
  41c4a4:	ffff ffff ffff ffff feff fefe fefe fefe     ................
  41c4b4:	fefe fefe fefe fefe fefe e9fe e9e9 5959     ..............YY
  41c4c4:	5159 5151 5252 5252 5252 5353 5253 5252     YQQQRRRRRRSSSRRR
  41c4d4:	5353 5353 5353 5252 5352 5353 5353 5253     SSSSSSRRRSSSSSSR
  41c4e4:	5252 5252 5152 5151 5656 b056 b0b0 fefe     RRRRRQQQVVV.....
  41c4f4:	fdfe fdfd fefe fefe fefe ffff ffff ffff     ................
  41c504:	ffff ffff ffff ffff ffff ffff ffff ffff     ................
  41c514:	ffff ffff ffff ffff ffff ffff ffff ffff     ................
  41c524:	ffff ffff ffff ffff ffff ffff ffff ffff     ................
  41c534:	ffff ffff ffff ffff ffff ffff ffff ffff     ................
  41c544:	ffff ffff ffff ffff ffff ffff ffff ffff     ................
  41c554:	ffff ffff ffff ffff ffff ffff ffff ffff     ................
  41c564:	ffff ffff ffff ffff ffff ffff ffff ffff     ................
  41c574:	ffff ffff ffff ffff ffff ffff ffff ffff     ................
  41c584:	ffff ffff ffff ffff ffff ffff ffff ffff     ................
  41c594:	ffff ffff ffff ffff ffff ffff ffff ffff     ................
  41c5a4:	ffff ffff ffff ffff ffff ffff ffff ffff     ................
  41c5b4:	ffff ffff ffff ffff ffff ffff ffff ffff     ................
  41c5c4:	ffff ffff ffff ffff ffff ffff ffff ffff     ................
  41c5d4:	ffff ffff ffff ffff ffff ffff ffff ffff     ................
  41c5e4:	ffff ffff ffff ffff ffff ffff ffff ffff     ................
  41c5f4:	fefe fcfe fefe fefe fefe fafc def8 f1e1     ................
  41c604:	c5bf a1ef e5ac 9e92 a6e8 fab1 ebeb fdfe     ................
  41c614:	fdfd fdfc fefd fefd feff ffff ffff ffff     ................
  41c624:	ffff ffff ffff ffff ffff ffff ffff ffff     ................
  41c634:	ffff ffff ffff ffff ffff ffff ffff ffff     ................
  41c644:	ffff ffff ffff ffff ffff ffff ffff ffff     ................
  41c654:	ffff ffff ffff ffff ffff ffff ffff ffff     ................
  41c664:	ffff ffff ffff ffff ffff ffff ffff ffff     ................
  41c674:	ffff ffff ffff ffff ffff ffff ffff ffff     ................
  41c684:	ffff ffff ffff ffff ffff ffff ffff ffff     ................
  41c694:	ffff ffff ffff ffff ffff ffff ffff ffff     ................
  41c6a4:	ffff ffff ffff ffff ffff ffff ffff ffff     ................
  41c6b4:	ffff ffff ffff ffff ffff ffff ffff ffff     ................
  41c6c4:	ffff ffff ffff ffff ffff ffff ffff ffff     ................
  41c6d4:	ffff ffff ffff ffff ffff ffff ffff ffff     ................
  41c6e4:	ffff ffff ffff ffff ffff ffff ffff ffff     ................
  41c6f4:	ffff ffff ffff ffff ffff ffff ffff ffff     ................
  41c704:	ffff ffff ffff ffff ffff ffff ffff ffff     ................
  41c714:	ffff ffff ffff ffff ffff ffff ffff ffff     ................
  41c724:	ffff ffff ffff ffff ffff ffff ffff ffff     ................
  41c734:	ffff ffff ffff ffff ffff ffff ffff ffff     ................
  41c744:	ffff ffff ffff ffff ffff ffff ffff ffff     ................
  41c754:	ffff ffff ffff ffff ffff ffff ffff ffff     ................
  41c764:	ffff ffff ffff ffff ffff ffff ffff ffff     ................
  41c774:	ffff ffff ffff ffff ffff ffff ffff ffff     ................
  41c784:	ffff ffff ffff ffff ffff ffff ffff ffff     ................
  41c794:	ffff ffff ffff ffff ffff ffff ffff ffff     ................
  41c7a4:	ffff ffff ffff ffff ffff ffff ffff ffff     ................
  41c7b4:	ffff ffff ffff ffff ffff ffff ffff ffff     ................
  41c7c4:	ffff ffff ffff ffff ffff ffff ffff ffff     ................
  41c7d4:	ffff ffff ffff ffff ffff ffff ffff ffff     ................
  41c7e4:	ffff ffff ffff ffff ffff ffff ffff ffff     ................
  41c7f4:	ffff ffff ffff ffff ffff ffff ffff ffff     ................
  41c804:	ffff ffff ffff ffff ffff ffff ffff ffff     ................
  41c814:	ffff ffff ffff ffff ffff ffff ffff ffff     ................
  41c824:	ffff ffff ffff ffff ffff ffff ffff ffff     ................
  41c834:	ffff ffff ffff ffff ffff ffff ffff ffff     ................
  41c844:	ffff ffff ffff ffff ffff ffff ffff ffff     ................
  41c854:	ffff ffff ffff ffff ffff ffff ffff ffff     ................
  41c864:	ffff ffff ffff fefe fdfe fdfd fefe fefe     ................
  41c874:	fefe fefe fffe ffff fefe f3fe f3f3 f5f5     ................
  41c884:	f5f5 f5f5 f5f5 f5f5 f5f5 f5f5 f4f5 f4f4     ................
  41c894:	f5f5 f4f5 f4f4 f5f5 f5f5 f5f5 f5f5 f5f5     ................
  41c8a4:	f5f5 f5f5 f1f5 f1f1 fafa fefa fefe fefe     ................
  41c8b4:	fdfe fdfd ffff ffff ffff ffff ffff ffff     ................
  41c8c4:	ffff ffff ffff ffff ffff ffff ffff ffff     ................
  41c8d4:	ffff ffff ffff ffff ffff ffff ffff ffff     ................
  41c8e4:	ffff ffff ffff ffff ffff ffff ffff ffff     ................
  41c8f4:	ffff ffff ffff ffff ffff ffff ffff ffff     ................
  41c904:	ffff ffff ffff ffff ffff ffff ffff ffff     ................
  41c914:	ffff ffff ffff ffff ffff ffff ffff ffff     ................
  41c924:	ffff ffff ffff ffff ffff ffff ffff ffff     ................
  41c934:	ffff ffff ffff ffff ffff ffff ffff ffff     ................
  41c944:	ffff ffff ffff ffff ffff ffff ffff ffff     ................
  41c954:	ffff ffff ffff ffff ffff ffff ffff ffff     ................
  41c964:	ffff ffff ffff ffff ffff ffff ffff ffff     ................
  41c974:	ffff ffff ffff ffff ffff ffff ffff ffff     ................
  41c984:	ffff ffff ffff ffff ffff ffff ffff ffff     ................
  41c994:	ffff ffff ffff ffff ffff ffff ffff ffff     ................
  41c9a4:	ffff ffff ffff ffff ffff ffff fdff fefe     ................
  41c9b4:	fcfc fefc fefd fdfd f9ff fefd fef5 fdfe     ................
  41c9c4:	fcfa f4fe fdfa fbfa fdfc fdfe fefd fefe     ................
  41c9d4:	fefe fdfd fefe fffe ffff ffff ffff ffff     ................
  41c9e4:	ffff ffff ffff ffff ffff ffff ffff ffff     ................
  41c9f4:	ffff ffff ffff ffff ffff ffff ffff ffff     ................
  41ca04:	ffff ffff ffff ffff ffff ffff ffff ffff     ................
  41ca14:	ffff ffff ffff ffff ffff ffff ffff ffff     ................
  41ca24:	ffff ffff ffff ffff ffff ffff ffff ffff     ................
  41ca34:	ffff ffff ffff ffff ffff ffff ffff ffff     ................
  41ca44:	ffff ffff ffff ffff ffff ffff ffff ffff     ................
  41ca54:	ffff ffff ffff ffff ffff ffff ffff ffff     ................
  41ca64:	ffff ffff ffff ffff ffff ffff ffff ffff     ................
  41ca74:	ffff ffff ffff ffff ffff ffff ffff ffff     ................
  41ca84:	ffff ffff ffff ffff ffff ffff ffff ffff     ................
  41ca94:	ffff ffff ffff ffff ffff ffff ffff ffff     ................
  41caa4:	ffff ffff ffff ffff ffff ffff ffff ffff     ................
  41cab4:	ffff ffff ffff ffff ffff ffff ffff ffff     ................
  41cac4:	ffff ffff ffff ffff ffff ffff ffff ffff     ................
  41cad4:	ffff ffff ffff ffff ffff ffff ffff ffff     ................
  41cae4:	ffff ffff ffff ffff ffff ffff ffff ffff     ................
  41caf4:	ffff ffff ffff ffff ffff ffff ffff ffff     ................
  41cb04:	ffff ffff ffff ffff ffff ffff ffff ffff     ................
  41cb14:	ffff ffff ffff ffff ffff ffff ffff ffff     ................
  41cb24:	ffff ffff ffff ffff ffff ffff ffff ffff     ................
  41cb34:	ffff ffff ffff ffff ffff ffff ffff ffff     ................
  41cb44:	ffff ffff ffff ffff ffff ffff ffff ffff     ................
  41cb54:	ffff ffff ffff ffff ffff ffff ffff ffff     ................
  41cb64:	ffff ffff ffff ffff ffff ffff ffff ffff     ................
  41cb74:	ffff ffff ffff ffff ffff ffff ffff ffff     ................
  41cb84:	ffff ffff ffff ffff ffff ffff ffff ffff     ................
  41cb94:	ffff ffff ffff ffff ffff ffff ffff ffff     ................
  41cba4:	ffff ffff ffff ffff ffff ffff ffff ffff     ................
  41cbb4:	ffff ffff ffff ffff ffff ffff ffff ffff     ................
  41cbc4:	ffff ffff ffff ffff ffff ffff ffff ffff     ................
  41cbd4:	ffff ffff ffff ffff ffff ffff ffff ffff     ................
  41cbe4:	ffff ffff ffff ffff ffff ffff ffff ffff     ................
  41cbf4:	ffff ffff ffff ffff ffff ffff ffff ffff     ................
  41cc04:	ffff ffff ffff ffff ffff ffff ffff ffff     ................
  41cc14:	ffff ffff ffff ffff ffff ffff ffff ffff     ................
  41cc24:	ffff feff fefe fefe fefe fefe fefe fefe     ................
  41cc34:	fefe fefe fdfe fdfd fefe fefe fefe fdfd     ................
  41cc44:	fefd fefe fefe fffe ffff ffff feff fefe     ................
  41cc54:	fefe fefe fefe fefe fefe fefe fefe fefe     ................
  41cc64:	fefe fefe fefe fefe fdfd fefd fefe fefe     ................
  41cc74:	fefe fefe ffff ffff ffff ffff ffff ffff     ................
  41cc84:	ffff ffff ffff ffff ffff ffff ffff ffff     ................
  41cc94:	ffff ffff ffff ffff ffff ffff ffff ffff     ................
  41cca4:	ffff ffff ffff ffff ffff ffff ffff ffff     ................
  41ccb4:	ffff ffff ffff ffff ffff ffff ffff ffff     ................
  41ccc4:	ffff ffff ffff ffff ffff ffff ffff ffff     ................
  41ccd4:	ffff ffff ffff ffff ffff ffff ffff ffff     ................
  41cce4:	ffff ffff ffff ffff ffff ffff ffff ffff     ................
  41ccf4:	ffff ffff ffff ffff ffff ffff ffff ffff     ................
  41cd04:	ffff ffff ffff ffff ffff ffff ffff ffff     ................
  41cd14:	ffff ffff ffff ffff ffff ffff ffff ffff     ................
  41cd24:	ffff ffff ffff ffff ffff ffff ffff ffff     ................
  41cd34:	ffff ffff ffff ffff ffff ffff ffff ffff     ................
  41cd44:	ffff ffff ffff ffff ffff ffff ffff ffff     ................
  41cd54:	ffff ffff ffff ffff ffff ffff ffff ffff     ................
  41cd64:	ffff ffff ffff ffff ffff ffff fbfe fefe     ................
  41cd74:	fef7 fefd fefb fdfd fefe fefe fefe fefd     ................
  41cd84:	fdfc fefd fcfe fdfd fefd fefd fefe fefd     ................
  41cd94:	fffc fefe ffff ffff ffff ffff ffff ffff     ................
  41cda4:	ffff ffff ffff ffff ffff ffff ffff ffff     ................
  41cdb4:	ffff ffff ffff ffff ffff ffff ffff ffff     ................
  41cdc4:	ffff ffff ffff ffff ffff ffff ffff ffff     ................
  41cdd4:	ffff ffff ffff ffff ffff ffff ffff ffff     ................
  41cde4:	ffff ffff ffff ffff ffff ffff ffff ffff     ................
  41cdf4:	ffff ffff ffff ffff ffff ffff ffff ffff     ................
  41ce04:	ffff ffff ffff ffff ffff ffff ffff ffff     ................
  41ce14:	ffff ffff ffff ffff ffff ffff ffff ffff     ................
  41ce24:	ffff ffff ffff ffff ffff ffff ffff ffff     ................
  41ce34:	ffff ffff ffff ffff ffff ffff ffff ffff     ................
  41ce44:	ffff ffff ffff ffff ffff ffff ffff ffff     ................
  41ce54:	ffff ffff ffff ffff ffff ffff ffff ffff     ................
  41ce64:	ffff ffff ffff ffff ffff ffff ffff ffff     ................
  41ce74:	ffff ffff ffff ffff ffff ffff ffff ffff     ................
  41ce84:	ffff ffff ffff ffff ffff ffff ffff ffff     ................
  41ce94:	ffff ffff ffff ffff ffff ffff ffff ffff     ................
  41cea4:	ffff ffff ffff ffff ffff ffff ffff ffff     ................
  41ceb4:	ffff ffff ffff ffff ffff ffff ffff ffff     ................
  41cec4:	ffff ffff ffff ffff ffff ffff ffff ffff     ................
  41ced4:	ffff ffff ffff ffff ffff ffff ffff ffff     ................
  41cee4:	ffff ffff ffff ffff ffff ffff ffff ffff     ................
  41cef4:	ffff ffff ffff ffff ffff ffff ffff ffff     ................
  41cf04:	ffff ffff ffff ffff ffff ffff ffff ffff     ................
  41cf14:	ffff ffff ffff ffff ffff ffff ffff ffff     ................
  41cf24:	ffff ffff ffff ffff ffff ffff ffff ffff     ................
  41cf34:	ffff ffff ffff ffff ffff ffff ffff ffff     ................
  41cf44:	ffff ffff ffff ffff ffff ffff ffff ffff     ................
  41cf54:	ffff ffff ffff ffff ffff ffff ffff ffff     ................
  41cf64:	ffff ffff ffff ffff ffff ffff ffff ffff     ................
  41cf74:	ffff ffff ffff ffff ffff ffff ffff ffff     ................
  41cf84:	ffff ffff ffff ffff ffff ffff ffff ffff     ................
  41cf94:	ffff ffff ffff ffff ffff ffff ffff ffff     ................
  41cfa4:	ffff ffff ffff ffff ffff ffff ffff ffff     ................
  41cfb4:	ffff ffff ffff ffff ffff ffff ffff ffff     ................
  41cfc4:	ffff ffff ffff ffff ffff ffff ffff ffff     ................
  41cfd4:	ffff ffff ffff ffff ffff ffff ffff ffff     ................
  41cfe4:	fefe fefe fefe ffff feff fefe fefe fefe     ................
  41cff4:	fefe fefe fefe fefe fdfd fffd ffff ffff     ................
  41d004:	ffff ffff ffff ffff ffff fefe fefe fefe     ................
  41d014:	fefe fffe ffff fefe fefe fefe fefe fefe     ................
  41d024:	fefe fefe fefe fefe fefe fffe ffff ffff     ................
  41d034:	ffff ffff ffff ffff ffff ffff ffff ffff     ................
  41d044:	ffff ffff ffff ffff ffff ffff ffff ffff     ................
  41d054:	ffff ffff ffff ffff ffff ffff ffff ffff     ................
  41d064:	ffff ffff ffff ffff ffff ffff ffff ffff     ................
  41d074:	ffff ffff ffff ffff ffff ffff ffff ffff     ................
  41d084:	ffff ffff ffff ffff ffff ffff ffff ffff     ................
  41d094:	ffff ffff ffff ffff ffff ffff ffff ffff     ................
  41d0a4:	ffff ffff ffff ffff ffff ffff ffff ffff     ................
  41d0b4:	ffff ffff ffff ffff ffff ffff ffff ffff     ................
  41d0c4:	ffff ffff ffff ffff ffff ffff ffff ffff     ................
  41d0d4:	ffff ffff ffff ffff ffff ffff ffff ffff     ................
  41d0e4:	ffff ffff ffff ffff ffff ffff ffff ffff     ................
  41d0f4:	ffff ffff ffff ffff ffff ffff ffff ffff     ................
  41d104:	ffff ffff ffff ffff ffff ffff ffff ffff     ................
  41d114:	ffff ffff ffff ffff ffff ffff ffff ffff     ................
  41d124:	ffff ffff ffff ffff ffff fefd fefe fdfe     ................
  41d134:	fffe fefd fdff ffff fffd fcff fefc fefd     ................
  41d144:	fdfe fefd fefd fdff fefe fefd fefe feff     ................
  41d154:	ffff ffff ffff ffff ffff ffff ffff ffff     ................
  41d164:	ffff ffff ffff ffff ffff ffff ffff ffff     ................
  41d174:	ffff ffff ffff ffff ffff ffff ffff ffff     ................
  41d184:	ffff ffff ffff ffff ffff ffff ffff ffff     ................
  41d194:	ffff ffff ffff ffff ffff ffff ffff ffff     ................
  41d1a4:	ffff ffff ffff ffff ffff ffff ffff ffff     ................
  41d1b4:	ffff ffff ffff ffff ffff ffff ffff ffff     ................
  41d1c4:	ffff ffff ffff ffff ffff ffff ffff ffff     ................
  41d1d4:	ffff ffff ffff ffff ffff ffff ffff ffff     ................
  41d1e4:	ffff ffff ffff ffff ffff ffff ffff ffff     ................
  41d1f4:	ffff ffff ffff ffff ffff ffff ffff ffff     ................
  41d204:	ffff ffff ffff ffff ffff ffff ffff ffff     ................
  41d214:	ffff ffff ffff ffff ffff ffff ffff ffff     ................
  41d224:	ffff ffff ffff ffff ffff ffff ffff ffff     ................
  41d234:	ffff ffff ffff ffff ffff ffff ffff ffff     ................
  41d244:	ffff ffff ffff ffff ffff ffff ffff ffff     ................
  41d254:	ffff ffff ffff ffff ffff ffff ffff ffff     ................
  41d264:	ffff ffff ffff ffff ffff ffff ffff ffff     ................
  41d274:	ffff ffff ffff ffff ffff ffff ffff ffff     ................
  41d284:	ffff ffff ffff ffff ffff ffff ffff ffff     ................
  41d294:	ffff ffff ffff ffff ffff ffff ffff ffff     ................
  41d2a4:	ffff ffff ffff ffff ffff ffff ffff ffff     ................
  41d2b4:	ffff ffff ffff ffff ffff ffff ffff ffff     ................
  41d2c4:	ffff ffff ffff ffff ffff ffff ffff ffff     ................
  41d2d4:	ffff ffff ffff ffff ffff ffff ffff ffff     ................
  41d2e4:	ffff ffff ffff ffff ffff ffff ffff ffff     ................
  41d2f4:	ffff ffff ffff ffff ffff ffff ffff ffff     ................
  41d304:	ffff ffff ffff ffff ffff ffff ffff ffff     ................
  41d314:	ffff ffff ffff ffff ffff ffff ffff ffff     ................
  41d324:	ffff ffff ffff ffff ffff ffff ffff ffff     ................
  41d334:	ffff ffff ffff ffff ffff ffff ffff ffff     ................
  41d344:	ffff ffff ffff ffff ffff ffff ffff ffff     ................
  41d354:	ffff ffff ffff ffff ffff ffff ffff ffff     ................
  41d364:	ffff ffff ffff ffff ffff ffff ffff ffff     ................
  41d374:	ffff ffff ffff ffff ffff ffff ffff ffff     ................
  41d384:	ffff ffff ffff ffff ffff ffff ffff ffff     ................
  41d394:	ffff ffff ffff ffff ffff ffff ffff ffff     ................
  41d3a4:	ffff ffff ffff ffff ffff ffff ffff ffff     ................
  41d3b4:	ffff ffff ffff ffff ffff ffff ffff ffff     ................
  41d3c4:	ffff ffff ffff ffff ffff ffff ffff ffff     ................
  41d3d4:	ffff ffff ffff ffff ffff ffff ffff ffff     ................
  41d3e4:	ffff ffff ffff ffff ffff ffff ffff ffff     ................
  41d3f4:	ffff ffff ffff ffff ffff ffff ffff ffff     ................
  41d404:	ffff ffff ffff ffff ffff ffff ffff ffff     ................
  41d414:	ffff ffff ffff ffff ffff ffff ffff ffff     ................
  41d424:	ffff ffff ffff ffff ffff ffff ffff ffff     ................
  41d434:	ffff ffff ffff ffff ffff ffff ffff ffff     ................
  41d444:	ffff ffff ffff ffff ffff ffff ffff ffff     ................
  41d454:	ffff ffff ffff ffff ffff ffff ffff ffff     ................
  41d464:	ffff ffff ffff ffff ffff ffff ffff ffff     ................
  41d474:	ffff ffff ffff ffff ffff ffff ffff ffff     ................
  41d484:	ffff ffff ffff ffff ffff ffff ffff ffff     ................
  41d494:	ffff ffff ffff ffff ffff ffff ffff ffff     ................
  41d4a4:	ffff ffff ffff ffff ffff ffff ffff ffff     ................
  41d4b4:	ffff ffff ffff ffff ffff ffff ffff ffff     ................
  41d4c4:	ffff ffff ffff ffff ffff ffff ffff ffff     ................
  41d4d4:	ffff ffff ffff ffff ffff ffff ffff ffff     ................
  41d4e4:	ffff ffff ffff ffff ffff ffff ffff ffff     ................
  41d4f4:	ffff ffff ffff ffff ffff ffff ffff ffff     ................
  41d504:	ffff ffff ffff ffff ffff ffff ffff ffff     ................
  41d514:	ffff ffff ffff ffff ffff ffff ffff ffff     ................
  41d524:	ffff ffff ffff ffff ffff ffff ffff ffff     ................
  41d534:	ffff ffff ffff ffff ffff ffff ffff ffff     ................
  41d544:	ffff ffff ffff ffff ffff ffff ffff ffff     ................
  41d554:	ffff ffff ffff ffff ffff ffff ffff ffff     ................
  41d564:	ffff ffff ffff ffff ffff ffff ffff ffff     ................
  41d574:	ffff ffff ffff ffff ffff ffff ffff ffff     ................
  41d584:	ffff ffff ffff ffff ffff ffff ffff ffff     ................
  41d594:	ffff ffff ffff ffff ffff ffff ffff ffff     ................
  41d5a4:	ffff ffff ffff ffff ffff ffff ffff ffff     ................
  41d5b4:	ffff ffff ffff ffff ffff ffff ffff ffff     ................
  41d5c4:	ffff ffff ffff ffff ffff ffff ffff ffff     ................
  41d5d4:	ffff ffff ffff ffff ffff ffff ffff ffff     ................
  41d5e4:	ffff ffff ffff ffff ffff ffff ffff ffff     ................
  41d5f4:	ffff ffff ffff ffff ffff ffff ffff ffff     ................
  41d604:	ffff ffff ffff ffff ffff ffff ffff ffff     ................
  41d614:	ffff ffff ffff ffff ffff ffff ffff ffff     ................
  41d624:	ffff ffff ffff ffff ffff ffff ffff ffff     ................
  41d634:	ffff ffff ffff ffff ffff ffff ffff ffff     ................
  41d644:	ffff ffff ffff ffff ffff ffff ffff ffff     ................
  41d654:	ffff ffff ffff ffff ffff ffff ffff ffff     ................
  41d664:	ffff ffff ffff ffff ffff ffff ffff ffff     ................
  41d674:	ffff ffff ffff ffff ffff ffff ffff ffff     ................
  41d684:	ffff ffff ffff ffff ffff ffff ffff ffff     ................
  41d694:	ffff ffff ffff ffff ffff ffff ffff ffff     ................
  41d6a4:	ffff ffff ffff ffff ffff ffff ffff ffff     ................
  41d6b4:	ffff ffff ffff ffff ffff ffff ffff ffff     ................
  41d6c4:	ffff ffff ffff ffff ffff ffff ffff ffff     ................
  41d6d4:	ffff ffff ffff ffff ffff ffff ffff ffff     ................
  41d6e4:	ffff ffff ffff ffff ffff ffff ffff ffff     ................
  41d6f4:	ffff ffff ffff ffff ffff ffff ffff ffff     ................
  41d704:	ffff ffff ffff ffff ffff ffff ffff ffff     ................
  41d714:	ffff ffff ffff ffff ffff ffff ffff ffff     ................
  41d724:	ffff ffff ffff ffff ffff ffff ffff ffff     ................
  41d734:	ffff ffff ffff ffff ffff ffff ffff ffff     ................
  41d744:	ffff ffff ffff ffff ffff ffff ffff ffff     ................
  41d754:	ffff ffff ffff ffff ffff ffff ffff ffff     ................
  41d764:	ffff ffff ffff ffff ffff ffff ffff ffff     ................
  41d774:	ffff ffff ffff ffff ffff ffff ffff ffff     ................
  41d784:	ffff ffff ffff ffff ffff ffff ffff ffff     ................
  41d794:	ffff ffff ffff ffff ffff ffff ffff ffff     ................
  41d7a4:	ffff ffff ffff ffff ffff ffff ffff ffff     ................
  41d7b4:	ffff ffff ffff ffff ffff ffff ffff ffff     ................
  41d7c4:	ffff ffff ffff ffff ffff ffff ffff ffff     ................
  41d7d4:	ffff ffff ffff ffff ffff ffff ffff ffff     ................
  41d7e4:	ffff ffff ffff ffff ffff ffff ffff ffff     ................
  41d7f4:	ffff ffff ffff ffff ffff ffff ffff ffff     ................
  41d804:	ffff ffff ffff ffff ffff ffff ffff ffff     ................
  41d814:	ffff ffff ffff ffff ffff ffff ffff ffff     ................
  41d824:	ffff ffff ffff ffff ffff ffff ffff ffff     ................
  41d834:	ffff ffff ffff ffff ffff ffff ffff ffff     ................
  41d844:	ffff ffff ffff ffff ffff ffff ffff ffff     ................
  41d854:	ffff ffff ffff ffff ffff ffff ffff ffff     ................
  41d864:	ffff ffff ffff ffff ffff ffff ffff ffff     ................
  41d874:	ffff ffff ffff ffff ffff ffff ffff ffff     ................
  41d884:	ffff ffff ffff ffff ffff ffff ffff ffff     ................
  41d894:	ffff ffff ffff ffff ffff ffff ffff ffff     ................
  41d8a4:	ffff ffff ffff ffff ffff ffff ffff ffff     ................
  41d8b4:	ffff ffff ffff ffff ffff ffff ffff ffff     ................
  41d8c4:	ffff ffff ffff ffff ffff ffff ffff ffff     ................
  41d8d4:	ffff ffff ffff ffff ffff ffff ffff ffff     ................
  41d8e4:	ffff ffff ffff ffff ffff ffff ffff ffff     ................
  41d8f4:	ffff ffff ffff ffff ffff ffff ffff ffff     ................
  41d904:	ffff ffff ffff ffff ffff ffff ffff ffff     ................
  41d914:	ffff ffff ffff ffff ffff ffff ffff ffff     ................
  41d924:	ffff ffff ffff ffff ffff ffff ffff ffff     ................
  41d934:	ffff ffff ffff ffff ffff ffff ffff ffff     ................
  41d944:	ffff ffff ffff ffff ffff ffff ffff ffff     ................
  41d954:	ffff ffff ffff ffff ffff ffff ffff ffff     ................
  41d964:	ffff ffff ffff ffff ffff ffff ffff ffff     ................
  41d974:	ffff ffff ffff ffff ffff ffff ffff ffff     ................
  41d984:	ffff ffff ffff ffff ffff ffff ffff ffff     ................
  41d994:	ffff ffff ffff ffff ffff ffff ffff ffff     ................
  41d9a4:	ffff ffff ffff ffff ffff ffff ffff ffff     ................
  41d9b4:	ffff ffff ffff ffff ffff ffff ffff ffff     ................
  41d9c4:	ffff ffff ffff ffff ffff ffff ffff ffff     ................
  41d9d4:	ffff ffff ffff ffff ffff ffff ffff ffff     ................
  41d9e4:	ffff ffff ffff ffff ffff ffff ffff ffff     ................
  41d9f4:	ffff ffff ffff ffff ffff ffff ffff ffff     ................
  41da04:	ffff ffff ffff ffff ffff ffff ffff ffff     ................
  41da14:	ffff ffff ffff ffff ffff ffff ffff ffff     ................
  41da24:	ffff ffff ffff ffff ffff ffff ffff ffff     ................
  41da34:	ffff ffff ffff ffff ffff ffff ffff ffff     ................
  41da44:	ffff ffff ffff ffff ffff ffff ffff ffff     ................
  41da54:	ffff ffff ffff ffff ffff ffff ffff ffff     ................
  41da64:	ffff ffff ffff ffff ffff ffff ffff ffff     ................
  41da74:	ffff ffff ffff ffff ffff ffff ffff ffff     ................
  41da84:	ffff ffff ffff ffff ffff ffff ffff ffff     ................
  41da94:	ffff ffff ffff ffff ffff ffff ffff ffff     ................
  41daa4:	ffff ffff ffff ffff ffff ffff ffff ffff     ................
  41dab4:	ffff ffff ffff ffff ffff ffff ffff ffff     ................
  41dac4:	ffff ffff ffff ffff ffff ffff ffff ffff     ................
  41dad4:	ffff ffff ffff ffff ffff ffff ffff ffff     ................
  41dae4:	ffff ffff ffff ffff ffff ffff ffff ffff     ................
  41daf4:	ffff ffff ffff ffff ffff ffff ffff ffff     ................
  41db04:	ffff ffff ffff ffff ffff ffff ffff ffff     ................
  41db14:	ffff ffff ffff ffff ffff ffff ffff ffff     ................
  41db24:	ffff ffff ffff ffff ffff ffff ffff ffff     ................
  41db34:	ffff ffff ffff ffff ffff ffff ffff ffff     ................
  41db44:	ffff ffff ffff ffff ffff ffff ffff ffff     ................
  41db54:	ffff ffff ffff ffff ffff ffff ffff ffff     ................
  41db64:	ffff ffff ffff ffff ffff ffff ffff ffff     ................
  41db74:	ffff ffff ffff ffff ffff ffff ffff ffff     ................
  41db84:	ffff ffff ffff ffff ffff ffff ffff ffff     ................
  41db94:	ffff ffff ffff ffff ffff ffff ffff ffff     ................
  41dba4:	ffff ffff ffff ffff ffff ffff ffff ffff     ................
  41dbb4:	ffff ffff ffff ffff ffff ffff ffff ffff     ................
  41dbc4:	ffff ffff ffff ffff ffff ffff ffff ffff     ................
  41dbd4:	ffff ffff ffff ffff ffff ffff ffff ffff     ................
  41dbe4:	ffff ffff ffff ffff ffff ffff ffff ffff     ................
  41dbf4:	ffff ffff ffff ffff ffff ffff ffff ffff     ................
  41dc04:	ffff ffff ffff ffff ffff ffff ffff ffff     ................
  41dc14:	ffff ffff ffff ffff ffff ffff ffff ffff     ................
  41dc24:	ffff ffff ffff ffff ffff ffff ffff ffff     ................
  41dc34:	ffff ffff ffff ffff ffff ffff ffff ffff     ................
  41dc44:	ffff ffff ffff ffff ffff ffff ffff ffff     ................
  41dc54:	ffff ffff ffff ffff ffff ffff ffff ffff     ................
  41dc64:	ffff ffff ffff ffff ffff ffff ffff ffff     ................
  41dc74:	ffff ffff ffff ffff ffff ffff ffff ffff     ................
  41dc84:	ffff ffff ffff ffff ffff ffff ffff ffff     ................
  41dc94:	ffff ffff ffff ffff ffff ffff ffff ffff     ................
  41dca4:	ffff ffff ffff ffff ffff ffff ffff ffff     ................
  41dcb4:	ffff ffff ffff ffff ffff ffff ffff ffff     ................
  41dcc4:	ffff ffff ffff ffff ffff ffff ffff ffff     ................
  41dcd4:	ffff ffff ffff ffff ffff ffff ffff ffff     ................
  41dce4:	ffff ffff ffff ffff ffff ffff ffff ffff     ................
  41dcf4:	ffff ffff ffff ffff ffff ffff ffff ffff     ................
  41dd04:	ffff ffff ffff ffff ffff ffff ffff ffff     ................
  41dd14:	ffff ffff ffff ffff ffff ffff ffff ffff     ................
  41dd24:	ffff ffff ffff ffff ffff ffff ffff ffff     ................
  41dd34:	ffff ffff ffff ffff ffff ffff ffff ffff     ................
  41dd44:	ffff ffff ffff ffff ffff ffff ffff ffff     ................
  41dd54:	ffff ffff ffff ffff ffff ffff ffff ffff     ................
  41dd64:	ffff ffff ffff ffff ffff ffff ffff ffff     ................
  41dd74:	ffff ffff ffff ffff ffff ffff ffff ffff     ................
  41dd84:	ffff ffff ffff ffff ffff ffff ffff ffff     ................
  41dd94:	ffff ffff ffff ffff ffff ffff ffff ffff     ................
  41dda4:	ffff ffff ffff ffff ffff ffff ffff ffff     ................
  41ddb4:	ffff ffff ffff ffff ffff ffff ffff ffff     ................
  41ddc4:	ffff ffff ffff ffff ffff ffff ffff ffff     ................
  41ddd4:	ffff ffff ffff ffff ffff ffff ffff ffff     ................
  41dde4:	ffff ffff ffff ffff ffff ffff ffff ffff     ................
  41ddf4:	ffff ffff ffff ffff ffff ffff ffff ffff     ................
  41de04:	ffff ffff ffff ffff ffff ffff ffff ffff     ................
  41de14:	ffff ffff ffff ffff ffff ffff ffff ffff     ................
  41de24:	ffff ffff ffff ffff ffff ffff ffff ffff     ................
  41de34:	ffff ffff ffff ffff ffff ffff ffff ffff     ................
  41de44:	ffff ffff ffff ffff ffff ffff ffff ffff     ................
  41de54:	ffff ffff ffff ffff ffff ffff ffff ffff     ................
  41de64:	ffff ffff ffff ffff ffff ffff ffff ffff     ................
  41de74:	ffff ffff ffff ffff ffff ffff ffff ffff     ................
  41de84:	ffff ffff ffff ffff ffff ffff ffff ffff     ................
  41de94:	ffff ffff ffff ffff ffff ffff ffff ffff     ................
  41dea4:	ffff ffff ffff ffff ffff ffff ffff ffff     ................
  41deb4:	ffff ffff ffff ffff ffff ffff ffff ffff     ................
  41dec4:	ffff ffff ffff ffff ffff ffff ffff ffff     ................
  41ded4:	ffff ffff ffff ffff ffff ffff ffff ffff     ................
  41dee4:	ffff ffff ffff ffff ffff ffff ffff ffff     ................
  41def4:	ffff ffff ffff ffff ffff ffff ffff ffff     ................
  41df04:	ffff ffff ffff ffff ffff ffff ffff ffff     ................
  41df14:	ffff ffff ffff ffff ffff ffff ffff ffff     ................
  41df24:	ffff ffff ffff ffff ffff ffff ffff ffff     ................
  41df34:	ffff ffff ffff ffff ffff ffff ffff ffff     ................
  41df44:	ffff ffff ffff ffff ffff ffff ffff ffff     ................
  41df54:	ffff ffff ffff ffff ffff ffff ffff ffff     ................
  41df64:	ffff ffff ffff ffff ffff ffff ffff ffff     ................
  41df74:	ffff ffff ffff ffff ffff ffff ffff ffff     ................
  41df84:	ffff ffff ffff ffff ffff ffff ffff ffff     ................
  41df94:	ffff ffff ffff ffff ffff ffff ffff ffff     ................
  41dfa4:	ffff ffff ffff ffff ffff ffff ffff ffff     ................
  41dfb4:	ffff ffff ffff ffff ffff ffff ffff ffff     ................
  41dfc4:	ffff ffff ffff ffff ffff ffff ffff ffff     ................
  41dfd4:	ffff ffff ffff ffff ffff ffff ffff ffff     ................
  41dfe4:	ffff ffff ffff ffff ffff ffff ffff ffff     ................
  41dff4:	ffff ffff ffff ffff ffff ffff ffff ffff     ................
  41e004:	ffff ffff ffff ffff ffff ffff ffff ffff     ................
  41e014:	ffff ffff ffff ffff ffff ffff ffff ffff     ................
  41e024:	ffff ffff ffff ffff ffff ffff ffff ffff     ................
  41e034:	ffff ffff ffff ffff ffff ffff ffff ffff     ................
  41e044:	ffff ffff ffff ffff ffff ffff ffff ffff     ................
  41e054:	ffff ffff ffff ffff ffff ffff ffff ffff     ................
  41e064:	ffff ffff ffff ffff ffff ffff ffff ffff     ................
  41e074:	ffff ffff ffff ffff ffff ffff ffff ffff     ................
  41e084:	ffff ffff ffff ffff ffff ffff ffff ffff     ................
  41e094:	ffff ffff ffff ffff ffff ffff ffff ffff     ................
  41e0a4:	ffff ffff ffff ffff ffff ffff ffff ffff     ................
  41e0b4:	ffff ffff ffff ffff ffff ffff ffff ffff     ................
  41e0c4:	ffff ffff ffff ffff ffff ffff ffff ffff     ................
  41e0d4:	ffff ffff ffff ffff ffff ffff ffff ffff     ................
  41e0e4:	ffff ffff ffff ffff ffff ffff ffff ffff     ................
  41e0f4:	ffff ffff ffff ffff ffff ffff ffff ffff     ................
  41e104:	ffff ffff ffff ffff ffff ffff ffff ffff     ................
  41e114:	ffff ffff ffff ffff ffff ffff ffff ffff     ................
  41e124:	ffff ffff ffff ffff ffff ffff ffff ffff     ................
  41e134:	ffff ffff ffff ffff ffff ffff ffff ffff     ................
  41e144:	ffff ffff ffff ffff ffff ffff ffff ffff     ................
  41e154:	ffff ffff ffff ffff ffff ffff ffff ffff     ................
  41e164:	ffff ffff ffff ffff ffff ffff ffff ffff     ................
  41e174:	ffff ffff ffff ffff ffff ffff ffff ffff     ................
  41e184:	ffff ffff ffff ffff ffff ffff ffff ffff     ................
  41e194:	ffff ffff ffff ffff ffff ffff ffff ffff     ................
  41e1a4:	ffff ffff ffff ffff ffff ffff ffff ffff     ................
  41e1b4:	ffff ffff ffff ffff ffff ffff ffff ffff     ................
  41e1c4:	ffff ffff ffff ffff ffff ffff ffff ffff     ................
  41e1d4:	ffff ffff ffff ffff ffff ffff ffff ffff     ................
  41e1e4:	ffff ffff ffff ffff ffff ffff ffff ffff     ................
  41e1f4:	ffff ffff ffff ffff ffff ffff ffff ffff     ................
  41e204:	ffff ffff ffff ffff ffff ffff ffff ffff     ................
  41e214:	ffff ffff ffff ffff ffff ffff ffff ffff     ................
  41e224:	ffff ffff ffff ffff ffff ffff ffff ffff     ................
  41e234:	ffff ffff ffff ffff ffff ffff ffff ffff     ................
  41e244:	ffff ffff ffff ffff ffff ffff ffff ffff     ................
  41e254:	ffff ffff ffff ffff ffff ffff ffff ffff     ................
  41e264:	ffff ffff ffff ffff ffff ffff ffff ffff     ................
  41e274:	ffff ffff ffff ffff ffff ffff ffff ffff     ................
  41e284:	ffff ffff ffff ffff ffff ffff ffff ffff     ................
  41e294:	ffff ffff ffff ffff ffff ffff ffff ffff     ................
  41e2a4:	ffff ffff ffff ffff ffff ffff ffff ffff     ................
  41e2b4:	ffff ffff ffff ffff ffff ffff ffff ffff     ................
  41e2c4:	ffff ffff ffff ffff ffff ffff ffff ffff     ................
  41e2d4:	ffff ffff ffff ffff ffff ffff ffff ffff     ................
  41e2e4:	ffff ffff ffff ffff ffff ffff ffff ffff     ................
  41e2f4:	ffff ffff ffff ffff ffff ffff ffff ffff     ................
  41e304:	ffff ffff ffff ffff ffff ffff ffff ffff     ................
  41e314:	ffff ffff ffff ffff ffff ffff ffff ffff     ................
  41e324:	ffff ffff ffff ffff ffff ffff ffff ffff     ................
  41e334:	ffff ffff ffff ffff ffff ffff ffff ffff     ................
  41e344:	ffff ffff ffff ffff ffff ffff ffff ffff     ................
  41e354:	ffff ffff ffff ffff ffff ffff ffff ffff     ................
  41e364:	ffff ffff ffff ffff ffff ffff ffff ffff     ................
  41e374:	ffff ffff ffff ffff ffff ffff ffff ffff     ................
  41e384:	ffff ffff ffff ffff ffff ffff ffff ffff     ................
  41e394:	ffff ffff ffff ffff ffff ffff ffff ffff     ................
  41e3a4:	ffff ffff ffff ffff ffff ffff ffff ffff     ................
  41e3b4:	ffff ffff ffff ffff ffff ffff ffff ffff     ................
  41e3c4:	ffff ffff ffff ffff ffff ffff ffff ffff     ................
  41e3d4:	ffff ffff ffff ffff ffff ffff ffff ffff     ................
  41e3e4:	ffff ffff ffff ffff ffff ffff ffff ffff     ................
  41e3f4:	ffff ffff ffff ffff ffff ffff ffff ffff     ................
  41e404:	ffff ffff ffff ffff ffff ffff ffff ffff     ................
  41e414:	ffff ffff ffff ffff ffff ffff ffff ffff     ................
  41e424:	ffff ffff ffff ffff ffff ffff ffff ffff     ................
  41e434:	ffff ffff ffff ffff ffff ffff ffff ffff     ................
  41e444:	ffff ffff ffff ffff ffff ffff ffff ffff     ................
  41e454:	ffff ffff ffff ffff ffff ffff ffff ffff     ................
  41e464:	ffff ffff ffff ffff ffff ffff ffff ffff     ................
  41e474:	ffff ffff ffff ffff ffff ffff ffff ffff     ................
  41e484:	ffff ffff ffff ffff ffff ffff ffff ffff     ................
  41e494:	ffff ffff ffff ffff ffff ffff ffff ffff     ................
  41e4a4:	ffff ffff ffff ffff ffff ffff ffff ffff     ................
  41e4b4:	ffff ffff ffff ffff ffff ffff ffff ffff     ................
  41e4c4:	ffff ffff ffff ffff ffff ffff ffff ffff     ................
  41e4d4:	ffff ffff ffff ffff ffff ffff ffff ffff     ................
  41e4e4:	ffff ffff ffff ffff ffff ffff ffff ffff     ................
  41e4f4:	ffff ffff ffff ffff ffff ffff ffff ffff     ................
  41e504:	ffff ffff ffff ffff ffff ffff ffff ffff     ................
  41e514:	ffff ffff ffff ffff ffff ffff ffff ffff     ................
  41e524:	ffff ffff ffff ffff ffff ffff ffff ffff     ................
  41e534:	ffff ffff ffff ffff ffff ffff ffff ffff     ................
  41e544:	ffff ffff ffff ffff ffff ffff ffff ffff     ................
  41e554:	ffff ffff ffff ffff ffff ffff ffff ffff     ................
  41e564:	ffff ffff ffff ffff ffff ffff ffff ffff     ................
  41e574:	ffff ffff ffff ffff ffff ffff ffff ffff     ................
  41e584:	ffff ffff ffff ffff ffff ffff ffff ffff     ................
  41e594:	ffff ffff ffff ffff ffff ffff ffff ffff     ................
  41e5a4:	ffff ffff ffff ffff ffff ffff ffff ffff     ................
  41e5b4:	ffff ffff ffff ffff ffff ffff ffff ffff     ................
  41e5c4:	ffff ffff ffff ffff ffff ffff ffff ffff     ................
  41e5d4:	ffff ffff ffff ffff ffff ffff ffff ffff     ................
  41e5e4:	ffff ffff ffff ffff ffff ffff ffff ffff     ................
  41e5f4:	ffff ffff ffff ffff ffff ffff ffff ffff     ................
  41e604:	ffff ffff ffff ffff ffff ffff ffff ffff     ................
  41e614:	ffff ffff ffff ffff ffff ffff ffff ffff     ................
  41e624:	ffff ffff ffff ffff ffff ffff ffff ffff     ................
  41e634:	ffff ffff ffff ffff ffff ffff ffff ffff     ................
  41e644:	ffff ffff ffff ffff ffff ffff ffff ffff     ................
  41e654:	ffff ffff ffff ffff ffff ffff ffff ffff     ................
  41e664:	ffff ffff ffff ffff ffff ffff ffff ffff     ................
  41e674:	ffff ffff ffff ffff ffff ffff ffff ffff     ................
  41e684:	ffff ffff ffff ffff ffff ffff ffff ffff     ................
  41e694:	ffff ffff ffff ffff ffff ffff ffff ffff     ................
  41e6a4:	ffff ffff ffff ffff ffff ffff ffff ffff     ................
  41e6b4:	ffff ffff ffff ffff ffff ffff ffff ffff     ................
  41e6c4:	ffff ffff ffff ffff ffff ffff ffff ffff     ................
  41e6d4:	ffff ffff ffff ffff ffff ffff ffff ffff     ................
  41e6e4:	ffff ffff ffff ffff ffff ffff ffff ffff     ................
  41e6f4:	ffff ffff ffff ffff ffff ffff ffff ffff     ................
  41e704:	ffff ffff ffff ffff ffff ffff ffff ffff     ................
  41e714:	ffff ffff ffff ffff ffff ffff ffff ffff     ................
  41e724:	ffff ffff ffff ffff ffff ffff ffff ffff     ................
  41e734:	ffff ffff ffff ffff ffff ffff ffff ffff     ................
  41e744:	ffff ffff ffff ffff ffff ffff ffff ffff     ................
  41e754:	ffff ffff ffff ffff ffff ffff ffff ffff     ................
  41e764:	ffff ffff ffff ffff ffff ffff ffff ffff     ................
  41e774:	ffff ffff ffff ffff ffff ffff ffff ffff     ................
  41e784:	ffff ffff ffff ffff ffff ffff ffff ffff     ................
  41e794:	ffff ffff ffff ffff ffff ffff ffff ffff     ................
  41e7a4:	ffff ffff ffff ffff ffff ffff ffff ffff     ................
  41e7b4:	ffff ffff ffff ffff ffff ffff ffff ffff     ................
  41e7c4:	ffff ffff ffff ffff ffff ffff ffff ffff     ................
  41e7d4:	ffff ffff ffff ffff ffff ffff ffff ffff     ................
  41e7e4:	ffff ffff ffff ffff ffff ffff ffff ffff     ................
  41e7f4:	ffff ffff ffff ffff ffff ffff ffff ffff     ................
  41e804:	ffff ffff ffff ffff ffff ffff ffff ffff     ................
  41e814:	ffff ffff ffff ffff ffff ffff ffff ffff     ................
  41e824:	ffff ffff ffff ffff ffff ffff ffff ffff     ................
  41e834:	ffff ffff ffff ffff ffff ffff ffff ffff     ................
  41e844:	ffff ffff ffff ffff ffff ffff ffff ffff     ................
  41e854:	ffff ffff ffff ffff ffff ffff ffff ffff     ................
  41e864:	ffff ffff ffff ffff ffff ffff ffff ffff     ................
  41e874:	ffff ffff ffff ffff ffff ffff ffff ffff     ................
  41e884:	ffff ffff ffff ffff ffff ffff ffff ffff     ................
  41e894:	ffff ffff ffff ffff ffff ffff ffff ffff     ................
  41e8a4:	ffff ffff ffff ffff ffff ffff ffff ffff     ................
  41e8b4:	ffff ffff ffff ffff ffff ffff ffff ffff     ................
  41e8c4:	ffff ffff ffff ffff ffff ffff ffff ffff     ................
  41e8d4:	ffff ffff ffff ffff ffff ffff ffff ffff     ................
  41e8e4:	ffff ffff ffff ffff ffff ffff ffff ffff     ................
  41e8f4:	ffff ffff ffff ffff ffff ffff ffff ffff     ................
  41e904:	ffff ffff ffff ffff ffff ffff ffff ffff     ................
  41e914:	ffff ffff ffff ffff ffff ffff ffff ffff     ................
  41e924:	ffff ffff ffff ffff ffff ffff ffff ffff     ................
  41e934:	ffff ffff ffff ffff ffff ffff ffff ffff     ................
  41e944:	ffff ffff ffff ffff ffff ffff ffff ffff     ................
  41e954:	ffff ffff ffff ffff ffff ffff ffff ffff     ................
  41e964:	ffff ffff ffff ffff ffff ffff ffff ffff     ................
  41e974:	ffff ffff ffff ffff ffff ffff ffff ffff     ................
  41e984:	ffff ffff ffff ffff ffff ffff ffff ffff     ................
  41e994:	ffff ffff ffff ffff ffff ffff ffff ffff     ................
  41e9a4:	ffff ffff ffff ffff ffff ffff ffff ffff     ................
  41e9b4:	ffff ffff ffff ffff ffff ffff ffff ffff     ................
  41e9c4:	ffff ffff ffff ffff ffff ffff ffff ffff     ................
  41e9d4:	ffff ffff ffff ffff ffff ffff ffff ffff     ................
  41e9e4:	ffff ffff ffff ffff ffff ffff ffff ffff     ................
  41e9f4:	ffff ffff ffff ffff ffff ffff ffff ffff     ................
  41ea04:	ffff ffff ffff ffff ffff ffff ffff ffff     ................
  41ea14:	ffff ffff ffff ffff ffff ffff ffff ffff     ................
  41ea24:	ffff ffff ffff ffff ffff ffff ffff ffff     ................
  41ea34:	ffff ffff ffff ffff ffff ffff ffff ffff     ................
  41ea44:	ffff ffff ffff ffff ffff ffff ffff ffff     ................
  41ea54:	ffff ffff ffff ffff ffff ffff ffff ffff     ................
  41ea64:	ffff ffff ffff ffff ffff ffff ffff ffff     ................
  41ea74:	ffff ffff ffff ffff ffff ffff ffff ffff     ................
  41ea84:	ffff ffff ffff ffff ffff ffff ffff ffff     ................
  41ea94:	ffff ffff ffff ffff ffff ffff ffff ffff     ................
  41eaa4:	ffff ffff ffff ffff ffff ffff ffff ffff     ................
  41eab4:	ffff ffff ffff ffff ffff ffff ffff ffff     ................
  41eac4:	ffff ffff ffff ffff ffff ffff ffff ffff     ................
  41ead4:	ffff ffff ffff ffff ffff ffff ffff ffff     ................
  41eae4:	ffff ffff ffff ffff ffff ffff ffff ffff     ................
  41eaf4:	ffff ffff ffff ffff ffff ffff ffff ffff     ................
  41eb04:	ffff ffff ffff ffff ffff ffff ffff ffff     ................
  41eb14:	ffff ffff ffff ffff ffff ffff ffff ffff     ................
  41eb24:	ffff ffff ffff ffff ffff ffff ffff ffff     ................
  41eb34:	ffff ffff ffff ffff ffff ffff ffff ffff     ................
  41eb44:	ffff ffff ffff ffff ffff ffff ffff ffff     ................
  41eb54:	ffff ffff ffff ffff ffff ffff ffff ffff     ................
  41eb64:	ffff ffff ffff ffff ffff ffff ffff ffff     ................
  41eb74:	ffff ffff ffff ffff ffff ffff ffff ffff     ................
  41eb84:	ffff ffff ffff ffff ffff ffff ffff ffff     ................
  41eb94:	ffff ffff ffff ffff ffff ffff ffff ffff     ................
  41eba4:	ffff ffff ffff ffff ffff ffff ffff ffff     ................
  41ebb4:	ffff ffff ffff ffff ffff ffff ffff ffff     ................
  41ebc4:	ffff ffff ffff ffff ffff ffff ffff ffff     ................
  41ebd4:	ffff ffff ffff ffff ffff ffff ffff ffff     ................
  41ebe4:	ffff ffff ffff ffff ffff ffff ffff ffff     ................
  41ebf4:	ffff ffff ffff ffff ffff ffff ffff ffff     ................
  41ec04:	ffff ffff ffff ffff ffff ffff ffff ffff     ................
  41ec14:	ffff ffff ffff ffff ffff ffff ffff ffff     ................
  41ec24:	ffff ffff ffff ffff ffff ffff ffff ffff     ................
  41ec34:	ffff ffff ffff ffff ffff ffff ffff ffff     ................
  41ec44:	ffff ffff ffff ffff ffff ffff ffff ffff     ................
  41ec54:	ffff ffff ffff ffff ffff ffff ffff ffff     ................
  41ec64:	ffff ffff ffff ffff ffff ffff ffff ffff     ................
  41ec74:	ffff ffff ffff ffff ffff ffff ffff ffff     ................
  41ec84:	ffff ffff ffff ffff ffff ffff ffff ffff     ................
  41ec94:	ffff ffff ffff ffff ffff ffff ffff ffff     ................
  41eca4:	ffff ffff ffff ffff ffff ffff ffff ffff     ................
  41ecb4:	ffff ffff ffff ffff ffff ffff ffff ffff     ................
  41ecc4:	ffff ffff ffff ffff ffff ffff ffff ffff     ................
  41ecd4:	ffff ffff ffff ffff ffff ffff ffff ffff     ................
  41ece4:	ffff ffff ffff ffff ffff ffff ffff ffff     ................
  41ecf4:	ffff ffff ffff ffff ffff ffff ffff ffff     ................
  41ed04:	ffff ffff ffff ffff ffff ffff ffff ffff     ................
  41ed14:	ffff ffff ffff ffff ffff ffff ffff ffff     ................
  41ed24:	ffff ffff ffff ffff ffff ffff ffff ffff     ................
  41ed34:	ffff ffff ffff ffff ffff ffff ffff ffff     ................
  41ed44:	ffff ffff ffff ffff ffff ffff ffff ffff     ................
  41ed54:	ffff ffff ffff ffff ffff ffff ffff ffff     ................
  41ed64:	ffff ffff ffff ffff ffff ffff ffff ffff     ................
  41ed74:	ffff ffff ffff ffff ffff ffff ffff ffff     ................
  41ed84:	ffff ffff ffff ffff ffff ffff ffff ffff     ................
  41ed94:	ffff ffff ffff ffff ffff ffff ffff ffff     ................
  41eda4:	ffff ffff ffff ffff ffff ffff ffff ffff     ................
  41edb4:	ffff ffff ffff ffff ffff ffff ffff ffff     ................
  41edc4:	ffff ffff ffff ffff ffff ffff ffff ffff     ................
  41edd4:	ffff ffff ffff ffff ffff ffff ffff ffff     ................
  41ede4:	ffff ffff ffff ffff ffff ffff ffff ffff     ................
  41edf4:	ffff ffff ffff ffff ffff ffff ffff ffff     ................
  41ee04:	ffff ffff ffff ffff ffff ffff ffff ffff     ................
  41ee14:	ffff ffff ffff ffff ffff ffff ffff ffff     ................
  41ee24:	ffff ffff ffff ffff ffff ffff ffff ffff     ................
  41ee34:	ffff ffff ffff ffff ffff ffff ffff ffff     ................
  41ee44:	ffff ffff ffff ffff ffff ffff ffff ffff     ................
  41ee54:	ffff ffff ffff ffff ffff ffff ffff ffff     ................
  41ee64:	ffff ffff ffff ffff ffff ffff ffff ffff     ................
  41ee74:	ffff ffff ffff ffff ffff ffff ffff ffff     ................
  41ee84:	ffff ffff ffff ffff ffff ffff ffff ffff     ................
  41ee94:	ffff ffff ffff ffff ffff ffff ffff ffff     ................
  41eea4:	ffff ffff ffff ffff ffff ffff ffff ffff     ................
  41eeb4:	ffff ffff ffff ffff ffff ffff ffff ffff     ................
  41eec4:	ffff ffff ffff ffff ffff ffff ffff ffff     ................
  41eed4:	ffff ffff ffff ffff ffff ffff ffff ffff     ................
  41eee4:	ffff ffff ffff ffff ffff ffff ffff ffff     ................
  41eef4:	ffff ffff ffff ffff ffff ffff ffff ffff     ................
  41ef04:	ffff ffff ffff ffff ffff ffff ffff ffff     ................
  41ef14:	ffff ffff ffff ffff ffff ffff ffff ffff     ................
  41ef24:	ffff ffff ffff ffff ffff ffff ffff ffff     ................
  41ef34:	ffff ffff ffff ffff ffff ffff ffff ffff     ................
  41ef44:	ffff ffff ffff ffff ffff ffff ffff ffff     ................
  41ef54:	ffff ffff ffff ffff ffff ffff ffff ffff     ................
  41ef64:	ffff ffff ffff ffff ffff ffff ffff ffff     ................
  41ef74:	ffff ffff ffff ffff ffff ffff ffff ffff     ................
  41ef84:	ffff ffff ffff ffff ffff ffff ffff ffff     ................
  41ef94:	ffff ffff ffff ffff ffff ffff ffff ffff     ................
  41efa4:	ffff ffff ffff ffff ffff ffff ffff ffff     ................
  41efb4:	ffff ffff ffff ffff ffff ffff ffff ffff     ................
  41efc4:	ffff ffff ffff ffff ffff ffff ffff ffff     ................
  41efd4:	ffff ffff ffff ffff ffff ffff ffff ffff     ................
  41efe4:	ffff ffff ffff ffff ffff ffff ffff ffff     ................
  41eff4:	ffff ffff ffff ffff ffff ffff ffff ffff     ................
  41f004:	ffff ffff ffff ffff ffff ffff ffff ffff     ................
  41f014:	ffff ffff ffff ffff ffff ffff ffff ffff     ................
  41f024:	ffff ffff ffff ffff ffff ffff ffff ffff     ................
  41f034:	ffff ffff ffff ffff ffff ffff ffff ffff     ................
  41f044:	ffff ffff ffff ffff ffff ffff ffff ffff     ................
  41f054:	ffff ffff ffff ffff ffff ffff ffff ffff     ................
  41f064:	ffff ffff ffff ffff ffff ffff ffff ffff     ................
  41f074:	ffff ffff ffff ffff ffff ffff ffff ffff     ................
  41f084:	ffff ffff ffff ffff ffff ffff ffff ffff     ................
  41f094:	ffff ffff ffff ffff ffff ffff ffff ffff     ................
  41f0a4:	ffff ffff ffff ffff ffff ffff ffff ffff     ................
  41f0b4:	ffff ffff ffff ffff ffff ffff ffff ffff     ................
  41f0c4:	ffff ffff ffff ffff ffff ffff ffff ffff     ................
  41f0d4:	ffff ffff ffff ffff ffff ffff ffff ffff     ................
  41f0e4:	ffff ffff ffff ffff ffff ffff ffff ffff     ................
  41f0f4:	ffff ffff ffff ffff ffff ffff ffff ffff     ................
  41f104:	ffff ffff ffff ffff ffff ffff ffff ffff     ................
  41f114:	ffff ffff ffff ffff ffff ffff ffff ffff     ................
  41f124:	ffff ffff ffff ffff ffff ffff ffff ffff     ................
  41f134:	ffff ffff ffff ffff ffff ffff ffff ffff     ................
  41f144:	ffff ffff ffff ffff ffff ffff ffff ffff     ................
  41f154:	ffff ffff ffff ffff ffff ffff ffff ffff     ................
  41f164:	ffff ffff ffff ffff ffff ffff ffff ffff     ................
  41f174:	ffff ffff ffff ffff ffff ffff ffff ffff     ................
  41f184:	ffff ffff ffff ffff ffff ffff ffff ffff     ................
  41f194:	ffff ffff ffff ffff ffff ffff ffff ffff     ................
  41f1a4:	ffff ffff ffff ffff ffff ffff ffff ffff     ................
  41f1b4:	ffff ffff ffff ffff ffff ffff ffff ffff     ................
  41f1c4:	ffff ffff ffff ffff ffff ffff ffff ffff     ................
  41f1d4:	ffff ffff ffff ffff ffff ffff ffff ffff     ................
  41f1e4:	ffff ffff ffff ffff ffff ffff ffff ffff     ................
  41f1f4:	ffff ffff ffff ffff ffff ffff ffff ffff     ................
  41f204:	ffff ffff ffff ffff ffff ffff ffff ffff     ................
  41f214:	ffff ffff ffff ffff ffff ffff ffff ffff     ................
  41f224:	ffff ffff ffff ffff ffff ffff ffff ffff     ................
  41f234:	ffff ffff ffff ffff ffff ffff ffff ffff     ................
  41f244:	ffff ffff ffff ffff ffff ffff ffff ffff     ................
  41f254:	ffff ffff ffff ffff ffff ffff ffff ffff     ................
  41f264:	ffff ffff ffff ffff ffff ffff ffff ffff     ................
  41f274:	ffff ffff ffff ffff ffff ffff ffff ffff     ................
  41f284:	ffff ffff ffff ffff ffff ffff ffff ffff     ................
  41f294:	ffff ffff ffff ffff ffff ffff ffff ffff     ................
  41f2a4:	ffff ffff ffff ffff ffff ffff ffff ffff     ................
  41f2b4:	ffff ffff ffff ffff ffff ffff ffff ffff     ................
  41f2c4:	ffff ffff ffff ffff ffff ffff ffff ffff     ................
  41f2d4:	ffff ffff ffff ffff ffff ffff ffff ffff     ................
  41f2e4:	ffff ffff ffff ffff ffff ffff ffff ffff     ................
  41f2f4:	ffff ffff ffff ffff ffff ffff ffff ffff     ................
  41f304:	ffff ffff ffff ffff ffff ffff ffff ffff     ................
  41f314:	ffff ffff ffff ffff ffff ffff ffff ffff     ................
  41f324:	ffff ffff ffff ffff ffff ffff ffff ffff     ................
  41f334:	ffff ffff ffff ffff ffff ffff ffff ffff     ................
  41f344:	ffff ffff ffff ffff ffff ffff ffff ffff     ................
  41f354:	ffff ffff ffff ffff ffff ffff ffff ffff     ................
  41f364:	ffff ffff ffff ffff ffff ffff ffff ffff     ................
  41f374:	ffff ffff ffff ffff ffff ffff ffff ffff     ................
  41f384:	ffff ffff ffff ffff ffff ffff ffff ffff     ................
  41f394:	ffff ffff ffff ffff ffff ffff ffff ffff     ................
  41f3a4:	ffff ffff ffff ffff ffff ffff ffff ffff     ................
  41f3b4:	ffff ffff ffff ffff ffff ffff ffff ffff     ................
  41f3c4:	ffff ffff ffff ffff ffff ffff ffff ffff     ................
  41f3d4:	ffff ffff ffff ffff ffff ffff ffff ffff     ................
  41f3e4:	ffff ffff ffff ffff ffff ffff ffff ffff     ................
  41f3f4:	ffff ffff ffff ffff ffff ffff ffff ffff     ................
  41f404:	ffff ffff ffff ffff ffff ffff ffff ffff     ................
  41f414:	ffff ffff ffff ffff ffff ffff ffff ffff     ................
  41f424:	ffff ffff ffff ffff ffff ffff ffff ffff     ................
  41f434:	ffff ffff ffff ffff ffff ffff ffff ffff     ................
  41f444:	ffff ffff ffff ffff ffff ffff ffff ffff     ................
  41f454:	ffff ffff ffff ffff ffff ffff ffff ffff     ................
  41f464:	ffff ffff ffff ffff ffff ffff ffff ffff     ................
  41f474:	ffff ffff ffff ffff ffff ffff ffff ffff     ................
  41f484:	ffff ffff ffff ffff ffff ffff ffff ffff     ................
  41f494:	ffff ffff ffff ffff ffff ffff ffff ffff     ................
  41f4a4:	ffff ffff ffff ffff ffff ffff ffff ffff     ................
  41f4b4:	ffff ffff ffff ffff ffff ffff ffff ffff     ................
  41f4c4:	ffff ffff ffff ffff ffff ffff ffff ffff     ................
  41f4d4:	ffff ffff ffff ffff ffff ffff ffff ffff     ................
  41f4e4:	ffff ffff ffff ffff ffff ffff ffff ffff     ................
  41f4f4:	ffff ffff ffff ffff ffff ffff ffff ffff     ................
  41f504:	ffff ffff ffff ffff ffff ffff ffff ffff     ................
  41f514:	ffff ffff ffff ffff ffff ffff ffff ffff     ................
  41f524:	ffff ffff ffff ffff ffff ffff ffff ffff     ................
  41f534:	ffff ffff ffff ffff ffff ffff ffff ffff     ................
  41f544:	ffff ffff ffff ffff ffff ffff ffff ffff     ................
  41f554:	ffff ffff ffff ffff ffff ffff ffff ffff     ................
  41f564:	ffff ffff ffff ffff ffff ffff ffff ffff     ................
  41f574:	ffff ffff ffff ffff ffff ffff ffff ffff     ................
  41f584:	ffff ffff ffff ffff ffff ffff ffff ffff     ................
  41f594:	ffff ffff ffff ffff ffff ffff ffff ffff     ................
  41f5a4:	ffff ffff ffff ffff ffff ffff ffff ffff     ................
  41f5b4:	ffff ffff ffff ffff ffff ffff ffff ffff     ................
  41f5c4:	ffff ffff ffff ffff ffff ffff ffff ffff     ................
  41f5d4:	ffff ffff ffff ffff ffff ffff ffff ffff     ................
  41f5e4:	ffff ffff ffff ffff ffff ffff ffff ffff     ................
  41f5f4:	ffff ffff ffff ffff ffff ffff ffff ffff     ................
  41f604:	ffff ffff ffff ffff ffff ffff ffff ffff     ................
  41f614:	ffff ffff ffff ffff ffff ffff ffff ffff     ................
  41f624:	ffff ffff ffff ffff ffff ffff ffff ffff     ................
  41f634:	ffff ffff ffff ffff ffff ffff ffff ffff     ................
  41f644:	ffff ffff ffff ffff ffff ffff ffff ffff     ................
  41f654:	ffff ffff ffff ffff ffff ffff ffff ffff     ................
  41f664:	ffff ffff ffff ffff ffff ffff ffff ffff     ................
  41f674:	ffff ffff ffff ffff ffff ffff ffff ffff     ................
  41f684:	ffff ffff ffff ffff ffff ffff ffff ffff     ................
  41f694:	ffff ffff ffff ffff ffff ffff ffff ffff     ................
  41f6a4:	ffff ffff ffff ffff ffff ffff ffff ffff     ................
  41f6b4:	ffff ffff ffff ffff ffff ffff ffff ffff     ................
  41f6c4:	ffff ffff ffff ffff ffff ffff ffff ffff     ................
  41f6d4:	ffff ffff ffff ffff ffff ffff ffff ffff     ................
  41f6e4:	ffff ffff ffff ffff ffff ffff ffff ffff     ................
  41f6f4:	ffff ffff ffff ffff ffff ffff ffff ffff     ................
  41f704:	ffff ffff ffff ffff ffff ffff ffff ffff     ................
  41f714:	ffff ffff ffff ffff ffff ffff ffff ffff     ................
  41f724:	ffff ffff ffff ffff ffff ffff ffff ffff     ................
  41f734:	ffff ffff ffff ffff ffff ffff ffff ffff     ................
  41f744:	ffff ffff ffff ffff ffff ffff ffff ffff     ................
  41f754:	ffff ffff ffff ffff ffff ffff ffff ffff     ................
  41f764:	ffff ffff ffff ffff ffff ffff ffff ffff     ................
  41f774:	ffff ffff ffff ffff ffff ffff ffff ffff     ................
  41f784:	ffff ffff ffff ffff ffff ffff ffff ffff     ................
  41f794:	ffff ffff ffff ffff ffff ffff ffff ffff     ................
  41f7a4:	ffff ffff ffff ffff ffff ffff ffff ffff     ................
  41f7b4:	ffff ffff ffff ffff ffff ffff ffff ffff     ................
  41f7c4:	ffff ffff ffff ffff ffff ffff ffff ffff     ................
  41f7d4:	ffff ffff ffff ffff ffff ffff ffff ffff     ................
  41f7e4:	ffff ffff ffff ffff ffff ffff ffff ffff     ................
  41f7f4:	ffff ffff ffff ffff ffff ffff ffff ffff     ................
  41f804:	ffff ffff ffff ffff ffff ffff ffff ffff     ................
  41f814:	ffff ffff ffff ffff ffff ffff ffff ffff     ................
  41f824:	ffff ffff ffff ffff ffff ffff ffff ffff     ................
  41f834:	ffff ffff ffff ffff ffff ffff ffff ffff     ................
  41f844:	ffff ffff ffff ffff ffff ffff ffff ffff     ................
  41f854:	ffff ffff ffff ffff ffff ffff ffff ffff     ................
  41f864:	ffff ffff ffff ffff ffff ffff ffff ffff     ................
  41f874:	ffff ffff ffff ffff ffff ffff ffff ffff     ................
  41f884:	ffff ffff ffff ffff ffff ffff ffff ffff     ................
  41f894:	ffff ffff ffff ffff ffff ffff ffff ffff     ................
  41f8a4:	ffff ffff ffff ffff ffff ffff ffff ffff     ................
  41f8b4:	ffff ffff ffff ffff ffff ffff ffff ffff     ................
  41f8c4:	ffff ffff ffff ffff ffff ffff ffff ffff     ................
  41f8d4:	ffff ffff ffff ffff ffff ffff ffff ffff     ................
  41f8e4:	ffff ffff ffff ffff ffff ffff ffff ffff     ................
  41f8f4:	ffff ffff ffff ffff ffff ffff ffff ffff     ................
  41f904:	ffff ffff ffff ffff ffff ffff ffff ffff     ................
  41f914:	ffff ffff ffff ffff ffff ffff ffff ffff     ................
  41f924:	ffff ffff ffff ffff ffff ffff ffff ffff     ................
  41f934:	ffff ffff ffff ffff ffff ffff ffff ffff     ................
  41f944:	ffff ffff ffff ffff ffff ffff ffff ffff     ................
  41f954:	ffff ffff ffff ffff ffff ffff ffff ffff     ................
  41f964:	ffff ffff ffff ffff ffff ffff ffff ffff     ................
  41f974:	ffff ffff ffff ffff ffff ffff ffff ffff     ................
  41f984:	ffff ffff ffff ffff ffff ffff ffff ffff     ................
  41f994:	ffff ffff ffff ffff ffff ffff ffff ffff     ................
  41f9a4:	ffff ffff ffff ffff ffff ffff ffff ffff     ................
  41f9b4:	ffff ffff ffff ffff ffff ffff ffff ffff     ................
  41f9c4:	ffff ffff ffff ffff ffff ffff ffff ffff     ................
  41f9d4:	ffff ffff ffff ffff ffff ffff ffff ffff     ................
  41f9e4:	ffff ffff ffff ffff ffff ffff ffff ffff     ................
  41f9f4:	ffff ffff ffff ffff ffff ffff ffff ffff     ................
  41fa04:	ffff ffff ffff ffff ffff ffff ffff ffff     ................
  41fa14:	ffff ffff ffff ffff ffff ffff ffff ffff     ................
  41fa24:	ffff ffff ffff ffff ffff ffff ffff ffff     ................
  41fa34:	ffff ffff ffff ffff ffff ffff ffff ffff     ................
  41fa44:	ffff ffff ffff ffff ffff ffff ffff ffff     ................
  41fa54:	ffff ffff ffff ffff ffff ffff ffff ffff     ................
  41fa64:	ffff ffff ffff ffff ffff ffff ffff ffff     ................
  41fa74:	ffff ffff ffff ffff ffff ffff ffff ffff     ................
  41fa84:	ffff ffff ffff ffff ffff ffff ffff ffff     ................
  41fa94:	ffff ffff ffff ffff ffff ffff ffff ffff     ................
  41faa4:	ffff ffff ffff ffff ffff ffff ffff ffff     ................
  41fab4:	ffff ffff ffff ffff ffff ffff ffff ffff     ................
  41fac4:	ffff ffff ffff ffff ffff ffff ffff ffff     ................
  41fad4:	ffff ffff ffff ffff ffff ffff ffff ffff     ................
  41fae4:	ffff ffff ffff ffff ffff ffff ffff ffff     ................
  41faf4:	ffff ffff ffff ffff ffff ffff ffff ffff     ................
  41fb04:	ffff ffff ffff ffff ffff ffff ffff ffff     ................
  41fb14:	ffff ffff ffff ffff ffff ffff ffff ffff     ................
  41fb24:	ffff ffff ffff ffff ffff ffff ffff ffff     ................
  41fb34:	ffff ffff ffff ffff ffff ffff ffff ffff     ................
  41fb44:	ffff ffff ffff ffff ffff ffff ffff ffff     ................
  41fb54:	ffff ffff ffff ffff ffff ffff ffff ffff     ................
  41fb64:	ffff ffff ffff ffff ffff ffff ffff ffff     ................
  41fb74:	ffff ffff ffff ffff ffff ffff ffff ffff     ................
  41fb84:	ffff ffff ffff ffff ffff ffff ffff ffff     ................
  41fb94:	ffff ffff ffff ffff ffff ffff ffff ffff     ................
  41fba4:	ffff ffff ffff ffff ffff ffff ffff ffff     ................
  41fbb4:	ffff ffff ffff ffff ffff ffff ffff ffff     ................
  41fbc4:	ffff ffff ffff ffff ffff ffff ffff ffff     ................
  41fbd4:	ffff ffff ffff ffff ffff ffff ffff ffff     ................
  41fbe4:	ffff ffff ffff ffff ffff ffff ffff ffff     ................
  41fbf4:	ffff ffff ffff ffff ffff ffff ffff ffff     ................
  41fc04:	ffff ffff ffff ffff ffff ffff ffff ffff     ................
  41fc14:	ffff ffff ffff ffff ffff ffff ffff ffff     ................
  41fc24:	ffff ffff ffff ffff ffff ffff ffff ffff     ................
  41fc34:	ffff ffff ffff ffff ffff ffff ffff ffff     ................
  41fc44:	ffff ffff ffff ffff ffff ffff ffff ffff     ................
  41fc54:	ffff ffff ffff ffff ffff ffff ffff ffff     ................
  41fc64:	ffff ffff ffff ffff ffff ffff ffff ffff     ................
  41fc74:	ffff ffff ffff ffff ffff ffff ffff ffff     ................
  41fc84:	ffff ffff ffff ffff ffff ffff ffff ffff     ................
  41fc94:	ffff ffff ffff ffff ffff ffff ffff ffff     ................
  41fca4:	ffff ffff ffff ffff ffff ffff ffff ffff     ................
  41fcb4:	ffff ffff ffff ffff ffff ffff ffff ffff     ................
  41fcc4:	ffff ffff ffff ffff ffff ffff ffff ffff     ................
  41fcd4:	ffff ffff ffff ffff ffff ffff ffff ffff     ................
  41fce4:	ffff ffff ffff ffff ffff ffff ffff ffff     ................
  41fcf4:	ffff ffff ffff ffff ffff ffff ffff ffff     ................
  41fd04:	ffff ffff ffff ffff ffff ffff ffff ffff     ................
  41fd14:	ffff ffff ffff ffff ffff ffff ffff ffff     ................
  41fd24:	ffff ffff ffff ffff ffff ffff ffff ffff     ................
  41fd34:	ffff ffff ffff ffff ffff ffff ffff ffff     ................
  41fd44:	ffff ffff ffff ffff ffff ffff ffff ffff     ................
  41fd54:	ffff ffff ffff ffff ffff ffff ffff ffff     ................
  41fd64:	ffff ffff ffff ffff ffff ffff ffff ffff     ................
  41fd74:	ffff ffff ffff ffff ffff ffff ffff ffff     ................
  41fd84:	ffff ffff ffff ffff ffff ffff ffff ffff     ................
  41fd94:	ffff ffff ffff ffff ffff ffff ffff ffff     ................
  41fda4:	ffff ffff ffff ffff ffff ffff ffff ffff     ................
  41fdb4:	ffff ffff ffff ffff ffff ffff ffff ffff     ................
  41fdc4:	ffff ffff ffff ffff ffff ffff ffff ffff     ................
  41fdd4:	ffff ffff ffff ffff ffff ffff ffff ffff     ................
  41fde4:	ffff ffff ffff ffff ffff ffff ffff ffff     ................
  41fdf4:	ffff ffff ffff ffff ffff ffff ffff ffff     ................
  41fe04:	ffff ffff ffff ffff ffff ffff ffff ffff     ................
  41fe14:	ffff ffff ffff ffff ffff ffff ffff ffff     ................
  41fe24:	ffff ffff ffff ffff ffff ffff ffff ffff     ................
  41fe34:	ffff ffff ffff ffff ffff ffff ffff ffff     ................
  41fe44:	ffff ffff ffff ffff ffff ffff ffff ffff     ................
  41fe54:	ffff ffff ffff ffff ffff ffff ffff ffff     ................
  41fe64:	ffff ffff ffff ffff ffff ffff ffff ffff     ................
  41fe74:	ffff ffff ffff ffff ffff ffff ffff ffff     ................
  41fe84:	ffff ffff ffff ffff ffff ffff ffff ffff     ................
  41fe94:	ffff ffff ffff ffff ffff ffff ffff ffff     ................
  41fea4:	ffff ffff ffff ffff ffff ffff ffff ffff     ................
  41feb4:	ffff ffff ffff ffff ffff ffff ffff ffff     ................
  41fec4:	ffff ffff ffff ffff ffff ffff ffff ffff     ................
  41fed4:	ffff ffff ffff ffff ffff ffff ffff ffff     ................
  41fee4:	ffff ffff ffff ffff ffff ffff ffff ffff     ................
  41fef4:	ffff ffff ffff ffff ffff ffff ffff ffff     ................
  41ff04:	ffff ffff ffff ffff ffff ffff ffff ffff     ................
  41ff14:	ffff ffff ffff ffff ffff ffff ffff ffff     ................
  41ff24:	ffff ffff ffff ffff ffff ffff ffff ffff     ................
  41ff34:	ffff ffff ffff ffff ffff ffff ffff ffff     ................
  41ff44:	ffff ffff ffff ffff ffff ffff ffff ffff     ................
  41ff54:	ffff ffff ffff ffff ffff ffff ffff ffff     ................
  41ff64:	ffff ffff ffff ffff ffff ffff ffff ffff     ................
  41ff74:	ffff ffff ffff ffff ffff ffff ffff ffff     ................
  41ff84:	ffff ffff ffff ffff ffff ffff ffff ffff     ................
  41ff94:	ffff ffff ffff ffff ffff ffff ffff ffff     ................
  41ffa4:	ffff ffff ffff ffff ffff ffff ffff ffff     ................
  41ffb4:	ffff ffff ffff ffff ffff ffff ffff ffff     ................
  41ffc4:	ffff ffff ffff ffff ffff ffff ffff ffff     ................
  41ffd4:	ffff ffff ffff ffff ffff ffff ffff ffff     ................
  41ffe4:	ffff ffff ffff ffff ffff ffff ffff ffff     ................
  41fff4:	ffff ffff ffff ffff ffff ffff ffff ffff     ................
  420004:	ffff ffff ffff ffff ffff ffff ffff ffff     ................
  420014:	ffff ffff ffff ffff ffff ffff ffff ffff     ................
  420024:	ffff ffff ffff ffff ffff ffff ffff ffff     ................
  420034:	ffff ffff ffff ffff ffff ffff ffff ffff     ................
  420044:	ffff ffff ffff ffff ffff ffff ffff ffff     ................
  420054:	ffff ffff ffff ffff ffff ffff ffff ffff     ................
  420064:	ffff ffff ffff ffff ffff ffff ffff ffff     ................
  420074:	ffff ffff ffff ffff ffff ffff ffff ffff     ................
  420084:	ffff ffff ffff ffff ffff ffff ffff ffff     ................
  420094:	ffff ffff ffff ffff ffff ffff ffff ffff     ................
  4200a4:	ffff ffff ffff ffff ffff ffff ffff ffff     ................
  4200b4:	ffff ffff ffff ffff ffff ffff ffff ffff     ................
  4200c4:	ffff ffff ffff ffff ffff ffff ffff ffff     ................
  4200d4:	ffff ffff ffff ffff ffff ffff ffff ffff     ................
  4200e4:	ffff ffff ffff ffff ffff ffff ffff ffff     ................
  4200f4:	ffff ffff ffff ffff ffff ffff ffff ffff     ................
  420104:	ffff ffff ffff ffff ffff ffff ffff ffff     ................
  420114:	ffff ffff ffff ffff ffff ffff ffff ffff     ................
  420124:	ffff ffff ffff ffff ffff ffff ffff ffff     ................
  420134:	ffff ffff ffff ffff ffff ffff ffff ffff     ................
  420144:	ffff ffff ffff ffff ffff ffff ffff ffff     ................
  420154:	ffff ffff ffff ffff ffff ffff ffff ffff     ................
  420164:	ffff ffff ffff ffff ffff ffff ffff ffff     ................
  420174:	ffff ffff ffff ffff ffff ffff ffff ffff     ................
  420184:	ffff ffff ffff ffff ffff ffff ffff ffff     ................
  420194:	ffff ffff ffff ffff ffff ffff ffff ffff     ................
  4201a4:	ffff ffff ffff ffff ffff ffff ffff ffff     ................
  4201b4:	ffff ffff ffff ffff ffff ffff ffff ffff     ................
  4201c4:	ffff ffff ffff ffff ffff ffff ffff ffff     ................
  4201d4:	ffff ffff ffff ffff ffff ffff ffff ffff     ................
  4201e4:	ffff ffff ffff ffff ffff ffff ffff ffff     ................
  4201f4:	ffff ffff ffff ffff ffff ffff ffff ffff     ................
  420204:	ffff ffff ffff ffff ffff ffff ffff ffff     ................
  420214:	ffff ffff ffff ffff ffff ffff ffff ffff     ................
  420224:	ffff ffff ffff ffff ffff ffff ffff ffff     ................
  420234:	ffff ffff ffff ffff ffff ffff ffff ffff     ................
  420244:	ffff ffff ffff ffff ffff ffff ffff ffff     ................
  420254:	ffff ffff ffff ffff ffff ffff ffff ffff     ................
  420264:	ffff ffff ffff ffff ffff ffff ffff ffff     ................
  420274:	ffff ffff ffff ffff ffff ffff ffff ffff     ................
  420284:	ffff ffff ffff ffff ffff ffff ffff ffff     ................
  420294:	ffff ffff ffff ffff ffff ffff ffff ffff     ................
  4202a4:	ffff ffff ffff ffff ffff ffff ffff ffff     ................
  4202b4:	ffff ffff ffff ffff ffff ffff ffff ffff     ................
  4202c4:	ffff ffff ffff ffff ffff ffff ffff ffff     ................
  4202d4:	ffff ffff ffff ffff ffff ffff ffff ffff     ................
  4202e4:	ffff ffff ffff ffff ffff ffff ffff ffff     ................
  4202f4:	ffff ffff ffff ffff ffff ffff ffff ffff     ................
  420304:	ffff ffff ffff ffff ffff ffff ffff ffff     ................
  420314:	ffff ffff ffff ffff ffff ffff ffff ffff     ................
  420324:	ffff ffff ffff ffff ffff ffff ffff ffff     ................
  420334:	ffff ffff ffff ffff ffff ffff ffff ffff     ................
  420344:	ffff ffff ffff ffff ffff ffff ffff ffff     ................
  420354:	ffff ffff ffff ffff ffff ffff ffff ffff     ................
  420364:	ffff ffff ffff ffff ffff ffff ffff ffff     ................
  420374:	ffff ffff ffff ffff ffff ffff ffff ffff     ................
  420384:	ffff ffff ffff ffff ffff ffff ffff ffff     ................
  420394:	ffff ffff ffff ffff ffff ffff ffff ffff     ................
  4203a4:	ffff ffff ffff ffff ffff ffff ffff ffff     ................
  4203b4:	ffff ffff ffff ffff ffff ffff ffff ffff     ................
  4203c4:	ffff ffff ffff ffff ffff ffff ffff ffff     ................
  4203d4:	ffff ffff ffff ffff ffff ffff ffff ffff     ................
  4203e4:	ffff ffff ffff ffff ffff ffff ffff ffff     ................
  4203f4:	ffff ffff ffff ffff ffff ffff ffff ffff     ................
  420404:	ffff ffff ffff ffff ffff ffff ffff ffff     ................
  420414:	ffff ffff ffff ffff ffff ffff ffff ffff     ................
  420424:	ffff ffff ffff ffff ffff ffff ffff ffff     ................
  420434:	ffff ffff ffff ffff ffff ffff ffff ffff     ................
  420444:	ffff ffff ffff ffff ffff ffff ffff ffff     ................
  420454:	ffff ffff ffff ffff ffff ffff ffff ffff     ................
  420464:	ffff ffff ffff ffff ffff ffff ffff ffff     ................
  420474:	ffff ffff ffff ffff ffff ffff ffff ffff     ................
  420484:	ffff ffff ffff ffff ffff ffff ffff ffff     ................
  420494:	ffff ffff ffff ffff ffff ffff ffff ffff     ................
  4204a4:	ffff ffff ffff ffff ffff ffff ffff ffff     ................
  4204b4:	ffff ffff ffff ffff ffff ffff ffff ffff     ................
  4204c4:	ffff ffff ffff ffff ffff ffff ffff ffff     ................
  4204d4:	ffff ffff ffff ffff ffff ffff ffff ffff     ................
  4204e4:	ffff ffff ffff ffff ffff ffff ffff ffff     ................
  4204f4:	ffff ffff ffff ffff ffff ffff ffff ffff     ................
  420504:	ffff ffff ffff ffff ffff ffff ffff ffff     ................
  420514:	ffff ffff ffff ffff ffff ffff ffff ffff     ................
  420524:	ffff ffff ffff ffff ffff ffff ffff ffff     ................
  420534:	ffff ffff ffff ffff ffff ffff ffff ffff     ................
  420544:	ffff ffff ffff ffff ffff ffff ffff ffff     ................
  420554:	ffff ffff ffff ffff ffff ffff ffff ffff     ................
  420564:	ffff ffff ffff ffff ffff ffff ffff ffff     ................
  420574:	ffff ffff ffff ffff ffff ffff ffff ffff     ................
  420584:	ffff ffff ffff ffff ffff ffff ffff ffff     ................
  420594:	ffff ffff ffff ffff ffff ffff ffff ffff     ................
  4205a4:	ffff ffff ffff ffff ffff ffff ffff ffff     ................
  4205b4:	ffff ffff ffff ffff ffff ffff ffff ffff     ................
  4205c4:	ffff ffff ffff ffff ffff ffff ffff ffff     ................
  4205d4:	ffff ffff ffff ffff ffff ffff ffff ffff     ................
  4205e4:	ffff ffff ffff ffff ffff ffff ffff ffff     ................
  4205f4:	ffff ffff ffff ffff ffff ffff ffff ffff     ................
  420604:	ffff ffff ffff ffff ffff ffff ffff ffff     ................
  420614:	ffff ffff ffff ffff ffff ffff ffff ffff     ................
  420624:	ffff ffff ffff ffff ffff ffff ffff ffff     ................
  420634:	ffff ffff ffff ffff ffff ffff ffff ffff     ................
  420644:	ffff ffff ffff ffff ffff ffff ffff ffff     ................
  420654:	ffff ffff ffff ffff ffff ffff ffff ffff     ................
  420664:	ffff ffff ffff ffff ffff ffff ffff ffff     ................
  420674:	ffff ffff ffff ffff ffff ffff ffff ffff     ................
  420684:	ffff ffff ffff ffff ffff ffff ffff ffff     ................
  420694:	ffff ffff ffff ffff ffff ffff ffff ffff     ................
  4206a4:	ffff ffff ffff ffff ffff ffff ffff ffff     ................
  4206b4:	ffff ffff ffff ffff ffff ffff ffff ffff     ................
  4206c4:	ffff ffff ffff ffff ffff ffff ffff ffff     ................
  4206d4:	ffff ffff ffff ffff ffff ffff ffff ffff     ................
  4206e4:	ffff ffff ffff ffff ffff ffff ffff ffff     ................
  4206f4:	ffff ffff ffff ffff ffff ffff ffff ffff     ................
  420704:	ffff ffff ffff ffff ffff ffff ffff ffff     ................
  420714:	ffff ffff ffff ffff ffff ffff ffff ffff     ................
  420724:	ffff ffff ffff ffff ffff ffff ffff ffff     ................
  420734:	ffff ffff ffff ffff ffff ffff ffff ffff     ................
  420744:	ffff ffff ffff ffff ffff ffff ffff ffff     ................
  420754:	ffff ffff ffff ffff ffff ffff ffff ffff     ................
  420764:	ffff ffff ffff ffff ffff ffff ffff ffff     ................
  420774:	ffff ffff ffff ffff ffff ffff ffff ffff     ................
  420784:	ffff ffff ffff ffff ffff ffff ffff ffff     ................
  420794:	ffff ffff ffff ffff ffff ffff ffff ffff     ................
  4207a4:	ffff ffff ffff ffff ffff ffff ffff ffff     ................
  4207b4:	ffff ffff ffff ffff ffff ffff ffff ffff     ................
  4207c4:	ffff ffff ffff ffff ffff ffff ffff ffff     ................
  4207d4:	ffff ffff ffff ffff ffff ffff ffff ffff     ................
  4207e4:	ffff ffff ffff ffff ffff ffff ffff ffff     ................
  4207f4:	ffff ffff ffff ffff ffff ffff ffff ffff     ................
  420804:	ffff ffff ffff ffff ffff ffff ffff ffff     ................
  420814:	ffff ffff ffff ffff ffff ffff ffff ffff     ................
  420824:	ffff ffff ffff ffff ffff ffff ffff ffff     ................
  420834:	ffff ffff ffff ffff ffff ffff ffff ffff     ................
  420844:	ffff ffff ffff ffff ffff ffff ffff ffff     ................
  420854:	ffff ffff ffff ffff ffff ffff ffff ffff     ................
  420864:	ffff ffff ffff ffff ffff ffff ffff ffff     ................
  420874:	ffff ffff ffff ffff ffff ffff ffff ffff     ................
  420884:	ffff ffff ffff ffff ffff ffff ffff ffff     ................
  420894:	ffff ffff ffff ffff ffff ffff ffff ffff     ................
  4208a4:	ffff ffff ffff ffff ffff ffff ffff ffff     ................
  4208b4:	ffff ffff ffff ffff ffff ffff ffff ffff     ................
  4208c4:	ffff ffff ffff ffff ffff ffff ffff ffff     ................
  4208d4:	ffff ffff ffff ffff ffff ffff ffff ffff     ................
  4208e4:	ffff ffff ffff ffff ffff ffff ffff ffff     ................
  4208f4:	ffff ffff ffff ffff ffff ffff ffff ffff     ................
  420904:	ffff ffff ffff ffff ffff ffff ffff ffff     ................
  420914:	ffff ffff ffff ffff ffff ffff ffff ffff     ................
  420924:	ffff ffff ffff ffff ffff ffff ffff ffff     ................
  420934:	ffff ffff ffff ffff ffff ffff ffff ffff     ................
  420944:	ffff ffff ffff ffff ffff ffff ffff ffff     ................
  420954:	ffff ffff ffff ffff ffff ffff ffff ffff     ................
  420964:	ffff ffff ffff ffff ffff ffff ffff ffff     ................
  420974:	ffff ffff ffff ffff ffff ffff ffff ffff     ................
  420984:	ffff ffff ffff ffff ffff ffff ffff ffff     ................
  420994:	ffff ffff ffff ffff ffff ffff ffff ffff     ................
  4209a4:	ffff ffff ffff ffff ffff ffff ffff ffff     ................
  4209b4:	ffff ffff ffff ffff ffff ffff ffff ffff     ................
  4209c4:	ffff ffff ffff ffff ffff ffff ffff ffff     ................
  4209d4:	ffff ffff ffff ffff ffff ffff ffff ffff     ................
  4209e4:	ffff ffff ffff ffff ffff ffff ffff ffff     ................
  4209f4:	ffff ffff ffff ffff ffff ffff ffff ffff     ................
  420a04:	ffff ffff ffff ffff ffff ffff ffff ffff     ................
  420a14:	ffff ffff ffff ffff ffff ffff ffff ffff     ................
  420a24:	ffff ffff ffff ffff ffff ffff ffff ffff     ................
  420a34:	ffff ffff ffff ffff ffff ffff ffff ffff     ................
  420a44:	ffff ffff ffff ffff ffff ffff ffff ffff     ................
  420a54:	ffff ffff ffff ffff ffff ffff ffff ffff     ................
  420a64:	ffff ffff ffff ffff ffff ffff ffff ffff     ................
  420a74:	ffff ffff ffff ffff ffff ffff ffff ffff     ................
  420a84:	ffff ffff ffff ffff ffff ffff ffff ffff     ................
  420a94:	ffff ffff ffff ffff ffff ffff ffff ffff     ................
  420aa4:	ffff ffff ffff ffff ffff ffff ffff ffff     ................
  420ab4:	ffff ffff ffff ffff ffff ffff ffff ffff     ................
  420ac4:	ffff ffff ffff ffff ffff ffff ffff ffff     ................
  420ad4:	ffff ffff ffff ffff ffff ffff ffff ffff     ................
  420ae4:	ffff ffff ffff ffff ffff ffff ffff ffff     ................
  420af4:	ffff ffff ffff ffff ffff ffff ffff ffff     ................
  420b04:	ffff ffff ffff ffff ffff ffff ffff ffff     ................
  420b14:	ffff ffff ffff ffff ffff ffff ffff ffff     ................
  420b24:	ffff ffff ffff ffff ffff ffff ffff ffff     ................
  420b34:	ffff ffff ffff ffff ffff ffff ffff ffff     ................
  420b44:	ffff ffff ffff ffff ffff ffff ffff ffff     ................
  420b54:	ffff ffff ffff ffff ffff ffff ffff ffff     ................
  420b64:	ffff ffff ffff ffff ffff ffff ffff ffff     ................
  420b74:	ffff ffff ffff ffff ffff ffff ffff ffff     ................
  420b84:	ffff ffff ffff ffff ffff ffff ffff ffff     ................
  420b94:	ffff ffff ffff ffff ffff ffff ffff ffff     ................
  420ba4:	ffff ffff ffff ffff ffff ffff ffff ffff     ................
  420bb4:	ffff ffff ffff ffff ffff ffff ffff ffff     ................
  420bc4:	ffff ffff ffff ffff ffff ffff ffff ffff     ................
  420bd4:	ffff ffff ffff ffff ffff ffff ffff ffff     ................
  420be4:	ffff ffff ffff ffff ffff ffff ffff ffff     ................
  420bf4:	ffff ffff ffff ffff ffff ffff ffff ffff     ................
  420c04:	ffff ffff ffff ffff ffff ffff ffff ffff     ................
  420c14:	ffff ffff ffff ffff ffff ffff ffff ffff     ................
  420c24:	ffff ffff ffff ffff ffff ffff ffff ffff     ................
  420c34:	ffff ffff ffff ffff ffff ffff ffff ffff     ................
  420c44:	ffff ffff ffff ffff ffff ffff ffff ffff     ................
  420c54:	ffff ffff ffff ffff ffff ffff ffff ffff     ................
  420c64:	ffff ffff ffff ffff ffff ffff ffff ffff     ................
  420c74:	ffff ffff ffff ffff ffff ffff ffff ffff     ................
  420c84:	ffff ffff ffff ffff ffff ffff ffff ffff     ................
  420c94:	ffff ffff ffff ffff ffff ffff ffff ffff     ................
  420ca4:	ffff ffff ffff ffff ffff ffff ffff ffff     ................
  420cb4:	ffff ffff ffff ffff ffff ffff ffff ffff     ................
  420cc4:	ffff ffff ffff ffff ffff ffff ffff ffff     ................
  420cd4:	ffff ffff ffff ffff ffff ffff ffff ffff     ................
  420ce4:	ffff ffff ffff ffff ffff ffff ffff ffff     ................
  420cf4:	ffff ffff ffff ffff ffff ffff ffff ffff     ................
  420d04:	ffff ffff ffff ffff ffff ffff ffff ffff     ................
  420d14:	ffff ffff ffff ffff ffff ffff ffff ffff     ................
  420d24:	ffff ffff ffff ffff ffff ffff ffff ffff     ................
  420d34:	ffff ffff ffff ffff ffff ffff ffff ffff     ................
  420d44:	ffff ffff ffff ffff ffff ffff ffff ffff     ................
  420d54:	ffff ffff ffff ffff ffff ffff ffff ffff     ................
  420d64:	ffff ffff ffff ffff ffff ffff ffff ffff     ................
  420d74:	ffff ffff ffff ffff ffff ffff ffff ffff     ................
  420d84:	ffff ffff ffff ffff ffff ffff ffff ffff     ................
  420d94:	ffff ffff ffff ffff ffff ffff ffff ffff     ................
  420da4:	ffff ffff ffff ffff ffff ffff ffff ffff     ................
  420db4:	ffff ffff ffff ffff ffff ffff ffff ffff     ................
  420dc4:	ffff ffff ffff ffff ffff ffff ffff ffff     ................
  420dd4:	ffff ffff ffff ffff ffff ffff ffff ffff     ................
  420de4:	ffff ffff ffff ffff ffff ffff ffff ffff     ................
  420df4:	ffff ffff ffff ffff ffff ffff ffff ffff     ................
  420e04:	ffff ffff ffff ffff ffff ffff ffff ffff     ................
  420e14:	ffff ffff ffff ffff ffff ffff ffff ffff     ................
  420e24:	ffff ffff ffff ffff ffff ffff ffff ffff     ................
  420e34:	ffff ffff ffff ffff ffff ffff ffff ffff     ................
  420e44:	ffff ffff ffff ffff ffff ffff ffff ffff     ................
  420e54:	ffff ffff ffff ffff ffff ffff ffff ffff     ................
  420e64:	ffff ffff ffff ffff ffff ffff ffff ffff     ................
  420e74:	ffff ffff ffff ffff ffff ffff ffff ffff     ................
  420e84:	ffff ffff ffff ffff ffff ffff ffff ffff     ................
  420e94:	ffff ffff ffff ffff ffff ffff ffff ffff     ................
  420ea4:	ffff ffff ffff ffff ffff ffff ffff ffff     ................
  420eb4:	ffff ffff ffff ffff ffff ffff ffff ffff     ................
  420ec4:	ffff ffff ffff ffff ffff ffff ffff ffff     ................
  420ed4:	ffff ffff ffff ffff ffff ffff ffff ffff     ................
  420ee4:	ffff ffff ffff ffff ffff ffff ffff ffff     ................
  420ef4:	ffff ffff ffff ffff ffff ffff ffff ffff     ................
  420f04:	ffff ffff ffff ffff ffff ffff ffff ffff     ................
  420f14:	ffff ffff ffff ffff ffff ffff ffff ffff     ................
  420f24:	ffff ffff ffff ffff ffff ffff ffff ffff     ................
  420f34:	ffff ffff ffff ffff ffff ffff ffff ffff     ................
  420f44:	ffff ffff ffff ffff ffff ffff ffff ffff     ................
  420f54:	ffff ffff ffff ffff ffff ffff ffff ffff     ................
  420f64:	ffff ffff ffff ffff ffff ffff ffff ffff     ................
  420f74:	ffff ffff ffff ffff ffff ffff ffff ffff     ................
  420f84:	ffff ffff ffff ffff ffff ffff ffff ffff     ................
  420f94:	ffff ffff ffff ffff ffff ffff ffff ffff     ................
  420fa4:	ffff ffff ffff ffff ffff ffff ffff ffff     ................
  420fb4:	ffff ffff ffff ffff ffff ffff ffff ffff     ................
  420fc4:	ffff ffff ffff ffff ffff ffff ffff ffff     ................
  420fd4:	ffff ffff ffff ffff ffff ffff ffff ffff     ................
  420fe4:	ffff ffff ffff ffff ffff ffff ffff ffff     ................
  420ff4:	ffff ffff ffff ffff ffff ffff ffff ffff     ................
  421004:	ffff ffff ffff ffff ffff ffff ffff ffff     ................
  421014:	ffff ffff ffff ffff ffff ffff ffff ffff     ................
  421024:	ffff ffff ffff ffff ffff ffff ffff ffff     ................
  421034:	ffff ffff ffff ffff ffff ffff ffff ffff     ................
  421044:	ffff ffff ffff ffff ffff ffff ffff ffff     ................
  421054:	ffff ffff ffff ffff ffff ffff ffff ffff     ................
  421064:	ffff ffff ffff ffff ffff ffff ffff ffff     ................
  421074:	ffff ffff ffff ffff ffff ffff ffff ffff     ................
  421084:	ffff ffff ffff ffff ffff ffff ffff ffff     ................
  421094:	ffff ffff ffff ffff ffff ffff ffff ffff     ................
  4210a4:	ffff ffff ffff ffff ffff ffff ffff ffff     ................
  4210b4:	ffff ffff ffff ffff ffff ffff ffff ffff     ................
  4210c4:	ffff ffff ffff ffff ffff ffff ffff ffff     ................
  4210d4:	ffff ffff ffff ffff ffff ffff ffff ffff     ................
  4210e4:	ffff ffff ffff ffff ffff ffff ffff ffff     ................
  4210f4:	ffff ffff ffff ffff ffff ffff ffff ffff     ................
  421104:	ffff ffff ffff ffff ffff ffff ffff ffff     ................
  421114:	ffff ffff ffff ffff ffff ffff ffff ffff     ................
  421124:	ffff ffff ffff ffff ffff ffff ffff ffff     ................
  421134:	ffff ffff ffff ffff ffff ffff ffff ffff     ................
  421144:	ffff ffff ffff ffff ffff ffff ffff ffff     ................
  421154:	ffff ffff ffff ffff ffff ffff ffff ffff     ................
  421164:	ffff ffff ffff ffff ffff ffff ffff ffff     ................
  421174:	ffff ffff ffff ffff ffff ffff ffff ffff     ................
  421184:	ffff ffff ffff ffff ffff ffff ffff ffff     ................
  421194:	ffff ffff ffff ffff ffff ffff ffff ffff     ................
  4211a4:	ffff ffff ffff ffff ffff ffff ffff ffff     ................
  4211b4:	ffff ffff ffff ffff ffff ffff ffff ffff     ................
  4211c4:	ffff ffff ffff ffff ffff ffff ffff ffff     ................
  4211d4:	ffff ffff ffff ffff ffff ffff ffff ffff     ................
  4211e4:	ffff ffff ffff ffff ffff ffff ffff ffff     ................
  4211f4:	ffff ffff ffff ffff ffff ffff ffff ffff     ................
  421204:	ffff ffff ffff ffff ffff ffff ffff ffff     ................
  421214:	ffff ffff ffff ffff ffff ffff ffff ffff     ................
  421224:	ffff ffff ffff ffff ffff ffff ffff ffff     ................
  421234:	ffff ffff ffff ffff ffff ffff ffff ffff     ................
  421244:	ffff ffff ffff ffff ffff ffff ffff ffff     ................
  421254:	ffff ffff ffff ffff ffff ffff ffff ffff     ................
  421264:	ffff ffff ffff ffff ffff ffff ffff ffff     ................
  421274:	ffff ffff ffff ffff ffff ffff ffff ffff     ................
  421284:	ffff ffff ffff ffff ffff ffff ffff ffff     ................
  421294:	ffff ffff ffff ffff ffff ffff ffff ffff     ................
  4212a4:	ffff ffff ffff ffff ffff ffff ffff ffff     ................
  4212b4:	ffff ffff ffff ffff ffff ffff ffff ffff     ................
  4212c4:	ffff ffff ffff ffff ffff ffff ffff ffff     ................
  4212d4:	ffff ffff ffff ffff ffff ffff ffff ffff     ................
  4212e4:	ffff ffff ffff ffff ffff ffff ffff ffff     ................
  4212f4:	ffff ffff ffff ffff ffff ffff ffff ffff     ................
  421304:	ffff ffff ffff ffff ffff ffff ffff ffff     ................
  421314:	ffff ffff ffff ffff ffff ffff ffff ffff     ................
  421324:	ffff ffff ffff ffff ffff ffff ffff ffff     ................
  421334:	ffff ffff ffff ffff ffff ffff ffff ffff     ................
  421344:	ffff ffff ffff ffff ffff ffff ffff ffff     ................
  421354:	ffff ffff ffff ffff ffff ffff ffff ffff     ................
  421364:	ffff ffff ffff ffff ffff ffff ffff ffff     ................
  421374:	ffff ffff ffff ffff ffff ffff ffff ffff     ................
  421384:	ffff ffff ffff ffff ffff ffff ffff ffff     ................
  421394:	ffff ffff ffff ffff ffff ffff ffff ffff     ................
  4213a4:	ffff ffff ffff ffff ffff ffff ffff ffff     ................
  4213b4:	ffff ffff ffff ffff ffff ffff ffff ffff     ................
  4213c4:	ffff ffff ffff ffff ffff ffff ffff ffff     ................
  4213d4:	ffff ffff ffff ffff ffff ffff ffff ffff     ................
  4213e4:	ffff ffff ffff ffff ffff ffff ffff ffff     ................
  4213f4:	ffff ffff ffff ffff ffff ffff ffff ffff     ................
  421404:	ffff ffff ffff ffff ffff ffff ffff ffff     ................
  421414:	ffff ffff ffff ffff ffff ffff ffff ffff     ................
  421424:	ffff ffff ffff ffff ffff ffff ffff ffff     ................
  421434:	ffff ffff ffff ffff ffff ffff ffff ffff     ................
  421444:	ffff ffff ffff ffff ffff ffff ffff ffff     ................
  421454:	ffff ffff ffff ffff ffff ffff ffff ffff     ................
  421464:	ffff ffff ffff ffff ffff ffff ffff ffff     ................
  421474:	ffff ffff ffff ffff ffff ffff ffff ffff     ................
  421484:	ffff ffff ffff ffff ffff ffff ffff ffff     ................
  421494:	ffff ffff ffff ffff ffff ffff ffff ffff     ................
  4214a4:	ffff ffff ffff ffff ffff ffff ffff ffff     ................
  4214b4:	ffff ffff ffff ffff ffff ffff ffff ffff     ................
  4214c4:	ffff ffff ffff ffff ffff ffff ffff ffff     ................
  4214d4:	ffff ffff ffff ffff ffff ffff ffff ffff     ................
  4214e4:	ffff ffff ffff ffff ffff ffff ffff ffff     ................
  4214f4:	ffff ffff ffff ffff ffff ffff ffff ffff     ................
  421504:	ffff ffff ffff ffff ffff ffff ffff ffff     ................
  421514:	ffff ffff ffff ffff ffff ffff ffff ffff     ................
  421524:	ffff ffff ffff ffff ffff ffff ffff ffff     ................
  421534:	ffff ffff ffff ffff ffff ffff ffff ffff     ................
  421544:	ffff ffff ffff ffff ffff ffff ffff ffff     ................
  421554:	ffff ffff ffff ffff ffff ffff ffff ffff     ................
  421564:	ffff ffff ffff ffff ffff ffff ffff ffff     ................
  421574:	ffff ffff ffff ffff ffff ffff ffff ffff     ................
  421584:	ffff ffff ffff ffff ffff ffff ffff ffff     ................
  421594:	ffff ffff ffff ffff ffff ffff ffff ffff     ................
  4215a4:	ffff ffff ffff ffff ffff ffff ffff ffff     ................
  4215b4:	ffff ffff ffff ffff ffff ffff ffff ffff     ................
  4215c4:	ffff ffff ffff ffff ffff ffff ffff ffff     ................
  4215d4:	ffff ffff ffff ffff ffff ffff ffff ffff     ................
  4215e4:	ffff ffff ffff ffff ffff ffff ffff ffff     ................
  4215f4:	ffff ffff ffff ffff ffff ffff ffff ffff     ................
  421604:	ffff ffff ffff ffff ffff ffff ffff ffff     ................
  421614:	ffff ffff ffff ffff ffff ffff ffff ffff     ................
  421624:	ffff ffff ffff ffff ffff ffff ffff ffff     ................
  421634:	ffff ffff ffff ffff ffff ffff ffff ffff     ................
  421644:	ffff ffff ffff ffff ffff ffff ffff ffff     ................
  421654:	ffff ffff ffff ffff ffff ffff ffff ffff     ................
  421664:	ffff ffff ffff ffff ffff ffff ffff ffff     ................
  421674:	ffff ffff ffff ffff ffff ffff ffff ffff     ................
  421684:	ffff ffff ffff ffff ffff ffff ffff ffff     ................
  421694:	ffff ffff ffff ffff ffff ffff ffff ffff     ................
  4216a4:	ffff ffff ffff ffff ffff ffff ffff ffff     ................
  4216b4:	ffff ffff ffff ffff ffff ffff ffff ffff     ................
  4216c4:	ffff ffff ffff ffff ffff ffff ffff ffff     ................
  4216d4:	ffff ffff ffff ffff ffff ffff ffff ffff     ................
  4216e4:	ffff ffff ffff ffff ffff ffff ffff ffff     ................
  4216f4:	ffff ffff ffff ffff ffff ffff ffff ffff     ................
  421704:	ffff ffff ffff ffff ffff ffff ffff ffff     ................
  421714:	ffff ffff ffff ffff ffff ffff ffff ffff     ................
  421724:	ffff ffff ffff ffff ffff ffff ffff ffff     ................
  421734:	ffff ffff ffff ffff ffff ffff ffff ffff     ................
  421744:	ffff ffff ffff ffff ffff ffff ffff ffff     ................
  421754:	ffff ffff ffff ffff ffff ffff ffff ffff     ................
  421764:	ffff ffff ffff ffff ffff ffff ffff ffff     ................
  421774:	ffff ffff ffff ffff ffff ffff ffff ffff     ................
  421784:	ffff ffff ffff ffff ffff ffff ffff ffff     ................
  421794:	ffff ffff ffff ffff ffff ffff ffff ffff     ................
  4217a4:	ffff ffff ffff ffff ffff ffff ffff ffff     ................
  4217b4:	ffff ffff ffff ffff ffff ffff ffff ffff     ................
  4217c4:	ffff ffff ffff ffff ffff ffff ffff ffff     ................
  4217d4:	ffff ffff ffff ffff ffff ffff ffff ffff     ................
  4217e4:	ffff ffff ffff ffff ffff ffff ffff ffff     ................
  4217f4:	ffff ffff ffff ffff ffff ffff ffff ffff     ................
  421804:	ffff ffff ffff ffff ffff ffff ffff ffff     ................
  421814:	ffff ffff ffff ffff ffff ffff ffff ffff     ................
  421824:	ffff ffff ffff ffff ffff ffff ffff ffff     ................
  421834:	ffff ffff ffff ffff ffff ffff ffff ffff     ................
  421844:	ffff ffff ffff ffff ffff ffff ffff ffff     ................
  421854:	ffff ffff ffff ffff ffff ffff ffff ffff     ................
  421864:	ffff ffff ffff ffff ffff ffff ffff ffff     ................
  421874:	ffff ffff ffff ffff ffff ffff ffff ffff     ................
  421884:	ffff ffff ffff ffff ffff ffff ffff ffff     ................
  421894:	ffff ffff ffff ffff ffff ffff ffff ffff     ................
  4218a4:	ffff ffff ffff ffff ffff ffff ffff ffff     ................
  4218b4:	ffff ffff ffff ffff ffff ffff ffff ffff     ................
  4218c4:	ffff ffff ffff ffff ffff ffff ffff ffff     ................
  4218d4:	ffff ffff ffff ffff ffff ffff ffff ffff     ................
  4218e4:	ffff ffff ffff ffff ffff ffff ffff ffff     ................
  4218f4:	ffff ffff ffff ffff ffff ffff ffff ffff     ................
  421904:	ffff ffff ffff ffff ffff ffff ffff ffff     ................
  421914:	ffff ffff ffff ffff ffff ffff ffff ffff     ................
  421924:	ffff ffff ffff ffff ffff ffff ffff ffff     ................
  421934:	ffff ffff ffff ffff ffff ffff ffff ffff     ................
  421944:	ffff ffff ffff ffff ffff ffff ffff ffff     ................
  421954:	ffff ffff ffff ffff ffff ffff ffff ffff     ................
  421964:	ffff ffff ffff ffff ffff ffff ffff ffff     ................
  421974:	ffff ffff ffff ffff ffff ffff ffff ffff     ................
  421984:	ffff ffff ffff ffff ffff ffff ffff ffff     ................
  421994:	ffff ffff ffff ffff ffff ffff ffff ffff     ................
  4219a4:	ffff ffff ffff ffff ffff ffff ffff ffff     ................
  4219b4:	ffff ffff ffff ffff ffff ffff ffff ffff     ................
  4219c4:	ffff ffff ffff ffff ffff ffff ffff ffff     ................
  4219d4:	ffff ffff ffff ffff ffff ffff ffff ffff     ................
  4219e4:	ffff ffff ffff ffff ffff ffff ffff ffff     ................
  4219f4:	ffff ffff ffff ffff ffff ffff ffff ffff     ................
  421a04:	ffff ffff ffff ffff ffff ffff ffff ffff     ................
  421a14:	ffff ffff ffff ffff ffff ffff ffff ffff     ................
  421a24:	ffff ffff ffff ffff ffff ffff ffff ffff     ................
  421a34:	ffff ffff ffff ffff ffff ffff ffff ffff     ................
  421a44:	ffff ffff ffff ffff ffff ffff ffff ffff     ................
  421a54:	ffff ffff ffff ffff ffff ffff ffff ffff     ................
  421a64:	ffff ffff ffff ffff ffff ffff ffff ffff     ................
  421a74:	ffff ffff ffff ffff ffff ffff ffff ffff     ................
  421a84:	ffff ffff ffff ffff ffff ffff ffff ffff     ................
  421a94:	ffff ffff ffff ffff ffff ffff ffff ffff     ................
  421aa4:	ffff ffff ffff ffff ffff ffff ffff ffff     ................
  421ab4:	ffff ffff ffff ffff ffff ffff ffff ffff     ................
  421ac4:	ffff ffff ffff ffff ffff ffff ffff ffff     ................
  421ad4:	ffff ffff ffff ffff ffff ffff ffff ffff     ................
  421ae4:	ffff ffff ffff ffff ffff ffff ffff ffff     ................
  421af4:	ffff ffff ffff ffff ffff ffff ffff ffff     ................
  421b04:	ffff ffff ffff ffff ffff ffff ffff ffff     ................
  421b14:	ffff ffff ffff ffff ffff ffff ffff ffff     ................
  421b24:	ffff ffff ffff ffff ffff ffff ffff ffff     ................
  421b34:	ffff ffff ffff ffff ffff ffff ffff ffff     ................
  421b44:	ffff ffff ffff ffff ffff ffff ffff ffff     ................
  421b54:	ffff ffff ffff ffff ffff ffff ffff ffff     ................
  421b64:	ffff ffff ffff ffff ffff ffff ffff ffff     ................
  421b74:	ffff ffff ffff ffff ffff ffff ffff ffff     ................
  421b84:	ffff ffff ffff ffff ffff ffff ffff ffff     ................
  421b94:	ffff ffff ffff ffff ffff ffff ffff ffff     ................
  421ba4:	ffff ffff ffff ffff ffff ffff ffff ffff     ................
  421bb4:	ffff ffff ffff ffff ffff ffff ffff ffff     ................
  421bc4:	ffff ffff ffff ffff ffff ffff ffff ffff     ................
  421bd4:	ffff ffff ffff ffff ffff ffff ffff ffff     ................
  421be4:	ffff ffff ffff ffff ffff ffff ffff ffff     ................
  421bf4:	ffff ffff ffff ffff ffff ffff ffff ffff     ................
  421c04:	ffff ffff ffff ffff ffff ffff ffff ffff     ................
  421c14:	ffff ffff ffff ffff ffff ffff ffff ffff     ................
  421c24:	ffff ffff ffff ffff ffff ffff ffff ffff     ................
  421c34:	ffff ffff ffff ffff ffff ffff ffff ffff     ................
  421c44:	ffff ffff ffff ffff ffff ffff ffff ffff     ................
  421c54:	ffff ffff ffff ffff ffff ffff ffff ffff     ................
  421c64:	ffff ffff ffff ffff ffff ffff ffff ffff     ................
  421c74:	ffff ffff ffff ffff ffff ffff ffff ffff     ................
  421c84:	ffff ffff ffff ffff ffff ffff ffff ffff     ................
  421c94:	ffff ffff ffff ffff ffff ffff ffff ffff     ................
  421ca4:	ffff ffff ffff ffff ffff ffff ffff ffff     ................
  421cb4:	ffff ffff ffff ffff ffff ffff ffff ffff     ................
  421cc4:	ffff ffff ffff ffff ffff ffff ffff ffff     ................
  421cd4:	ffff ffff ffff ffff ffff ffff ffff ffff     ................
  421ce4:	ffff ffff ffff ffff ffff ffff ffff ffff     ................
  421cf4:	ffff ffff ffff ffff ffff ffff ffff ffff     ................
  421d04:	ffff ffff ffff ffff ffff ffff ffff ffff     ................
  421d14:	ffff ffff ffff ffff ffff ffff ffff ffff     ................
  421d24:	ffff ffff ffff ffff ffff ffff ffff ffff     ................
  421d34:	ffff ffff ffff ffff ffff ffff ffff ffff     ................
  421d44:	ffff ffff ffff ffff ffff ffff ffff ffff     ................
  421d54:	ffff ffff ffff ffff ffff ffff ffff ffff     ................
  421d64:	ffff ffff ffff ffff ffff ffff ffff ffff     ................
  421d74:	ffff ffff ffff ffff ffff ffff ffff ffff     ................
  421d84:	ffff ffff ffff ffff ffff ffff ffff ffff     ................
  421d94:	ffff ffff ffff ffff ffff ffff ffff ffff     ................
  421da4:	ffff ffff ffff ffff ffff ffff ffff ffff     ................
  421db4:	ffff ffff ffff ffff ffff ffff ffff ffff     ................
  421dc4:	ffff ffff ffff ffff ffff ffff ffff ffff     ................
  421dd4:	ffff ffff ffff ffff ffff ffff ffff ffff     ................
  421de4:	ffff ffff ffff ffff ffff ffff ffff ffff     ................
  421df4:	ffff ffff ffff ffff ffff ffff ffff ffff     ................
  421e04:	ffff ffff ffff ffff ffff ffff ffff ffff     ................
  421e14:	ffff ffff ffff ffff ffff ffff ffff ffff     ................
  421e24:	ffff ffff ffff ffff ffff ffff ffff ffff     ................
  421e34:	ffff ffff ffff ffff ffff ffff ffff ffff     ................
  421e44:	ffff ffff ffff ffff ffff ffff ffff ffff     ................
  421e54:	ffff ffff ffff ffff ffff ffff ffff ffff     ................
  421e64:	ffff ffff ffff ffff ffff ffff ffff ffff     ................
  421e74:	ffff ffff ffff ffff ffff ffff ffff ffff     ................
  421e84:	ffff ffff ffff ffff ffff ffff ffff ffff     ................
  421e94:	ffff ffff ffff ffff ffff ffff ffff ffff     ................
  421ea4:	ffff ffff ffff ffff ffff ffff ffff ffff     ................
  421eb4:	ffff ffff ffff ffff ffff ffff ffff ffff     ................
  421ec4:	ffff ffff ffff ffff ffff ffff ffff ffff     ................
  421ed4:	ffff ffff ffff ffff ffff ffff ffff ffff     ................
  421ee4:	ffff ffff ffff ffff ffff ffff ffff ffff     ................
  421ef4:	ffff ffff ffff ffff ffff ffff ffff ffff     ................
  421f04:	ffff ffff ffff ffff ffff ffff ffff ffff     ................
  421f14:	ffff ffff ffff ffff ffff ffff ffff ffff     ................
  421f24:	ffff ffff ffff ffff ffff ffff ffff ffff     ................
  421f34:	ffff ffff ffff ffff ffff ffff ffff ffff     ................
  421f44:	ffff ffff ffff ffff ffff ffff ffff ffff     ................
  421f54:	ffff ffff ffff ffff ffff ffff ffff ffff     ................
  421f64:	ffff ffff ffff ffff ffff ffff ffff ffff     ................
  421f74:	ffff ffff ffff ffff ffff ffff ffff ffff     ................
  421f84:	ffff ffff ffff ffff ffff ffff ffff ffff     ................
  421f94:	ffff ffff ffff ffff ffff ffff ffff ffff     ................
  421fa4:	ffff ffff ffff ffff ffff ffff ffff ffff     ................
  421fb4:	ffff ffff ffff ffff ffff ffff ffff ffff     ................
  421fc4:	ffff ffff ffff ffff ffff ffff ffff ffff     ................
  421fd4:	ffff ffff ffff ffff ffff ffff ffff ffff     ................
  421fe4:	ffff ffff ffff ffff ffff ffff ffff ffff     ................
  421ff4:	ffff ffff ffff ffff ffff ffff ffff ffff     ................
  422004:	ffff ffff ffff ffff ffff ffff ffff ffff     ................
  422014:	ffff ffff ffff ffff ffff ffff ffff ffff     ................
  422024:	ffff ffff ffff ffff ffff ffff ffff ffff     ................
  422034:	ffff ffff ffff ffff ffff ffff ffff ffff     ................
  422044:	ffff ffff ffff ffff ffff ffff ffff ffff     ................
  422054:	ffff ffff ffff ffff ffff ffff ffff ffff     ................
  422064:	ffff ffff ffff ffff ffff ffff ffff ffff     ................
  422074:	ffff ffff ffff ffff ffff ffff ffff ffff     ................
  422084:	ffff ffff ffff ffff ffff ffff ffff ffff     ................
  422094:	ffff ffff ffff ffff ffff ffff ffff ffff     ................
  4220a4:	ffff ffff ffff ffff ffff ffff ffff ffff     ................
  4220b4:	ffff ffff ffff ffff ffff ffff ffff ffff     ................
  4220c4:	ffff ffff ffff ffff ffff ffff ffff ffff     ................
  4220d4:	ffff ffff ffff ffff ffff ffff ffff ffff     ................
  4220e4:	ffff ffff ffff ffff ffff ffff ffff ffff     ................
  4220f4:	ffff ffff ffff ffff ffff ffff ffff ffff     ................
  422104:	ffff ffff ffff ffff ffff ffff ffff ffff     ................
  422114:	ffff ffff ffff ffff ffff ffff ffff ffff     ................
  422124:	ffff ffff ffff ffff ffff ffff ffff ffff     ................
  422134:	ffff ffff ffff ffff ffff ffff ffff ffff     ................
  422144:	ffff ffff ffff ffff ffff ffff ffff ffff     ................
  422154:	ffff ffff ffff ffff ffff ffff ffff ffff     ................
  422164:	ffff ffff ffff ffff ffff ffff ffff ffff     ................
  422174:	ffff ffff ffff ffff ffff ffff ffff ffff     ................
  422184:	ffff ffff ffff ffff ffff ffff ffff ffff     ................
  422194:	ffff ffff ffff ffff ffff ffff ffff ffff     ................
  4221a4:	ffff ffff ffff ffff ffff ffff ffff ffff     ................
  4221b4:	ffff ffff ffff ffff ffff ffff ffff ffff     ................
  4221c4:	ffff ffff ffff ffff ffff ffff ffff ffff     ................
  4221d4:	ffff ffff ffff ffff ffff ffff ffff ffff     ................
  4221e4:	ffff ffff ffff ffff ffff ffff ffff ffff     ................
  4221f4:	ffff ffff ffff ffff ffff ffff ffff ffff     ................
  422204:	ffff ffff ffff ffff ffff ffff ffff ffff     ................
  422214:	ffff ffff ffff ffff ffff ffff ffff ffff     ................
  422224:	ffff ffff ffff ffff ffff ffff ffff ffff     ................
  422234:	ffff ffff ffff ffff ffff ffff ffff ffff     ................
  422244:	ffff ffff ffff ffff ffff ffff ffff ffff     ................
  422254:	ffff ffff ffff ffff ffff ffff ffff ffff     ................
  422264:	ffff ffff ffff ffff ffff ffff ffff ffff     ................
  422274:	ffff ffff ffff ffff ffff ffff ffff ffff     ................
  422284:	ffff ffff ffff ffff ffff ffff ffff ffff     ................
  422294:	ffff ffff ffff ffff ffff ffff ffff ffff     ................
  4222a4:	ffff ffff ffff ffff ffff ffff ffff ffff     ................
  4222b4:	ffff ffff ffff ffff ffff ffff ffff ffff     ................
  4222c4:	ffff ffff ffff ffff ffff ffff ffff ffff     ................
  4222d4:	ffff ffff ffff ffff ffff ffff ffff ffff     ................
  4222e4:	ffff ffff ffff ffff ffff ffff ffff ffff     ................
  4222f4:	ffff ffff ffff ffff ffff ffff ffff ffff     ................
  422304:	ffff ffff ffff ffff ffff ffff ffff ffff     ................
  422314:	ffff ffff ffff ffff ffff ffff ffff ffff     ................
  422324:	ffff ffff ffff ffff ffff ffff ffff ffff     ................
  422334:	ffff ffff ffff ffff ffff ffff ffff ffff     ................
  422344:	ffff ffff ffff ffff ffff ffff ffff ffff     ................
  422354:	ffff ffff ffff ffff ffff ffff ffff ffff     ................
  422364:	ffff ffff ffff ffff ffff ffff ffff ffff     ................
  422374:	ffff ffff ffff ffff ffff ffff ffff ffff     ................
  422384:	ffff ffff ffff ffff ffff ffff ffff ffff     ................
  422394:	ffff ffff ffff ffff ffff ffff ffff ffff     ................
  4223a4:	ffff ffff ffff ffff ffff ffff ffff ffff     ................
  4223b4:	ffff ffff ffff ffff ffff ffff ffff ffff     ................
  4223c4:	ffff ffff ffff ffff ffff ffff ffff ffff     ................
  4223d4:	ffff ffff ffff ffff ffff ffff ffff ffff     ................
  4223e4:	ffff ffff ffff ffff ffff ffff ffff ffff     ................
  4223f4:	ffff ffff ffff ffff ffff ffff ffff ffff     ................
  422404:	ffff ffff ffff ffff ffff ffff ffff ffff     ................
  422414:	ffff ffff ffff ffff ffff ffff ffff ffff     ................
  422424:	ffff ffff ffff ffff ffff ffff ffff ffff     ................
  422434:	ffff ffff ffff ffff ffff ffff ffff ffff     ................
  422444:	ffff ffff ffff ffff ffff ffff ffff ffff     ................
  422454:	ffff ffff ffff ffff ffff ffff ffff ffff     ................
  422464:	ffff ffff ffff ffff ffff ffff ffff ffff     ................
  422474:	ffff ffff ffff ffff ffff ffff ffff ffff     ................
  422484:	ffff ffff ffff ffff ffff ffff ffff ffff     ................
  422494:	ffff ffff ffff ffff ffff ffff ffff ffff     ................
  4224a4:	ffff ffff ffff ffff ffff ffff ffff ffff     ................
  4224b4:	ffff ffff ffff ffff ffff ffff ffff ffff     ................
  4224c4:	ffff ffff ffff ffff ffff ffff ffff ffff     ................
  4224d4:	ffff ffff ffff ffff ffff ffff ffff ffff     ................
  4224e4:	ffff ffff ffff ffff ffff ffff ffff ffff     ................
  4224f4:	ffff ffff ffff ffff ffff ffff ffff ffff     ................
  422504:	ffff ffff ffff ffff ffff ffff ffff ffff     ................
  422514:	ffff ffff ffff ffff ffff ffff ffff ffff     ................
  422524:	ffff ffff ffff ffff ffff ffff ffff ffff     ................
  422534:	ffff ffff ffff ffff ffff ffff ffff ffff     ................
  422544:	ffff ffff ffff ffff ffff ffff ffff ffff     ................
  422554:	ffff ffff ffff ffff ffff ffff ffff ffff     ................
  422564:	ffff ffff ffff ffff ffff ffff ffff ffff     ................
  422574:	ffff ffff ffff ffff ffff ffff ffff ffff     ................
  422584:	ffff ffff ffff ffff ffff ffff ffff ffff     ................
  422594:	ffff ffff ffff ffff ffff ffff ffff ffff     ................
  4225a4:	ffff ffff ffff ffff ffff ffff ffff ffff     ................
  4225b4:	ffff ffff ffff ffff ffff ffff ffff ffff     ................
  4225c4:	ffff ffff ffff ffff ffff ffff ffff ffff     ................
  4225d4:	ffff ffff ffff ffff ffff ffff ffff ffff     ................
  4225e4:	ffff ffff ffff ffff ffff ffff ffff ffff     ................
  4225f4:	ffff ffff ffff ffff ffff ffff ffff ffff     ................
  422604:	ffff ffff ffff ffff ffff ffff ffff ffff     ................
  422614:	ffff ffff ffff ffff ffff ffff ffff ffff     ................
  422624:	ffff ffff ffff ffff ffff ffff ffff ffff     ................
  422634:	ffff ffff ffff ffff ffff ffff ffff ffff     ................
  422644:	ffff ffff ffff ffff ffff ffff ffff ffff     ................
  422654:	ffff ffff ffff ffff ffff ffff ffff ffff     ................
  422664:	ffff ffff ffff ffff ffff ffff ffff ffff     ................
  422674:	ffff ffff ffff ffff ffff ffff ffff ffff     ................
  422684:	ffff ffff ffff ffff ffff ffff ffff ffff     ................
  422694:	ffff ffff ffff ffff ffff ffff ffff ffff     ................
  4226a4:	ffff ffff ffff ffff ffff ffff ffff ffff     ................
  4226b4:	ffff ffff ffff ffff ffff ffff ffff ffff     ................
  4226c4:	ffff ffff ffff ffff ffff ffff ffff ffff     ................
  4226d4:	ffff ffff ffff ffff ffff ffff ffff ffff     ................
  4226e4:	ffff ffff ffff ffff ffff ffff ffff ffff     ................
  4226f4:	ffff ffff ffff ffff ffff ffff ffff ffff     ................
  422704:	ffff ffff ffff ffff ffff ffff ffff ffff     ................
  422714:	ffff ffff ffff ffff ffff ffff ffff ffff     ................
  422724:	ffff ffff ffff ffff ffff ffff ffff ffff     ................
  422734:	ffff ffff ffff ffff ffff ffff ffff ffff     ................
  422744:	ffff ffff ffff ffff ffff ffff ffff ffff     ................
  422754:	ffff ffff ffff ffff ffff ffff ffff ffff     ................
  422764:	ffff ffff ffff ffff ffff ffff ffff ffff     ................
  422774:	ffff ffff ffff ffff ffff ffff ffff ffff     ................
  422784:	ffff ffff ffff ffff ffff ffff ffff ffff     ................
  422794:	ffff ffff ffff ffff ffff ffff ffff ffff     ................
  4227a4:	ffff ffff ffff ffff ffff ffff ffff ffff     ................
  4227b4:	ffff ffff ffff ffff ffff ffff ffff ffff     ................
  4227c4:	ffff ffff ffff ffff ffff ffff ffff ffff     ................
  4227d4:	ffff ffff ffff ffff ffff ffff ffff ffff     ................
  4227e4:	ffff ffff ffff ffff ffff ffff ffff ffff     ................
  4227f4:	ffff ffff ffff ffff ffff ffff ffff ffff     ................
  422804:	ffff ffff ffff ffff ffff ffff ffff ffff     ................
  422814:	ffff ffff ffff ffff ffff ffff ffff ffff     ................
  422824:	ffff ffff ffff ffff ffff ffff ffff ffff     ................
  422834:	ffff ffff ffff ffff ffff ffff ffff ffff     ................
  422844:	ffff ffff ffff ffff ffff ffff ffff ffff     ................
  422854:	ffff ffff ffff ffff ffff ffff ffff ffff     ................
  422864:	ffff ffff ffff ffff ffff ffff ffff ffff     ................
  422874:	ffff ffff ffff ffff ffff ffff ffff ffff     ................
  422884:	ffff ffff ffff ffff ffff ffff ffff ffff     ................
  422894:	ffff ffff ffff ffff ffff ffff ffff ffff     ................
  4228a4:	ffff ffff ffff ffff ffff ffff ffff ffff     ................
  4228b4:	ffff ffff ffff ffff ffff ffff ffff ffff     ................
  4228c4:	ffff ffff ffff ffff ffff ffff ffff ffff     ................
  4228d4:	ffff ffff ffff ffff ffff ffff ffff ffff     ................
  4228e4:	ffff ffff ffff ffff ffff ffff ffff ffff     ................
  4228f4:	ffff ffff ffff ffff ffff ffff ffff ffff     ................
  422904:	ffff ffff ffff ffff ffff ffff ffff ffff     ................
  422914:	ffff ffff ffff ffff ffff ffff ffff ffff     ................
  422924:	ffff ffff ffff ffff ffff ffff ffff ffff     ................
  422934:	ffff ffff ffff ffff ffff ffff ffff ffff     ................
  422944:	ffff ffff ffff ffff ffff ffff ffff ffff     ................
  422954:	ffff ffff ffff ffff ffff ffff ffff ffff     ................
  422964:	ffff ffff ffff ffff ffff ffff ffff ffff     ................
  422974:	ffff ffff ffff ffff ffff ffff ffff ffff     ................
  422984:	ffff ffff ffff ffff ffff ffff ffff ffff     ................
  422994:	ffff ffff ffff ffff ffff ffff ffff ffff     ................
  4229a4:	ffff ffff ffff ffff ffff ffff ffff ffff     ................
  4229b4:	ffff ffff ffff ffff ffff ffff ffff ffff     ................
  4229c4:	ffff ffff ffff ffff ffff ffff ffff ffff     ................
  4229d4:	ffff ffff ffff ffff ffff ffff ffff ffff     ................
  4229e4:	ffff ffff ffff ffff ffff ffff ffff ffff     ................
  4229f4:	ffff ffff ffff ffff ffff ffff ffff ffff     ................
  422a04:	ffff ffff ffff ffff ffff ffff ffff ffff     ................
  422a14:	ffff ffff ffff ffff ffff ffff ffff ffff     ................
  422a24:	ffff ffff ffff ffff ffff ffff ffff ffff     ................
  422a34:	ffff ffff ffff ffff ffff ffff ffff ffff     ................
  422a44:	ffff ffff ffff ffff ffff ffff ffff ffff     ................
  422a54:	ffff ffff ffff ffff ffff ffff ffff ffff     ................
  422a64:	ffff ffff ffff ffff ffff ffff ffff ffff     ................
  422a74:	ffff ffff ffff ffff ffff ffff ffff ffff     ................
  422a84:	ffff ffff ffff ffff ffff ffff ffff ffff     ................
  422a94:	ffff ffff ffff ffff ffff ffff ffff ffff     ................
  422aa4:	ffff ffff ffff ffff ffff ffff ffff ffff     ................
  422ab4:	ffff ffff ffff ffff ffff ffff ffff ffff     ................
  422ac4:	ffff ffff ffff ffff ffff ffff ffff ffff     ................
  422ad4:	ffff ffff ffff ffff ffff ffff ffff ffff     ................
  422ae4:	ffff ffff ffff ffff ffff ffff ffff ffff     ................
  422af4:	ffff ffff ffff ffff ffff ffff ffff ffff     ................
  422b04:	ffff ffff ffff ffff ffff ffff ffff ffff     ................
  422b14:	ffff ffff ffff ffff ffff ffff ffff ffff     ................
  422b24:	ffff ffff ffff ffff ffff ffff ffff ffff     ................
  422b34:	ffff ffff ffff ffff ffff ffff ffff ffff     ................
  422b44:	ffff ffff ffff ffff ffff ffff ffff ffff     ................
  422b54:	ffff ffff ffff ffff ffff ffff ffff ffff     ................
  422b64:	ffff ffff ffff ffff ffff ffff ffff ffff     ................
  422b74:	ffff ffff ffff ffff ffff ffff ffff ffff     ................
  422b84:	ffff ffff ffff ffff ffff ffff ffff ffff     ................
  422b94:	ffff ffff ffff ffff ffff ffff ffff ffff     ................
  422ba4:	ffff ffff ffff ffff ffff ffff ffff ffff     ................
  422bb4:	ffff ffff ffff ffff ffff ffff ffff ffff     ................
  422bc4:	ffff ffff ffff ffff ffff ffff ffff ffff     ................
  422bd4:	ffff ffff ffff ffff ffff ffff ffff ffff     ................
  422be4:	ffff ffff ffff ffff ffff ffff ffff ffff     ................
  422bf4:	ffff ffff ffff ffff ffff ffff ffff ffff     ................
  422c04:	ffff ffff ffff ffff ffff ffff ffff ffff     ................
  422c14:	ffff ffff ffff ffff ffff ffff ffff ffff     ................
  422c24:	ffff ffff ffff ffff ffff ffff ffff ffff     ................
  422c34:	ffff ffff ffff ffff ffff ffff ffff ffff     ................
  422c44:	ffff ffff ffff ffff ffff ffff ffff ffff     ................
  422c54:	ffff ffff ffff ffff ffff ffff ffff ffff     ................
  422c64:	ffff ffff ffff ffff ffff ffff ffff ffff     ................
  422c74:	ffff ffff ffff ffff ffff ffff ffff ffff     ................
  422c84:	ffff ffff ffff ffff ffff ffff ffff ffff     ................
  422c94:	ffff ffff ffff ffff ffff ffff ffff ffff     ................
  422ca4:	ffff ffff ffff ffff ffff ffff ffff ffff     ................
  422cb4:	ffff ffff ffff ffff ffff ffff ffff ffff     ................
  422cc4:	ffff ffff ffff ffff ffff ffff ffff ffff     ................
  422cd4:	ffff ffff ffff ffff ffff ffff ffff ffff     ................
  422ce4:	ffff ffff ffff ffff ffff ffff ffff ffff     ................
  422cf4:	ffff ffff ffff ffff ffff ffff ffff ffff     ................
  422d04:	ffff ffff ffff ffff ffff ffff ffff ffff     ................
  422d14:	ffff ffff ffff ffff ffff ffff ffff ffff     ................
  422d24:	ffff ffff ffff ffff ffff ffff ffff ffff     ................
  422d34:	ffff ffff ffff ffff ffff ffff ffff ffff     ................
  422d44:	ffff ffff ffff ffff ffff ffff ffff ffff     ................
  422d54:	ffff ffff ffff ffff ffff ffff ffff ffff     ................
  422d64:	ffff ffff ffff ffff ffff ffff ffff ffff     ................
  422d74:	ffff ffff ffff ffff ffff ffff ffff ffff     ................
  422d84:	ffff ffff ffff ffff ffff ffff ffff ffff     ................
  422d94:	ffff ffff ffff ffff ffff ffff ffff ffff     ................
  422da4:	ffff ffff ffff ffff ffff ffff ffff ffff     ................
  422db4:	ffff ffff ffff ffff ffff ffff ffff ffff     ................
  422dc4:	ffff ffff ffff ffff ffff ffff ffff ffff     ................
  422dd4:	ffff ffff ffff ffff ffff ffff ffff ffff     ................
  422de4:	ffff ffff ffff ffff ffff ffff ffff ffff     ................
  422df4:	ffff ffff ffff ffff ffff ffff ffff ffff     ................
  422e04:	ffff ffff ffff ffff ffff ffff ffff ffff     ................
  422e14:	ffff ffff ffff ffff ffff ffff ffff ffff     ................
  422e24:	ffff ffff ffff ffff ffff ffff ffff ffff     ................
  422e34:	ffff ffff ffff ffff ffff ffff ffff ffff     ................
  422e44:	ffff ffff ffff ffff ffff ffff ffff ffff     ................
  422e54:	ffff ffff ffff ffff ffff ffff ffff ffff     ................
  422e64:	ffff ffff ffff ffff ffff ffff ffff ffff     ................
  422e74:	ffff ffff ffff ffff ffff ffff ffff ffff     ................
  422e84:	ffff ffff ffff ffff ffff ffff ffff ffff     ................
  422e94:	ffff ffff ffff ffff ffff ffff ffff ffff     ................
  422ea4:	ffff ffff ffff ffff ffff ffff ffff ffff     ................
  422eb4:	ffff ffff ffff ffff ffff ffff ffff ffff     ................
  422ec4:	ffff ffff ffff ffff ffff ffff ffff ffff     ................
  422ed4:	ffff ffff ffff ffff ffff ffff ffff ffff     ................
  422ee4:	ffff ffff ffff ffff ffff ffff ffff ffff     ................
  422ef4:	ffff ffff ffff ffff ffff ffff ffff ffff     ................
  422f04:	ffff ffff ffff ffff ffff ffff ffff ffff     ................
  422f14:	ffff ffff ffff ffff ffff ffff ffff ffff     ................
  422f24:	ffff ffff ffff ffff ffff ffff ffff ffff     ................
  422f34:	ffff ffff ffff ffff ffff ffff ffff ffff     ................
  422f44:	ffff ffff ffff ffff ffff ffff ffff ffff     ................
  422f54:	ffff ffff ffff ffff ffff ffff ffff ffff     ................
  422f64:	ffff ffff ffff ffff ffff ffff ffff ffff     ................
  422f74:	ffff ffff ffff ffff ffff ffff ffff ffff     ................
  422f84:	ffff ffff ffff ffff ffff ffff ffff ffff     ................
  422f94:	ffff ffff ffff ffff ffff ffff ffff ffff     ................
  422fa4:	ffff ffff ffff ffff ffff ffff ffff ffff     ................
  422fb4:	ffff ffff ffff ffff ffff ffff ffff ffff     ................
  422fc4:	ffff ffff ffff ffff ffff ffff ffff ffff     ................
  422fd4:	ffff ffff ffff ffff ffff ffff ffff ffff     ................
  422fe4:	ffff ffff ffff ffff ffff ffff ffff ffff     ................
  422ff4:	ffff ffff ffff ffff ffff ffff ffff ffff     ................
  423004:	ffff ffff ffff ffff ffff ffff ffff ffff     ................
  423014:	ffff ffff ffff ffff ffff ffff ffff ffff     ................
  423024:	ffff ffff ffff ffff ffff ffff ffff ffff     ................
  423034:	ffff ffff ffff ffff ffff ffff ffff ffff     ................
  423044:	ffff ffff ffff ffff ffff ffff ffff ffff     ................
  423054:	ffff ffff ffff ffff ffff ffff ffff ffff     ................
  423064:	ffff ffff ffff ffff ffff ffff ffff ffff     ................
  423074:	ffff ffff ffff ffff ffff ffff ffff ffff     ................
  423084:	ffff ffff ffff ffff ffff ffff ffff ffff     ................
  423094:	ffff ffff ffff ffff ffff ffff ffff ffff     ................
  4230a4:	ffff ffff ffff ffff ffff ffff ffff ffff     ................
  4230b4:	ffff ffff ffff ffff ffff ffff ffff ffff     ................
  4230c4:	ffff ffff ffff ffff ffff ffff ffff ffff     ................
  4230d4:	ffff ffff ffff ffff ffff ffff ffff ffff     ................
  4230e4:	ffff ffff ffff ffff ffff ffff ffff ffff     ................
  4230f4:	ffff ffff ffff ffff ffff ffff ffff ffff     ................
  423104:	ffff ffff ffff ffff ffff ffff ffff ffff     ................
  423114:	ffff ffff ffff ffff ffff ffff ffff ffff     ................
  423124:	ffff ffff ffff ffff ffff ffff ffff ffff     ................
  423134:	ffff ffff ffff ffff ffff ffff ffff ffff     ................
  423144:	ffff ffff ffff ffff ffff ffff ffff ffff     ................
  423154:	ffff ffff ffff ffff ffff ffff ffff ffff     ................
  423164:	ffff ffff ffff ffff ffff ffff ffff ffff     ................
  423174:	ffff ffff ffff ffff ffff ffff ffff ffff     ................
  423184:	ffff ffff ffff ffff ffff ffff ffff ffff     ................
  423194:	ffff ffff ffff ffff ffff ffff ffff ffff     ................
  4231a4:	ffff ffff ffff ffff ffff ffff ffff ffff     ................
  4231b4:	ffff ffff ffff ffff ffff ffff ffff ffff     ................
  4231c4:	ffff ffff ffff ffff ffff ffff ffff ffff     ................
  4231d4:	ffff ffff ffff ffff ffff ffff ffff ffff     ................
  4231e4:	ffff ffff ffff ffff ffff ffff ffff ffff     ................
  4231f4:	ffff ffff ffff ffff ffff ffff ffff ffff     ................
  423204:	ffff ffff ffff ffff ffff ffff ffff ffff     ................
  423214:	ffff ffff ffff ffff ffff ffff ffff ffff     ................
  423224:	ffff ffff ffff ffff ffff ffff ffff ffff     ................
  423234:	ffff ffff ffff ffff ffff ffff ffff ffff     ................
  423244:	ffff ffff ffff ffff ffff ffff ffff ffff     ................
  423254:	ffff ffff ffff ffff ffff ffff ffff ffff     ................
  423264:	ffff ffff ffff ffff ffff ffff ffff ffff     ................
  423274:	ffff ffff ffff ffff ffff ffff ffff ffff     ................
  423284:	ffff ffff ffff ffff ffff ffff ffff ffff     ................
  423294:	ffff ffff ffff ffff ffff ffff ffff ffff     ................
  4232a4:	ffff ffff ffff ffff ffff ffff ffff ffff     ................
  4232b4:	ffff ffff ffff ffff ffff ffff ffff ffff     ................
  4232c4:	ffff ffff ffff ffff ffff ffff ffff ffff     ................
  4232d4:	ffff ffff ffff ffff ffff ffff ffff ffff     ................
  4232e4:	ffff ffff ffff ffff ffff ffff ffff ffff     ................
  4232f4:	ffff ffff ffff ffff ffff ffff ffff ffff     ................
  423304:	ffff ffff ffff ffff ffff ffff ffff ffff     ................
  423314:	ffff ffff ffff ffff ffff ffff ffff ffff     ................
  423324:	ffff ffff ffff ffff ffff ffff ffff ffff     ................
  423334:	ffff ffff ffff ffff ffff ffff ffff ffff     ................
  423344:	ffff ffff ffff ffff ffff ffff ffff ffff     ................
  423354:	ffff ffff ffff ffff ffff ffff ffff ffff     ................
  423364:	ffff ffff ffff ffff ffff ffff ffff ffff     ................
  423374:	ffff ffff ffff ffff ffff ffff ffff ffff     ................
  423384:	ffff ffff ffff ffff ffff ffff ffff ffff     ................
  423394:	ffff ffff ffff ffff ffff ffff 00ff 0000     ................
  4233a4:	2d2d 5320 4d41 3745 2030 434c 2044 4544     -- SAME70 LCD DE
  4233b4:	4f4d 2d20 0d2d 2d0a 202d 4153 454d 3037     MO --..-- SAME70
  4233c4:	582d 4c50 2044 2d2d 0a0d 2d2d 4320 6d6f     -XPLD --..-- Com
  4233d4:	6970 656c 3a64 4e20 766f 3220 2039 3032     piled: Nov 29 20
  4233e4:	3731 3120 3a38 3632 353a 2036 2d2d 0a0d     17 18:26:56 --..
  4233f4:	0000 0000 6f43 706d 7475 6361 6f61 4520     ....Computacao E
  423404:	626d 7261 6163 6164 0000 0000               mbarcada....

00423410 <_global_impure_ptr>:
  423410:	0010 2040 3130 3332 3534 3736 3938 4241     ..@ 0123456789AB
  423420:	4443 4645 0000 0000 3130 3332 3534 3736     CDEF....01234567
  423430:	3938 6261 6463 6665 0000 0000 6e28 6c75     89abcdef....(nul
  423440:	296c 0000                                   l)..

00423444 <blanks.7202>:
  423444:	2020 2020 2020 2020 2020 2020 2020 2020                     

00423454 <zeroes.7203>:
  423454:	3030 3030 3030 3030 3030 3030 3030 3030     0000000000000000
  423464:	0043 0000 4f50 4953 0058 0000 002e 0000     C...POSIX.......

00423474 <_ctype_>:
  423474:	2000 2020 2020 2020 2020 2828 2828 2028     .         ((((( 
  423484:	2020 2020 2020 2020 2020 2020 2020 2020                     
  423494:	8820 1010 1010 1010 1010 1010 1010 1010      ...............
  4234a4:	0410 0404 0404 0404 0404 1004 1010 1010     ................
  4234b4:	1010 4141 4141 4141 0101 0101 0101 0101     ..AAAAAA........
  4234c4:	0101 0101 0101 0101 0101 0101 1010 1010     ................
  4234d4:	1010 4242 4242 4242 0202 0202 0202 0202     ..BBBBBB........
  4234e4:	0202 0202 0202 0202 0202 0202 1010 1010     ................
  4234f4:	0020 0000 0000 0000 0000 0000 0000 0000      ...............
	...

00423578 <_init>:
  423578:	b5f8      	push	{r3, r4, r5, r6, r7, lr}
  42357a:	bf00      	nop
  42357c:	bcf8      	pop	{r3, r4, r5, r6, r7}
  42357e:	bc08      	pop	{r3}
  423580:	469e      	mov	lr, r3
  423582:	4770      	bx	lr

00423584 <__init_array_start>:
  423584:	00402d45 	.word	0x00402d45

00423588 <__frame_dummy_init_array_entry>:
  423588:	00400165                                e.@.

0042358c <_fini>:
  42358c:	b5f8      	push	{r3, r4, r5, r6, r7, lr}
  42358e:	bf00      	nop
  423590:	bcf8      	pop	{r3, r4, r5, r6, r7}
  423592:	bc08      	pop	{r3}
  423594:	469e      	mov	lr, r3
  423596:	4770      	bx	lr

00423598 <__fini_array_start>:
  423598:	00400141 	.word	0x00400141
